0001   0000             ; Lamdba 8300 for Minstrel 4th
0002   0000             ; Dave Curran 2026-06-18
0003   0000             
0004   0000             ; Single file (+ font.asm) version
0005   0000             ; TASM.EXE -t80 -f00 -b Single.asm Single.bin
0006   0000             ; Padded with NOPs to fill gaps in existing code
0007   0000             
0008   0000             ; Minstrel 4th Memory Map
0009   0000             ; =======================
0010   0000             
0011   0000             ; RAM
0012   0000             ; ---
0013   0000             ; 2000 - 23FF 1K Video RAM mirror (not used)
0014   0000             ; 2400 - 27FF 1K Video RAM 40x25 characters (read / write)
0015   0000             ; 2800 - 2BFF 1K Font RAM mirror (not used)
0016   0000             ; 2C00 - 2FFF 1K Font RAM 128 characters (write only)
0017   0000             
0018   0000             ; 3C00 - 3FFF 1K System RAM (not used)
0019   0000             
0020   0000             ; 4000 - FFFF 48K RAM (read / write)
0021   0000             
0022   0000             ; ROM
0023   0000             ; ---
0024   0000             ; 0000 - 1FFF 8K ROM
0025   0000             ; 2000 - 27FF 2K (not accessible)
0026   0000             ; 2800 - 3BFF 5K ROM
0027   0000             ; 3C00 - 3FFF 1K (not accessible)
0028   0000             
0029   0000             ; System Variables
0030   0000             
0031   0000             ; $4000     ERR.NR  - Current report code -1
0032   0000             ; $4001     FLAGS   - Some flags
0033   0000             ; $4002/03  ERR.SP  - Address of top of GOSUB stack
0034   0000             ; $4004/05  RAMTOP  - Address of reserved area
0035   0000             ; $4006     MODE    - Cursor mode
0036   0000             ; $4007/08  PPC     - Line number being executed
0037   0000             ; $4009     VERSN   - Version (from tape $00 = ZX81, $FF = Lambda)
0038   0000             ; $400A/0B  NXTLIN  - Address of next line to be executed (ZX81 has E.PPC here)
0039   0000             ; $400C/0D  PRGRM   - Start of user program = $4396 (ZX81 has DFILE here)
0040   0000             ; $400E/0F  DF.CC   - Display file current character
0041   0000             ; $4010/11  VARS    - Start of variable area
0042   0000             ; $4012/13  DEST    - Address of variable being assigned
0043   0000             ; $4014/15  E.LINE  - Address of edit line
0044   0000             ; $4016/17  CH.ADD  - Next character to interpret
0045   0000             ; $4018/19  X.PTR   - Addess of character before syntax error
0046   0000             ; $401A/1B  STKBOT  - Address of calculator stack
0047   0000             ; $401C/1D  STKEND  - End of calculator stack
0048   0000             ; $401E     BREG    - Floating point B register
0049   0000             ; $401F/20  MEM     - Address of calc memory area = MEMBOT
0050   0000             ; $4021     TEMPO   - Setting of music tempo (was SPARE1)
0051   0000             ; $4022     DF.SZ   - Size of editor part of screen
0052   0000             ; $4023/24  S.TOP   - Line number at top of screen
0053   0000             ; $4025/26  LAST.K  - Last keyboard scan
0054   0000             ; $4027     DB.ST   - Keyboard debounce status
0055   0000             ; $4028     MARGIN  - Number of lines in margin
0056   0000             ; $4029/2A  E.PPC   - Line number of line with cursor (ZX81 has NXTLIN here)
0057   0000             ; $402B/2C  OLDPPC  - Address of line where CONT jumps
0058   0000             ; $402D     FLAGX   - Some more flags
0059   0000             ; $402E/F   STRLEN  - String length
0060   0000             ; $4030/31  T.ADDR  - Next item in syntax table
0061   0000             ; $4032/33  SEED    - Seed for RND
0062   0000             ; $4034/35  FRAMES  - Frame counter
0063   0000             ; $4035/37  COORDS  - Last point plotted (to add for DRAW?)
0064   0000             ; $4038     PR.CC   - Address of LPRINT position
0065   0000             ; $4039/3A  S.POSN  - Current PRINT position
0066   0000             ; $403B     CDFLAG  - Compute Display Flags for FAST/SLOW mode (Bit 7 = 1 for SLOW, Bit 6 = 1 to request SLOW mode)
0067   0000             ; $403C-5C  PRBUFF  - Printer buffer
0068   0000             ; $405D-7A  MEMBOT  - Calculator memory
0069   0000             ; $407B-7C  BLINK   - Cursor blink
0070   0000             ; $407D-$4395       - Display file
0071   0000             ; $4396-RAMTOP      - User Program memory
0072   0000             
0073   0000             ; no DFILE system variable - Location of display file, that is hard coded at $407D
0074   0000             DFILE .EQU $407D
0075   0000             
0076   0000             
0077   0000             .ORG $0000
0078   0000             ; -----------
0079   0000             ; THE 'START'
0080   0000             ; -----------
0081   0000             
0082   0000             START:
0083   0000 C3 40 2A        JP INIT_4TH                         ; Initialise the Minstrel 4th video RAM
0084   0003             
0085   0003             ; @@@@@@@@@@@@@@@@@@@@@@@@@@@@@@@@@@@@@@@@@@@@@@@@
0086   0003             ; unused code retained to build binary compatible 
0087   0003 00              nop
0088   0004 00              nop
0089   0005 00              nop
0090   0006 18 1D           jr $0025
0091   0008             ; @@@@@@@@@@@@@@@@@@@@@@@@@@@@@@@@@@@@@@@@@@@@@@@@
0092   0008             
0093   0008             .ORG $0008
0094   0008             ; ---------------------------
0095   0008             ; THE 'ERROR' RESTART RST 08H
0096   0008             ; ---------------------------
0097   0008             ; ERROR-1
0098   0008 2A 16 40        LD HL,($4016)                       ; CH.ADD - Address of next character to interpret
0099   000B 22 18 40        LD ($4018),HL                       ; X.PTR - Address of character before error
0100   000E 18 47           JR ERROR_2                           ;
0101   0010             
0102   0010             
0103   0010             .ORG $0010
0104   0010             ; ---------------------------------------
0105   0010             ; THE 'PRINT A CHARACTER' RESTART RST 10H
0106   0010             ; ---------------------------------------
0107   0010             ; PRINT-A
0108   0010 A7              AND A
0109   0011 C2 92 09        JP NZ,L_0992
0110   0014 C3 96 09        JP L_0996
0111   0017             
0112   0017             ; @@@@@@@@@@@@@@@@@@@@@@@@@@@@@@@@@@@@@@@@@@@@@@@@
0113   0017             ; unused code retained to build binary compatible 
0114   0017 FF              .BYTE $FF                           ; unused
0115   0018             ; @@@@@@@@@@@@@@@@@@@@@@@@@@@@@@@@@@@@@@@@@@@@@@@@
0116   0018             
0117   0018             .ORG $0018
0118   0018             ; -----------------------------------------
0119   0018             ; THE 'COLLECT A CHARACTER' RESTART RST 18H
0120   0018             ; -----------------------------------------
0121   0018             GET_CHAR:
0122   0018 2A 16 40        LD HL,($4016)
0123   001B 7E              LD A,(HL)
0124   001C             GET_CHAR_1:
0125   001C A7              AND A
0126   001D C0              RET NZ
0127   001E                 
0128   001E             ; @@@@@@@@@@@@@@@@@@@@@@@@@@@@@@@@@@@@@@@@@@@@@@@@
0129   001E             ; unused code retained to build binary compatible 
0130   001E 00              NOP
0131   001F 00              NOP
0132   0020             ; @@@@@@@@@@@@@@@@@@@@@@@@@@@@@@@@@@@@@@@@@@@@@@@@
0133   0020             
0134   0020             .ORG $0020
0135   0020             ; --------------------------------------------
0136   0020             ; THE 'COLLECT NEXT CHARACTER' RESTART RST 20H
0137   0020             ; --------------------------------------------
0138   0020             ; NEXT-CHAR
0139   0020 CD 4A 00        CALL INC_CH_ADD
0140   0023 18 F7           JR GET_CHAR_1
0141   0025             
0142   0025             ; @@@@@@@@@@@@@@@@@@@@@@@@@@@@@@@@@@@@@@@@@@@@@@@@
0143   0025             ; unused code retained to build binary compatible 
0144   0025 C3 6E 04        JP $046E
0145   0028             ; @@@@@@@@@@@@@@@@@@@@@@@@@@@@@@@@@@@@@@@@@@@@@@@@
0146   0028             
0147   0028             .ORG $0028
0148   0028             ; -----------------------------------------------
0149   0028             ; THE 'FLOATING POINT CALCULATOR' RESTART RST 28H
0150   0028             ; -----------------------------------------------
0151   0028             ; FP-CALC
0152   0028 C3 94 1B        JP L_1B94
0153   002B             
0154   002B             SUB_END_CALC:
0155   002B F1              POP AF
0156   002C D9              EXX
0157   002D E3              EX (SP),HL
0158   002E D9              EXX
0159   002F C9              RET
0160   0030             
0161   0030             .ORG $0030
0162   0030             ; ------------------------------------
0163   0030             ; THE 'MAKE BC SPACES' RESTART RST 30H
0164   0030             ; ------------------------------------
0165   0030             ; BC-SPACES
0166   0030 C5              PUSH BC
0167   0031 2A 14 40        LD HL,($4014)
0168   0034 E5              PUSH HL
0169   0035 C3 7D 16        JP L_167D
0170   0038             
0171   0038             .ORG $0038
0172   0038             ; --------------------------------
0173   0038             ; THE 'MASKABLE INTERRUPT' ROUTINE
0174   0038             ; --------------------------------
0175   0038             ; Called once every frame
0176   0038             
0177   0038             INTERRUPT:
0178   0038             ; Called once every frame either halted in fast mode or user code in slow
0179   0038 F5              PUSH AF                             ; store the accumulator andflags.
0180   0039              
0181   0039 3A 3B 40        LD A,($403B)                        ; get CDFLAG
0182   003C CB 7F           BIT 7,A                             ; check for slowmode
0183   003E             
0184   003E 20 02           JR NZ,RET_SLOW                      ; skip if SLOW mode
0185   0040              
0186   0040 F1              POP AF                              ; restore the accumulator and flags.
0187   0041 C9              RET                                 ; return for the next frame if FAST mode
0188   0042             
0189   0042             ; Slow mode interrupt - we have interrupted users code
0190   0042             RET_SLOW:
0191   0042              
0192   0042                                                     ; stackcontains:
0193   0042                                                     ; * User code returnaddress
0194   0042                                                     ; ** Previously pushed AF
0195   0042 C5              PUSH BC                             ; *** Remaining Main Registers
0196   0043 D5              PUSH DE                             ; ****
0197   0044 E5              PUSH HL                             ; *****
0198   0045              
0199   0045 C3 9D 02        JP L_029D                           ; ready for the start of the next frame
0200   0048             
0201   0048             ; ---------------------------------
0202   0048             ; THE 'INCREMENT CH-ADD' SUBROUTINE
0203   0048             ; ---------------------------------
0204   0048             
0205   004A             .ORG $004A
0206   004A             INC_CH_ADD:
0207   004A 2A 16 40        LD HL,($4016)
0208   004D             
0209   004D             TEMP_PTR1:
0210   004D 23              INC HL
0211   004E             
0212   004E             TEMP_PTR2:
0213   004E 22 16 40        LD ($4016),HL
0214   0051 7E              LD A,(HL)
0215   0052 FE 7F           CP $7F
0216   0054 C0              RET NZ
0217   0055 18 F6           JR TEMP_PTR1
0218   0057             
0219   0057             ; --------------------
0220   0057             ; THE 'ERROR-2' BRANCH
0221   0057             ; --------------------
0222   0057             
0223   0057             ERROR_2:
0224   0057 E1              POP HL                              ; get error code
0225   0058 6E              LD L,(HL)                           ; extract error byte
0226   0059             
0227   0059             ERROR_3:
0228   0059 FD 75 00        LD (IY+$00),L                       ; set ERR_NR, system error number
0229   005C ED 7B 02 40     LD SP,($4002)                       ; reset stack pointer to top of GOSUB stack
0230   0060 CD 85 02        CALL SUB_0285                       ; SLOW mode
0231   0063 C3 B4 16        JP L_16B4                           ; exit via SET_MIN to clear calculator stack
0232   0066             
0233   0066             ; ------------------------------------
0234   0066             ; THE 'NON MASKABLE INTERRUPT' ROUTINE
0235   0066             ; ------------------------------------
0236   0066             
0237   0066             ; NMI
0238   0066             .ORG $0066
0239   0066 ED 45           RETN                                ; no NMI on 4th
0240   0068             
0241   0068             ; @@@@@@@@@@@@@@@@@@@@@@@@@@@@@@@@@@@@@@@@@@@@@@@@
0242   0068             ; unused code retained to build binary compatible 
0243   0068 CA 6E 00        JP Z,$006E
0244   006B 00              NOP
0245   006C 08              EX AF,AF'
0246   006D C9              RET
0247   006E 08              EX AF,AF'
0248   006F F5              PUSH AF
0249   0070 C5              PUSH BC
0250   0071 D5              PUSH DE
0251   0072 E5              PUSH HL
0252   0073 21 7D C0        LD HL,$407D + $8000
0253   0076 76              HALT
0254   0077 D3 FD           OUT ($FD),A
0255   0079 DD E9           JP (IX)     
0256   007B             ; @@@@@@@@@@@@@@@@@@@@@@@@@@@@@@@@@@@@@@@@@@@@@@@@
0257   007B             
0258   007B             
0259   007B             ; ****************
0260   007B             ; ** KEY TABLES **
0261   007B             ; ****************
0262   007B             
0263   007B             ; -------------------------------
0264   007B             ; THE 'UNSHIFTED' CHARACTER CODES
0265   007B             ; -------------------------------
0266   007B             
0267   007B             ; K-UNSHIFT
0268   007B             .ORG $007B
0269   007B             L_007B:
0270   007B             
0271   007B 1B              .BYTE $1B                           ; .
0272   007C 3F              .BYTE $3F                           ; Z
0273   007D 3D              .BYTE $3D                           ; X
0274   007E 28              .BYTE $28                           ; C
0275   007F             
0276   007F 26              .BYTE $26                           ; A
0277   0080 38              .BYTE $38                           ; S
0278   0081 29              .BYTE $29                           ; D
0279   0082 2B              .BYTE $2B                           ; F
0280   0083 2C              .BYTE $2C                           ; G
0281   0084             
0282   0084 36              .BYTE $36                           ; Q
0283   0085 3C              .BYTE $3C                           ; W
0284   0086 2A              .BYTE $2A                           ; E
0285   0087 37              .BYTE $37                           ; R
0286   0088 39              .BYTE $39                           ; T
0287   0089             
0288   0089 1D              .BYTE $1D                           ; 1
0289   008A 1E              .BYTE $1E                           ; 2
0290   008B 1F              .BYTE $1F                           ; 3
0291   008C 20              .BYTE $20                           ; 4
0292   008D 21              .BYTE $21                           ; 5
0293   008E             
0294   008E 1C              .BYTE $1C                           ; 0
0295   008F 25              .BYTE $25                           ; 9
0296   0090 24              .BYTE $24                           ; 8
0297   0091 23              .BYTE $23                           ; 7
0298   0092 22              .BYTE $22                           ; 6
0299   0093             
0300   0093 35              .BYTE $35                           ; P
0301   0094 34              .BYTE $34                           ; O
0302   0095 2E              .BYTE $2E                           ; I
0303   0096 3A              .BYTE $3A                           ; U
0304   0097 3E              .BYTE $3E                           ; Y
0305   0098             
0306   0098 76              .BYTE $76                           ; NEWLINE
0307   0099 31              .BYTE $31                           ; L
0308   009A 30              .BYTE $30                           ; K
0309   009B 2F              .BYTE $2F                           ; J
0310   009C 2D              .BYTE $2D                           ; H
0311   009D             
0312   009D 00              .BYTE $00                           ; SPACE
0313   009E 32              .BYTE $32                           ; M
0314   009F 33              .BYTE $33                           ; N
0315   00A0 27              .BYTE $27                           ; B
0316   00A1 3B              .BYTE $3B                           ; V
0317   00A2             
0318   00A2             ; -----------------------------
0319   00A2             ; THE 'SHIFTED' CHARACTER CODES
0320   00A2             ; -----------------------------
0321   00A2             
0322   00A2             ; K-SHIFT
0323   00A2             L_00A2:
0324   00A2 77              .BYTE $77                           ; Shift + . = RUBOUT
0325   00A3 F5              .BYTE $F5                           ; Shift + Z = PRINT
0326   00A4 7A              .BYTE $7A                           ; Shift + X = Lineno
0327   00A5 70              .BYTE $70                           ; Shift + C = cursor-up
0328   00A6             
0329   00A6 C6              .BYTE $C6                           ; Shift + A = ASN
0330   00A7 C7              .BYTE $C7                           ; Shift + S = ACS
0331   00A8 C8              .BYTE $C8                           ; Shift + D = ATN
0332   00A9 CA              .BYTE $CA                           ; Shift + F = EXP
0333   00AA CE              .BYTE $CE                           ; Shift + G = ABS
0334   00AB             
0335   00AB C3              .BYTE $C3                           ; Shift + Q = SIN
0336   00AC C4              .BYTE $C4                           ; Shift + W = COS
0337   00AD C5              .BYTE $C5                           ; Shift + E = TAN
0338   00AE C9              .BYTE $C9                           ; Shift + R = LOG
0339   00AF CD              .BYTE $CD                           ; Shift + T = SGN
0340   00B0             
0341   00B0 0F              .BYTE $0F                           ; Shift + 1 = ?
0342   00B1 0C              .BYTE $0C                           ; Shift + 2 = £
0343   00B2 0E              .BYTE $0E                           ; Shift + 3 = :
0344   00B3 0D              .BYTE $0D                           ; Shift + 4 = $
0345   00B4 0B              .BYTE $0B                           ; Shift + 5 = "
0346   00B5             
0347   00B5 14              .BYTE $14                           ; Shift + 0 = =
0348   00B6 11              .BYTE $11                           ; Shift + 9 = )
0349   00B7 10              .BYTE $10                           ; Shift + 8 = (
0350   00B8 1A              .BYTE $1A                           ; Shift + 7 = ,
0351   00B9 19              .BYTE $19                           ; SHIFT + 6 = ;
0352   00BA             
0353   00BA 12              .BYTE $12                           ; Shift + P = >
0354   00BB 13              .BYTE $13                           ; Shift + O = <
0355   00BC 45              .BYTE $45                           ; Shift + I = PI
0356   00BD 43              .BYTE $43                           ; Shift + U = RND
0357   00BE CC              .BYTE $CC                           ; Shift + Y = SQR
0358   00BF             
0359   00BF 74              .BYTE $74                           ; Shift + N/L = GRAPHICS
0360   00C0 15              .BYTE $15                           ; Shift + L = +
0361   00C1 16              .BYTE $16                           ; Shift + K = -
0362   00C2 17              .BYTE $17                           ; Shift + J = *
0363   00C3 18              .BYTE $18                           ; Shift + H = /
0364   00C4             
0365   00C4 79              .BYTE $79                           ; Shift + SPACE = FUNCTION
0366   00C5 75              .BYTE $75                           ; Shift + M = EDIT
0367   00C6 73              .BYTE $73                           ; Shift + N = cursor-right
0368   00C7 72              .BYTE $72                           ; Shift + B = cursor-left
0369   00C8 71              .BYTE $71                           ; Shift + V = cursor-down
0370   00C9             
0371   00C9             
0372   00C9             ; -----------------------------
0373   00C9             ; THE 'GRAPHIC' CHARACTER CODES
0374   00C9             ; -----------------------------
0375   00C9             
0376   00C9             ; K-GRAPH
0377   00C9             ; 00C9
0378   00C9 77              .BYTE $77                           ; Graphics + . = RUBOUT
0379   00CA 83              .BYTE $83                           ; Graphics + Z = graphic
0380   00CB 03              .BYTE $03                           ; Graphics + X = graphic
0381   00CC 05              .BYTE $05                           ; Graphics + C = graphic
0382   00CD             
0383   00CD 08              .BYTE $08                           ; Graphics + A = graphic
0384   00CE 0A              .BYTE $0A                           ; Graphics + S = graphic
0385   00CF 09              .BYTE $09                           ; Graphics + D = graphic
0386   00D0 8A              .BYTE $8A                           ; Graphics + F = graphic
0387   00D1 89              .BYTE $89                           ; Graphics + G = graphic
0388   00D2             
0389   00D2 01              .BYTE $01                           ; Graphics + Q = graphic
0390   00D3 02              .BYTE $02                           ; Graphics + W = graphic
0391   00D4 04              .BYTE $04                           ; Graphics + E = graphic
0392   00D5 87              .BYTE $87                           ; Graphics + R = graphic
0393   00D6 81              .BYTE $81                           ; Graphics + T = graphic
0394   00D7             
0395   00D7 8F              .BYTE $8F                           ; Graphics + 1 = graphic
0396   00D8 8C              .BYTE $8C                           ; Graphics + 2 = graphic
0397   00D9 8E              .BYTE $8E                           ; Graphics + 3 = graphic
0398   00DA 8D              .BYTE $8D                           ; Graphics + 4 = inverse $
0399   00DB 8B              .BYTE $8B                           ; Graphics + 5 = inverse "
0400   00DC             
0401   00DC 94              .BYTE $94                           ; Graphics + 0 = inverse =
0402   00DD 91              .BYTE $91                           ; Graphics + 9 = inverse )
0403   00DE 90              .BYTE $90                           ; Graphics + 8 = inverse (
0404   00DF 9A              .BYTE $9A                           ; Graphics + 7 = inverse ,
0405   00E0 99              .BYTE $99                           ; GRAPHICS + 6 = INVERSE                                                                  ;
0406   00E1             
0407   00E1 92              .BYTE $92                           ; Graphics + P = inverse >
0408   00E2 93              .BYTE $93                           ; Graphics + O = inverse <
0409   00E3 07              .BYTE $07                           ; Graphics + I = graphic
0410   00E4 84              .BYTE $84                           ; Graphics + U = graphic
0411   00E5 82              .BYTE $82                           ; Graphics + Y = graphic
0412   00E6             
0413   00E6 78              .BYTE $78                           ; Graphics + N/L = KL
0414   00E7 95              .BYTE $95                           ; Graphics + L = inverse +
0415   00E8 96              .BYTE $96                           ; Graphics + K = inverse -
0416   00E9 97              .BYTE $97                           ; Graphics + J = inverse *
0417   00EA 98              .BYTE $98                           ; Graphics + H = inverse /
0418   00EB             
0419   00EB 78              .BYTE $78                           ; Graphics + SPACE =
0420   00EC 78              .BYTE $78                           ; Graphics + M =KL
0421   00ED 86              .BYTE $86                           ; Graphics + N =graphic
0422   00EE 06              .BYTE $06                           ; Graphics + B =graphic
0423   00EF 85              .BYTE $85                           ; Graphics + V =graphic
0424   00F0             
0425   00F0             ; ------------------
0426   00F0             ; THE 'TOKEN' TABLES
0427   00F0             ; ------------------
0428   00F0             
0429   00F0             ; TOKENS
0430   00F0             L_00F0:
0431   00F0 9B              .BYTE $1B+$80                       ; '.' + $80 ?
0432   00F1             L_00F1:
0433   00F1 28 34 29 AA     .BYTE $28,$34,$29,$2A+$80           ; CODE
0434   00F5 3B 26 B1        .BYTE $3B,$26,$31+$80               ; VAL
0435   00F8 31 2A B3        .BYTE $31,$2A,$33+$80               ; LEN
0436   00FB 38 2E B3        .BYTE $38,$2E,$33+$80               ; SIN
0437   00FE 28 34 B8        .BYTE $28,$34,$38+$80               ; COS
0438   0101 39 26 B3        .BYTE $39,$26,$33+$80               ; TAN
0439   0104 26 38 B3        .BYTE $26,$38,$33+$80               ; ASN
0440   0107 26 28 B8        .BYTE $26,$28,$38+$80               ; ACS
0441   010A 26 39 B3        .BYTE $26,$39,$33+$80               ; ATN
0442   010D 31 34 AC        .BYTE $31,$34,$2C+$80               ; LOG
0443   0110 2A 3D B5        .BYTE $2A,$3D,$35+$80               ; EXP
0444   0113 2E 33 B9        .BYTE $2E,$33,$39+$80               ; INT
0445   0116 38 36 B7        .BYTE $38,$36,$37+$80               ; SQR
0446   0119 38 2C B3        .BYTE $38,$2C,$33+$80               ; SGN
0447   011C 26 27 B8        .BYTE $26,$27,$38+$80               ; ABS
0448   011F 35 2A 2A B0     .BYTE $35,$2A,$2A,$30+$80           ; PEEK
0449   0123 3A 38 B7        .BYTE $3A,$38,$37+$80               ; USR
0450   0126 38 39 37 8D     .BYTE $38,$39,$37,$0D+$80           ; STR$
0451   012A 28 2D 37 8D     .BYTE $28,$2D,$37,$0D+$80           ; CHR$
0452   012E 33 34 B9        .BYTE $33,$34,$39+$80               ; NOT
0453   0131 26 B9           .BYTE $26,$39+$80                   ; AT
0454   0133 39 26 A7        .BYTE $39,$26,$27+$80               ; TAB
0455   0136 17 97           .BYTE $17,$17+$80                   ; **
0456   0138 34 B7           .BYTE $34,$37+$80                   ; OR
0457   013A 26 33 A9        .BYTE $26,$33,$29+$80               ; AND
0458   013D 13 94           .BYTE $13,$14+$80                   ; <=
0459   013F 12 94           .BYTE $12,$14+$80                   ; >=
0460   0141 13 92           .BYTE $13,$12+$80                   ; <>
0461   0143             
0462   0143 39 2A 32 35     .BYTE $39,$2A,$32,$35,$34+$80       ; TEMPO
0462   0147 B4 
0463   0148 32 3A 38 2E     .BYTE $32,$3A,$38,$2E,$28+$80       ; MUSIC
0463   014C A8 
0464   014D 38 34 3A 33     .BYTE $38,$34,$3A,$33,$29+$80       ; SOUND
0464   0151 A9 
0465   0152 27 2A 2A B5     .BYTE $27,$2A,$2A,$35+$80           ; BEEP
0466   0156 33 34 27 2A     .BYTE $33,$34,$27,$2A,$2A,$35+$80   ; NOBEEP
0466   015A 2A B5 
0467   015C 31 35 37 2E     .BYTE $31,$35,$37,$2E,$33,$39+$80   ; LPRINT
0467   0160 33 B9 
0468   0162 31 31 2E 38     .BYTE $31,$31,$2E,$38,$39+$80       ; LLIST
0468   0166 B9 
0469   0167 38 39 34 B5     .BYTE $38,$39,$34,$35+$80           ; STOP
0470   016B 38 31 34 BC     .BYTE $38,$31,$34,$3C+$80           ; SLOW
0471   016F 2B 26 38 B9     .BYTE $2B,$26,$38,$39+$80           ; FAST
0472   0173 33 2A BC        .BYTE $33,$2A,$3C+$80               ; NEW
0473   0176 38 28 37 34     .BYTE $38,$28,$37,$34,$31,$31+$80   ; SCROLL
0473   017A 31 B1 
0474   017C 28 34 33 B9     .BYTE $28,$34,$33,$39+$80           ; CONT
0475   0180 29 2E B2        .BYTE $29,$2E,$32+$80               ; DIM
0476   0183 37 2A B2        .BYTE $37,$2A,$32+$80               ; REM
0477   0186 2B 34 B7        .BYTE $2B,$34,$37+$80               ; FOR
0478   0189 2C 34 39 B4     .BYTE $2C,$34,$39,$34+$80           ; GOTO
0479   018D 2C 34 38 3A     .BYTE $2C,$34,$38,$3A,$27+$80       ; GOSUB
0479   0191 A7 
0480   0192 2E 33 35 3A     .BYTE $2E,$33,$35,$3A,$39+$80       ; INPUT
0480   0196 B9 
0481   0197 31 34 26 A9     .BYTE $31,$34,$26,$29+$80           ; LOAD
0482   019B 31 2E 38 B9     .BYTE $31,$2E,$38,$39+$80           ; LIST
0483   019F 31 2A B9        .BYTE $31,$2A,$39+$80               ; LET
0484   01A2 35 26 3A 38     .BYTE $35,$26,$3A,$38,$2A+$80       ; PAUSE
0484   01A6 AA 
0485   01A7 33 2A 3D B9     .BYTE $33,$2A,$3D,$39+$80           ; NEXT
0486   01AB 35 34 30 AA     .BYTE $35,$34,$30,$2A+$80           ; POKE
0487   01AF 35 37 2E 33     .BYTE $35,$37,$2E,$33,$39+$80       ; PRINT
0487   01B3 B9 
0488   01B4 35 31 34 B9     .BYTE $35,$31,$34,$39+$80           ; PLOT
0489   01B8 37 3A B3        .BYTE $37,$3A,$33+$80               ; RUN
0490   01BB 38 26 3B AA     .BYTE $38,$26,$3B,$2A+$80           ; SAVE
0491   01BF 37 26 33 A9     .BYTE $37,$26,$33,$29+$80           ; RAND
0492   01C3 2E AB           .BYTE $2E,$2B+$80                   ; IF
0493   01C5 28 31 B8        .BYTE $28,$31,$38+$80               ; CLS
0494   01C8 3A 33 35 31     .BYTE $3A,$33,$35,$31,$34,$39+$80   ; UNPLOT
0494   01CC 34 B9 
0495   01CE 28 31 2A 26     .BYTE $28,$31,$2A,$26,$37+$80       ; CLEAR
0495   01D2 B7 
0496   01D3 37 2A 39 3A     .BYTE $37,$2A,$39,$3A,$37,$33+$80   ; RETURN
0496   01D7 37 B3 
0497   01D9 28 34 35 BE     .BYTE $28,$34,$35,$3E+$80           ; COPY
0498   01DD             
0499   01DD 39 2D 2A B3     .BYTE $39,$2D,$2A,$33+$80           ; THEN
0500   01E1 39 B4           .BYTE $39,$34+$80                   ; TO
0501   01E3 38 39 2A B5     .BYTE $38,$39,$2A,$35+$80           ; STEP
0502   01E7 37 33 A9        .BYTE $37,$33,$29+$80               ; RND
0503   01EA 2E 33 30 2A     .BYTE $2E,$33,$30,$2A,$3E,$0D+$80   ; INKEY$
0503   01EE 3E 8D 
0504   01F0 35 AE           .BYTE $35,$2E+$80                   ; PI
0505   01F2             
0506   01F2             ; ---------------------------
0507   01F2             ; THE 'ERROR MESSAGES' TABLES
0508   01F2             ; ---------------------------
0509   01F2             
0510   01F2             ; table of error messages, used by function at $07E1
0511   01F2             L_01F2:
0512   01F2 34 30           .BYTE $34,$30                       ; FF = OK - OK
0513   01F4 33 2B           .BYTE $33,$2B                       ; 00 = NF - NEXT without FOR
0514   01F6 3A 3B           .BYTE $3A,$3B                       ; 01 = UV - Unidentified Variable
0515   01F8 27 38           .BYTE $27,$38                       ; 02 = BS - Bad Subscript
0516   01FA 34 32           .BYTE $34,$32                       ; 03 = OM - Out of Memory
0517   01FC 38 2B           .BYTE $38,$2B                       ; 04 = SF - Screen Full
0518   01FE 34 3B           .BYTE $34,$3B                       ; 05 = OV - OVerflow
0519   0200 37 2C           .BYTE $37,$2C                       ; 06 = RG - RETURN without GOSUB
0520   0202 2E 2E           .BYTE $2E,$2E                       ; 07 = II - Illegal INPUT
0521   0204 38 39           .BYTE $38,$39                       ; 08 = ST - STop
0522   0206 26 2C           .BYTE $26,$2C                       ; 09 = AG - invalid ArGument
0523   0208 2E 37           .BYTE $2E,$37                       ; 0A = IR - Integer out of Range
0524   020A 2E 2A           .BYTE $2E,$2A                       ; 0B = IE - Invalid Expression
0525   020C 27 30           .BYTE $27,$30                       ; 0C = BK - BreaK
0526   020E 33 26           .BYTE $33,$26                       ; 0D = NA - No program NAme
0527   0210 32 2B           .BYTE $32,$2B                       ; 0E = MF - Music Format incorrect
0528   0212             
0529   0212             ; the " IN " message
0530   0212             L_0212:
0531   0212 00 2E 33 00     .BYTE $00,$2E,$33,$00               ; " IN " ("OK IN 10")
0532   0216             
0533   0216             
0534   0216             ; ------------------------------
0535   0216             ; THE 'LOAD-SAVE UPDATE' ROUTINE
0536   0216             ; ------------------------------
0537   0216             
0538   0216             ; LOAD/SAVE
0539   0216             SUB_0216:
0540   0216 23              INC HL                              ; Step destination
0541   0217 EB              EX DE,HL                            ; Backup to DE
0542   0218 2A 14 40        LD HL,($4014)                       ; Get E-LINE
0543   021B 37              SCF                                 ; Check if they match
0544   021C ED 52           SBC HL,DE                           ; Is the last byte the end of the file?
0545   021E EB              EX DE,HL                            ; Restore destination
0546   021F D0              RET NC                              ; return if the end has not been reached
0547   0220 E1              POP HL                              ; drop the return address and continue
0548   0221             ; ZX81 drops to SLOW here
0549   0221             
0550   0221             ; LOAD/SAVE-COMPLETE
0551   0221             L_0221:
0552   0221 FD 34 09        INC (IY+$09)                        ; increment version (from tape Lambda = $FF, ZX81 = $00. normal Lambda = $00, ZX81 = $01)
0553   0224 28 5F           JR Z,SUB_0285                       ; if it was $FF, a Lambda program, go straight to FAST/SLOW
0554   0226             
0555   0226             ; This code converts a ZX81 program to the Lambda 8300
0556   0226                 
0557   0226                                                     ; The following line is patched out to insert the function call, which ends with that line and a RET
0558   0226                                                     ;LD HL,($400C)                                                           ; Location of the ZX81 DFILE (loaded with program)
0559   0226 CD E1 2A        CALL PATCH_FONT                     ; If patching a ZX81 program, patch the font as well
0560   0229             
0561   0229 23              INC HL                              ; +1
0562   022A 22 10 40        LD ($4010),HL                       ; Store this as
0563   022D 21 7D 40        LD HL,DFILE                         ; Hard coded DFILE location
0564   0230 01 19 03        LD BC,$0319                         ; Length of DFILE + 1 extra blank row to make SCROLL a block copy
0565   0233 CD 30 0B        CALL SUB_0B30                       ; MAKE-ROOM for BC bytes at location in HL
0566   0236 EB              EX DE,HL                            ; HL is now at the program location
0567   0237             ; ZX81-CONV-1
0568   0237             L_0237:
0569   0237 23              INC HL                              ; Step through memory
0570   0238 3E C0           LD A,$C0
0571   023A A6              AND (HL)                            ; Mask off the top two bits
0572   023B 23              INC HL
0573   023C 23              INC HL
0574   023D 23              INC HL
0575   023E 28 08           JR Z,L_0248                         ; If it was <$30, skip to ZX81-CONV-4
0576   0240 21 96 43        LD HL,$4396                         ; Hard coded number we worked out before (start of program)
0577   0243 C3 AC 04        JP L_04AC                           ; Re-initialise after loading and clear screen etc.
0578   0246             
0579   0246             ; ZX81-CONV-2
0580   0246             L_0246:
0581   0246 80              ADD A,B                             ; modify the command token from ZX81 to Lambda tokens
0582   0247             
0583   0247             ; ZX81-CONV-3
0584   0247             L_0247:
0585   0247 77              LD (HL),A                           ; update the token in the copde
0586   0248             
0587   0248             ; ZX81-CONV-4
0588   0248             L_0248:
0589   0248 23              INC HL                              ; step through program
0590   0249 7E              LD A,(HL)
0591   024A CD 55 09        CALL SUB_0955                       ; routine NUMBER
0592   024D 28 F9           JR Z,L_0248                         ; skip through numbers
0593   024F             
0594   024F FE 76           CP $76                              ; is it a newline?
0595   0251 28 E4           JR Z,L_0237                         ; skip back for next line number
0596   0253 FE E1           CP $E1                              ; is it a command over $E1?
0597   0255 30 F1           JR NC,L_0248                        ; continue scanning
0598   0257 FE 40           CP $40                              ; is it a number character below $40?
0599   0259 38 ED           JR C,L_0248                         ; continue scanning
0600   025B 06 03           LD B,$03
0601   025D FE 43           CP $43                              ; is it a command below $43?
0602   025F 38 E5           JR C,L_0246                         ; add 3
0603   0261 06 62           LD B,$62
0604   0263 FE DE           CP $DE                              ; is it a command above $DE?
0605   0265 30 DF           JR NC,L_0246                        ; add $62
0606   0267 06 FE           LD B,$FE
0607   0269 FE D8           CP $D8                              ; is it cpmmand $D8?
0608   026B 30 D9           JR NC,L_0246                        ; add $FE
0609   026D 06 FC           LD B,$FC
0610   026F FE C4           CP $C4                              ; is it above $C4?
0611   0271 30 D3           JR NC,L_0246                        ; add $FC
0612   0273 06 13           LD B,$13
0613   0275 FE C1           CP $C1                              ; is it above $C1?
0614   0277 30 CD           JR NC,L_0246                        ; add $13
0615   0279 FE C0           CP $C0
0616   027B 20 CB           JR NZ,L_0248                        ; is it not $C0?
0617   027D 3E 17           LD A,$17                            ; replace with dummy command
0618   027F 18 C6           JR L_0247                           ; loop back to write the new value
0619   0281             
0620   0281             ; --------------------------
0621   0281             ; THE 'SLOW' COMMAND ROUTINE
0622   0281             ; --------------------------
0623   0281             
0624   0281             ; SLOW
0625   0281             SUB_0281:
0626   0281 FD CB 3B F6     SET 6,(IY+$3B)                      ; Request slow mode ()
0627   0285             
0628   0285             ; SLOW/FAST
0629   0285             SUB_0285:
0630   0285 21 3B 40        LD HL,$403B                         ; load the CDFLAG
0631   0288 7E              LD A,(HL)
0632   0289 17              RLA                                 ; bit 6 (request) -> bit 7 (current state)
0633   028A AE              XOR (HL)                            ; XOR with actual current state
0634   028B 17              RLA                                 ; result -> carry
0635   028C D0              RET NC                              ; return if already in requested mode
0636   028D             
0637   028D CB FE           SET 7,(HL)                          ; set slow mode - compute and display
0638   028F F5              PUSH AF
0639   0290 C5              PUSH BC
0640   0291 D5              PUSH DE
0641   0292 E5              PUSH HL
0642   0293             
0643   0293             ; Called where DISPLAY-1 usually was
0644   0293             ; PRE-DISPLAY-1
0645   0293             SUB_0293:
0646   0293 18 08           JR L_029D                           ; Bypass PRE-DISPLAY-1
0647   0295                 
0648   0295             ; -----------------------
0649   0295             ; THE 'MAIN DISPLAY' LOOP
0650   0295             ; -----------------------
0651   0295             ; This routine is executed once for every frame displayed.
0652   0295             
0653   0295             ;; DISPLAY-1
0654   029D             .ORG $029D
0655   029D             L_029D:
0656   029D 2A 34 40        LD HL,($4034)                       ; Get the frame count from FRAMES
0657   02A0 2B              DEC HL
0658   02A1 3E 7F           LD A,$7F                            ; Mask bit 7
0659   02A3 A4              AND H                               ; of H
0660   02A4 B5              OR L                                ; and OR with L
0661   02A5 7C              LD A,H                              ;
0662   02A6 20 03           JR NZ,L_02AB                        ; Jump if frame counter bits 0-14 are zero
0663   02A8 17              RLA                                 ; bit 15 of frame counter (1 if paused) to carry
0664   02A9 18 02           JR L_02AD                           ; skip
0665   02AB             
0666   02AB             ; ANOTHER
0667   02AB             L_02AB:
0668   02AB 46              LD B,(HL)                           ; Dummy timing
0669   02AC 37              SCF                                 ; set carry
0670   02AD             
0671   02AD             ; OVER-NC
0672   02AD             L_02AD:
0673   02AD 67              LD H,A
0674   02AE 22 34 40        LD ($4034),HL                       ; Save the new frame count to FRAMES
0675   02B1 D0              RET NC                              ; Return if FRAMES is in use by PAUSE command
0676   02B2             
0677   02B2             ; ZX81 goes string to ; DISPLAY-2
0678   02B2             
0679   02B2             ; Bit 7 of the cursor character is inverted every 16 frames
0680   02B2             ; That makes it flashe approximately 2 times a second
0681   02B2             ; BLINK-CURSOR
0682   02B2 7D              LD A,L                              ; A = LSB of FRAMES
0683   02B3 2A 7B 40        LD HL,($407B)                       ; Address of blinking cursor
0684   02B6 CB 26           SLA (HL)                            ; rotate cursor character
0685   02B8 17              RLA                                 ;
0686   02B9 17              RLA                                 ;
0687   02BA 17              RLA                                 ;
0688   02BB 17              RLA                                 ; rotate A bit 4 into carry
0689   02BC CB 1E           RR (HL)                             ; rotate carry back into character
0690   02BE             
0691   02BE             ; DISPLAY-2
0692   02BE CD 3D 03        CALL SUB_033D                       ; KEYBOARD - scan keyboard and start VSYNC
0693   02C1 ED 4B 25 40     LD BC,($4025)                       ; get LAST_K
0694   02C5 22 25 40        LD ($4025),HL                       ; update LAST_K
0695   02C8 78              LD A,B
0696   02C9 C6 02           ADD A,$02
0697   02CB ED 42           SBC HL,BC
0698   02CD 3A 27 40        LD A,($4027)                        ; Check DEBOUNCE
0699   02D0 B4              OR H
0700   02D1 B5              OR L
0701   02D2 58              LD E,B
0702   02D3 06 09           LD B,$09                            ; ZX81 used $0B
0703   02D5 21 3B 40        LD HL,$403B                         ; Get CDFLAG
0704   02D8 CB 86           RES 0,(HL)
0705   02DA 20 08           JR NZ,L_02E4
0706   02DC CB 7E           BIT 7,(HL)
0707   02DE CB C6           SET 0,(HL)
0708   02E0 C8              RET Z                               ; return if in FAST mode
0709   02E1 05              DEC B
0710   02E2 05              DEC B                               ; extra DEC B, ZX81 was NOP
0711   02E3 37              SCF
0712   02E4             
0713   02E4             ; NO-KEY
0714   02E4             L_02E4:
0715   02E4 CB 10           RL B                                ; Reordered from ZX81
0716   02E6             
0717   02E6             ; LOOP-B
0718   02E6             L_02E6:
0719   02E6 10 FE           DJNZ L_02E6
0720   02E8 21 27 40        LD HL,$4027
0721   02EB 46              LD B,(HL)                           ; Get DEBOUCE
0722   02EC 7B              LD A,E
0723   02ED FE FE           CP $FE
0724   02EF 9F              SBC A,A
0725   02F0 06 0F           LD B,$0F                            ; ZX81 has $1F
0726   02F2 B6              OR (HL)
0727   02F3 A0              AND B
0728   02F4 1F              RRA
0729   02F5 77              LD (HL),A
0730   02F6 29              ADD HL,HL
0731   02F7 23              INC HL
0732   02F8 D3 FF           OUT ($FF),A                         ; End VSYNC pulse
0733   02FA             
0734   02FA 21 7D C0        LD HL,$407D + $8000                 ; Hard coded DFILE location
0735   02FD CD 14 03        CALL SUB_0314
0736   0300             
0737   0300             ; ---------------------
0738   0300             ; THE 'VIDEO-1' ROUTINE
0739   0300             ; ---------------------
0740   0300             
0741   0300             ; R-IX-1 (timing altered)
0742   0300 01 01 19        LD BC,$1901                         ; B=25 lines, C=1 scanline
0743   0303 3A 00 00        LD A,($0000)                        ; wasting cycles
0744   0306 3E F5           LD A,$F5                            ; Preset value to go into R to cause trigger at correct time
0745   0308 CD 37 03        CALL SUB_0337                       ; DISPLAY-5, border complete, generate text display
0746   030B 00              NOP
0747   030C 00              NOP
0748   030D 2B              DEC HL                              ; back to the previous HALT character
0749   030E CD 14 03        CALL SUB_0314                       ; DISPLAY-3, bottom border
0750   0311 C3 9D 02        JP L_029D                           ; Back to DISPLAY-1
0751   0314             
0752   0314             ; ---------------------------------
0753   0314             ; THE 'DISPLAY BLANK LINES' ROUTINE
0754   0314             ; ---------------------------------
0755   0314             
0756   0314             ; DISPLAY-3
0757   0314             SUB_0314:
0758   0314 C9              RET                                 ; DISPLAY-3 - Nothing to do on the Minstrel 4th
0759   0315             
0760   0315             ; @@@@@@@@@@@@@@@@@@@@@@@@@@@@@@@@@@@@@@@@@@@@@@@@
0761   0315             ; unused code retained to build binary compatible 
0762   0315 00              NOP
0763   0316 FD 4E 28        LD C,(IY+$28)
0764   0319 FD CB 3B 7E     BIT 7,(IY+$3B)
0765   031D 28 0C           JR Z,L_032B
0766   031F 79              LD A,C
0767   0320 ED 44           NEG
0768   0322 3C              INC A
0769   0323 08              EX AF,AF'
0770   0324 D3 FE           OUT ($FE),A
0771   0326 E1              POP HL
0772   0327 D1              POP DE
0773   0328 C1              POP BC
0774   0329 F1              POP AF
0775   032A C9              RET
0776   032B             ; @@@@@@@@@@@@@@@@@@@@@@@@@@@@@@@@@@@@@@@@@@@@@@@@
0777   032B             
0778   032B             
0779   032B             ; ------------------------
0780   032B             ; THE 'FAST MODE' ROUTINES
0781   032B             ; ------------------------
0782   032B             
0783   032B             ; DISPLAY-4
0784   032B             .ORG $032B
0785   032B             L_032B:
0786   032B 3E FC           LD A,$FC                            ; Set delay
0787   032D 06 01           LD B,$01                            ; For 1 row
0788   032F CD 37 03        CALL SUB_0337                       ; To DISPLAY-5
0789   0332 2B              DEC HL                              ; Back to previous HALT
0790   0333 E3              EX (SP),HL                          ; Waste cycles
0791   0334 E3              EX (SP),HL
0792   0335 DD E9           JP (IX)                             ; Back to R-IX-1 or R-IX-2
0793   0337             
0794   0337             ; --------------------------
0795   0337             ; THE 'DISPLAY-5' SUBROUTINE
0796   0337             ; --------------------------
0797   0337             
0798   0337             ; DISPLAY-5
0799   0337             SUB_0337:
0800   0337 C3 A3 2A        JP DISPLAY_ROUTINE                  ; Jump to display routine
0801   033A             
0802   033A             ; @@@@@@@@@@@@@@@@@@@@@@@@@@@@@@@@@@@@@@@@@@@@@@@@
0803   033A             ; unused code retained to build binary compatible 
0804   033A DD              .BYTE $DD
0805   033B FB              EI
0806   033C E9              JP (HL) 
0807   033D             ; @@@@@@@@@@@@@@@@@@@@@@@@@@@@@@@@@@@@@@@@@@@@@@@@
0808   033D             
0809   033D             ; ----------------------------------
0810   033D             ; THE 'KEYBOARD SCANNING' SUBROUTINE
0811   033D             ; ----------------------------------
0812   033D             
0813   033D             ; KEYBOARD
0814   033D             .ORG $033D
0815   033D             SUB_033D:
0816   033D 21 FF FF        LD HL,$FFFF
0817   0340 01 FE FE        LD BC,$FEFE
0818   0343 ED 78           IN A,(C)                            ; Read port $FE, starts VSync pulse
0819   0345 F6 01           OR $01                              ; Ignore shift
0820   0347             
0821   0347             ; EACH-LINE
0822   0347             L_0347:
0823   0347 F6 E0           OR $E0
0824   0349 57              LD D,A
0825   034A 2F              CPL
0826   034B FE 01           CP $01
0827   034D 9F              SBC A,A
0828   034E B0              OR B
0829   034F A5              AND L
0830   0350 6F              LD L,A
0831   0351 7C              LD A,H
0832   0352 A2              AND D
0833   0353 67              LD H,A
0834   0354 CB 00           RLC B
0835   0356 ED 78           IN A,(C)
0836   0358 38 ED           JR C,L_0347
0837   035A 1F              RRA
0838   035B CB 14           RL H
0839   035D             
0840   035D             ; GET_REGION
0841   035D 3E FF           LD A,$FF                            ; Read port $7E
0842   035F DB 7E           IN A,($7E)                          ; Will return the same as $FE unless there is something different in the Lambda
0843   0361 1F              RRA                                 ; Bit 7 => carry (Bit 7 that is the tape input???)
0844   0362 1F              RRA                                 ; Rotate bit 6 (PAL/NTSC) to carry
0845   0363 9F              SBC A,A                             ; A = $FF (PAL) or $00 (NTSC)
0846   0364 E6 18           AND $18                             ; A = $18       or $00
0847   0366 C6 1F           ADD A,$1F                           ; A = $37       or $1F
0848   0368 32 28 40        LD ($4028),A                        ; Save this as MARGIN
0849   036B C9              RET
0850   036C             
0851   036C             ; --------------------------
0852   036C             ; THE 'FAST' COMMAND ROUTINE
0853   036C             ; --------------------------
0854   036C             ; FAST
0855   036C             SUB_036C:
0856   036C FD CB 3B B6     RES 6,(IY+$3B)                      ; Request FAST mode
0857   0370             
0858   0370             ; ------------------------------
0859   0370             ; THE 'SET FAST MODE' SUBROUTINE
0860   0370             ; ------------------------------
0861   0370             
0862   0370             ; SET-FAST
0863   0370             SUB_0370:
0864   0370 FD CB 3B 7E     BIT 7,(IY+$3B)                      ; Test FAST mode
0865   0374 C8              RET Z                               ; Already in Fast mode
0866   0375 FB              EI                                  ; Enable interrupts
0867   0376 76              HALT                                ; Halt and wait for the next interrupt
0868   0377             
0869   0377             ; @@@@@@@@@@@@@@@@@@@@@@@@@@@@@@@@@@@@@@@@@@@@@@@@
0870   0377             ; unused code retained to build binary compatible 
0871   0377 00              NOP
0872   0378             ; @@@@@@@@@@@@@@@@@@@@@@@@@@@@@@@@@@@@@@@@@@@@@@@@
0873   0378             
0874   0378 FD CB 3B BE     RES 7,(IY+$3B)                      ; Set FAST mode
0875   037C C9              RET
0876   037D             
0877   037D             .ORG $037D
0878   037D             
0879   037D             ; --------------
0880   037D             ; THE 'REPORT-F'
0881   037D             ; --------------
0882   037D             
0883   037D             ;; REPORT-F
0884   037D             L_037D:
0885   037D CF              RST 08H                             ; ERROR-1
0886   037E 0D              .BYTE $0D                           ; NA - po program NAme supplied.
0887   037F             
0888   037F             ; --------------------------
0889   037F             ; THE 'SAVE COMMAND' ROUTINE
0890   037F             ; --------------------------
0891   037F             
0892   037F             ; SAVE
0893   037F             SUB_037F:
0894   037F CD 35 04        CALL SUB_0435
0895   0382 38 F9           JR C,L_037D
0896   0384 FD 36 09 FF     LD (IY+$09),$FF                     ; Set version to $FF, indicating Lambda 8300 program
0897   0388 EB              EX DE,HL
0898   0389 11 CB 12        LD DE,$12CB                         ; five seconds timing value
0899   038C             
0900   038C             ; HEADER
0901   038C             L_038C:
0902   038C CD 3B 11        CALL SUB_113B
0903   038F 30 2E           JR NC,L_03BF
0904   0391             
0905   0391             ; DELAY-1
0906   0391             L_0391:
0907   0391 10 FE           DJNZ L_0391
0908   0393 1B              DEC DE
0909   0394 7A              LD A,D
0910   0395 B3              OR E
0911   0396 20 F4           JR NZ,L_038C
0912   0398             
0913   0398             ; OUT-NAME
0914   0398             L_0398:
0915   0398 CD AB 03        CALL SUB_03AB
0916   039B CB 7E           BIT 7,(HL)
0917   039D 23              INC HL
0918   039E 28 F8           JR Z,L_0398
0919   03A0 21 09 40        LD HL,$4009                         ; Set HL to first address to go, VERSN
0920   03A3             
0921   03A3             ; OUT-PROG
0922   03A3             L_03A3:
0923   03A3 CD AB 03        CALL SUB_03AB
0924   03A6 CD 16 02        CALL SUB_0216
0925   03A9 18 F8           JR L_03A3
0926   03AB             
0927   03AB             ; -------------------------
0928   03AB             ; THE 'OUT-BYTE' SUBROUTINE
0929   03AB             ; -------------------------
0930   03AB             
0931   03AB             ; OUT-BYTE
0932   03AB             SUB_03AB:
0933   03AB 5E              LD E,(HL)
0934   03AC 37              SCF
0935   03AD             
0936   03AD             ; EACH-BIT
0937   03AD             L_03AD:
0938   03AD CB 13           RL E
0939   03AF C8              RET Z
0940   03B0 9F              SBC A,A
0941   03B1 E6 05           AND $05
0942   03B3 C6 04           ADD A,$04
0943   03B5 4F              LD C,A
0944   03B6             
0945   03B6             ; PULSES
0946   03B6             L_03B6:
0947   03B6 D3 FF           OUT ($FF),A
0948   03B8 06 23           LD B,$23
0949   03BA             
0950   03BA             ; DELAY-2
0951   03BA             L_03BA:
0952   03BA 10 FE           DJNZ L_03BA
0953   03BC CD 3B 11        CALL SUB_113B
0954   03BF             
0955   03BF             ; BREAK-2
0956   03BF             L_03BF:
0957   03BF 30 72           JR NC,L_0433
0958   03C1 06 1E           LD B,$1E
0959   03C3             
0960   03C3             ; DELAY-3
0961   03C3             L_03C3:
0962   03C3 10 FE           DJNZ L_03C3
0963   03C5 0D              DEC C
0964   03C6 20 EE           JR NZ,L_03B6
0965   03C8             
0966   03C8             ; DELAY-4
0967   03C8             L_03C8:
0968   03C8 A7              AND A
0969   03C9 10 FD           DJNZ L_03C8
0970   03CB 18 E0           JR L_03AD
0971   03CD             
0972   03CD             ; --------------------------
0973   03CD             ; THE 'LOAD COMMAND' ROUTINE
0974   03CD             ; --------------------------
0975   03CD             
0976   03CD             ; LOAD
0977   03CD             SUB_03CD:
0978   03CD CD 35 04        CALL SUB_0435                       ; Routine NAME
0979   03D0                                                     ; DE points to start of name in RAM
0980   03D0 CB 12           RL D                                ; Pick up carry
0981   03D2 CB 0A           RRC D                               ; Carry now in bit 7
0982   03D4             
0983   03D4             ; NEXT-PROG
0984   03D4             L_03D4:
0985   03D4 CD D9 03        CALL SUB_03D9                       ; routine IN-BYTE
0986   03D7 18 FB           JR L_03D4                           ; loop to NEXT-PROG
0987   03D9             
0988   03D9             ; ------------------------
0989   03D9             ; THE 'IN-BYTE' SUBROUTINE
0990   03D9             ; ------------------------
0991   03D9             
0992   03D9             ; IN-BYTE
0993   03D9             SUB_03D9:
0994   03D9 0E 01           LD C,$01                            ; Byte counter
0995   03DB             
0996   03DB             ; NEXT-BIT
0997   03DB             L_03DB:
0998   03DB 06 00           LD B,$00                            ; Loop 256 times
0999   03DD             
1000   03DD             ; BREAK-3
1001   03DD             L_03DD:
1002   03DD 3E 7F           LD A,$7F                            ; Check the space key
1003   03DF DB FE           IN A,($FE)                          ;
1004   03E1 D3 FF           OUT ($FF),A                         ; IO Write triggers VYsnc pulses on screen
1005   03E3 1F              RRA                                 ; check for space pressed (bit 0->Carry)
1006   03E4 30 49           JR NC,L_042F                        ; to BREAK-4 if so
1007   03E6 17              RLA                                 ; Carry->bit 0
1008   03E7 17              RLA                                 ; bit 7->Carry
1009   03E8 38 28           JR C,L_0412                         ; Forward to GET-BIT if there is data
1010   03EA 10 F1           DJNZ L_03DD                         ; Loop back and keep checking
1011   03EC F1              POP AF                              ; Drop return address
1012   03ED BA              CP D                                ; But A holds the value from port FE?
1013   03EE             
1014   03EE             ; RESTART
1015   03EE             L_03EE:
1016   03EE D2 A3 04        JP NC,L_04A3
1017   03F1 62              LD H,D
1018   03F2 6B              LD L,E
1019   03F3             
1020   03F3             ; IN-NAME
1021   03F3             L_03F3:
1022   03F3 CD D9 03        CALL SUB_03D9
1023   03F6 CB 7A           BIT 7,D
1024   03F8 79              LD A,C
1025   03F9 20 03           JR NZ,L_03FE
1026   03FB BE              CP (HL)
1027   03FC 20 D6           JR NZ,L_03D4
1028   03FE             
1029   03FE             ; MATCHING
1030   03FE             L_03FE:
1031   03FE 23              INC HL
1032   03FF 17              RLA
1033   0400 30 F1           JR NC,L_03F3
1034   0402 FD 34 15        INC (IY+$15)
1035   0405 21 09 40        LD HL,$4009
1036   0408             
1037   0408             ; IN-PROG
1038   0408             L_0408:
1039   0408 50              LD D,B
1040   0409 CD D9 03        CALL SUB_03D9
1041   040C 71              LD (HL),C
1042   040D CD 16 02        CALL SUB_0216
1043   0410 18 F6           JR L_0408
1044   0412             
1045   0412             ; GET-BIT
1046   0412             L_0412:
1047   0412 D5              PUSH DE
1048   0413 1E 94           LD E,$94
1049   0415             
1050   0415             ; TRAILER
1051   0415             L_0415:
1052   0415 06 1A           LD B,$1A
1053   0417             
1054   0417             ; COUNTER
1055   0417             L_0417:
1056   0417 1D              DEC E
1057   0418 DB FE           IN A,($FE)
1058   041A 17              RLA
1059   041B CB 7B           BIT 7,E
1060   041D 7B              LD A,E
1061   041E 38 F5           JR C,L_0415
1062   0420 10 F5           DJNZ L_0417
1063   0422 D1              POP DE
1064   0423 20 04           JR NZ,L_0429
1065   0425 FE 56           CP $56
1066   0427 30 B2           JR NC,L_03DB
1067   0429             
1068   0429             ; BIT-DONE
1069   0429             L_0429:
1070   0429 3F              CCF
1071   042A CB 11           RL C
1072   042C 30 AD           JR NC,L_03DB
1073   042E C9              RET
1074   042F             
1075   042F             ; BREAK-4
1076   042F             L_042F:
1077   042F 7A              LD A,D                              ; Get D
1078   0430 A7              AND A                               ; Test it
1079   0431 28 BB           JR Z,L_03EE                         ; If there has been data, then restart
1080   0433             
1081   0433             ; REPORT-D
1082   0433             L_0433:
1083   0433 CF              RST 08H                             ; ERROR-1
1084   0434 0C              .BYTE $0C                           ; Error Report: BREAK - CONT repeats
1085   0435             
1086   0435             ; -----------------------------
1087   0435             ; THE 'PROGRAM NAME' SUBROUTINE
1088   0435             ; -----------------------------
1089   0435             
1090   0435             ; NAME
1091   0435             SUB_0435:
1092   0435 CD 4A 11        CALL SUB_114A                       ; routine SCANNING
1093   0438 3A 01 40        LD A,($4001)
1094   043B 87              ADD A,A
1095   043C FA 17 0F        JP M,L_0F17                         ; to REPORT-C - Invalid Expression
1096   043F E1              POP HL
1097   0440 D0              RET NC
1098   0441 E5              PUSH HL
1099   0442 CD 70 03        CALL SUB_0370                       ; routine SET-FAST
1100   0445 CD ED 15        CALL SUB_15ED                       ; routine STK-FETCH
1101   0448 62              LD H,D
1102   0449 6B              LD L,E
1103   044A 0D              DEC C
1104   044B F8              RET M
1105   044C 09              ADD HL,BC
1106   044D CB FE           SET 7,(HL)
1107   044F C9              RET
1108   0450             
1109   0450             ; --------------------------
1110   0450             ; THE 'MAKE A NOISE' ROUTINE
1111   0450             ; --------------------------
1112   0450             
1113   0450             ; MAKE-NOISE
1114   0450             SUB_0450:
1115   0450 1E 20           LD E,$20                            ; note = 32500/32 = 1.02KHz
1116   0452 01 00 18        LD BC,$1800                         ; duration = 6144/65 = 94ms
1117   0455 18 09           JR L_0460                           ; Routine PLAY-NOTE
1118   0457             
1119   0457             ; ----------------------------
1120   0457             ; THE 'SOUND' COMMAND ROUTINE
1121   0457             ; ----------------------------
1122   0457             
1123   0457             ; SOUND
1124   0457             SUB_0457:
1125   0457 CD 88 10        CALL SUB_1088                       ; routine FIND-INT => BC
1126   045A C5              PUSH BC
1127   045B CD 83 10        CALL SUB_1083                       ; routine FIND-SHORT => A
1128   045E C1              POP BC
1129   045F 5F              LD E,A                              ; INT => E
1130   0460             
1131   0460             ; PLAY-NOTE
1132   0460             ; E = note, defined as 32500Hz/E, so (0=256=>127Hz) to (1=>32.5KHz)
1133   0460             ; BC = duration, defined as BC/65ms, so (1=>15ms) to (0=65536=>1 second)
1134   0460             ; Appox 4 times slower in SLOW mode
1135   0460             L_0460:
1136   0460 C3 81 2C        JP PLAY_NOTE                        ; replacement play-note function
1137   0463             L_0463:    
1138   0463 C3 85 2C        JP PLAY_NOTE_2                      ; alternate entry point for MUSIC
1139   0466             
1140   0466             ; @@@@@@@@@@@@@@@@@@@@@@@@@@@@@@@@@@@@@@@@@@@@@@@@
1141   0466             ; unused code retained to build binary compatible 
1142   0466             
1143   0466 00              NOP
1144   0467 00              NOP
1145   0468 00              NOP
1146   0469 00              NOP
1147   046A 00              NOP
1148   046B 00              NOP
1149   046C 18 F5           JR $0463
1150   046E 1F              RRA
1151   046F 2F              CPL
1152   0470 32 06 40        LD ($4006),A
1153   0473 01 FF BF        LD BC,$BFFF
1154   0476 30 11           JR NC,$0489
1155   0478 3A 7D 40        LD A,(DFILE)
1156   047B FE 76           CP $76
1157   047D 20 0A           JR NZ,$0489
1158   047F 28 3F           JR Z,$04C0
1159   0481             
1160   0481             ; @@@@@@@@@@@@@@@@@@@@@@@@@@@@@@@@@@@
1161   0481             
1162   0481             
1163   0481             ; ---------------
1164   0481             ; START CONTINUED
1165   0481             ; ---------------
1166   0481             
1167   0481             ; START-3
1168   0481             ; gone
1169   0481             
1170   0481             .ORG $0481
1171   0481             ; -------------------------
1172   0481             ; THE 'NEW' COMMAND ROUTINE
1173   0481             ; -------------------------
1174   0481             
1175   0481             ; NEW
1176   0481             SUB_0481:
1177   0481 CD 70 03        CALL SUB_0370                       ; Set FAST mode
1178   0484 ED 4B 04 40     LD BC,($4004)                       ; RAMTOP top of detected / protected RAM
1179   0488 0B              DEC BC
1180   0489             
1181   0489             ; -----------------------
1182   0489             ; THE 'RAM CHECK' ROUTINE
1183   0489             ; -----------------------
1184   0489             
1185   0489             ; RAM-CHECK
1186   0489             L_0489:
1187   0489 60              LD H,B                              ; HL = BC = last byte to test
1188   048A 69              LD L,C
1189   048B 3E 3F           LD A,$3F                            ; stop point, check RAM down to $4000
1190   048D             
1191   048D             ; RAM-FILL
1192   048D             L_048D:
1193   048D 36 02           LD (HL),$02                         ; write 2 to every address in RAM.
1194   048F 2B              DEC HL
1195   0490 BC              CP H                                ; stop when H=A=$3F
1196   0491 20 FA           JR NZ,L_048D
1197   0493             
1198   0493             ; RAM-READ
1199   0493             L_0493:
1200   0493 A7              AND A                               ; reset carry flag
1201   0494 ED 42           SBC HL,BC                           ; Compare HL and BC
1202   0496 09              ADD HL,BC                           ;
1203   0497 23              INC HL                              ; HL = 4000 - what was the point in all that?
1204   0498 30 06           JR NC,L_04A0                        ; if HL=BC, we're finished?
1205   049A 35              DEC (HL)                            ; Decrement RAM
1206   049B 28 03           JR Z,L_04A0                         ; Test if RAM was 1, but it would be picked up by the next test anyway?
1207   049D                                                     ; I wonder if this was original a test for mirrors? but it doesn't do that now
1208   049D 35              DEC (HL)                            ; Decrement RAM
1209   049E 28 F3           JR Z,L_0493                         ; It was 2 previously, zero now, good RAM, keep checking
1210   04A0             
1211   04A0             ; SET-TOP
1212   04A0             L_04A0:
1213   04A0 22 04 40        LD ($4004),HL                       ; Set RAMTOP, top of usable RAM
1214   04A3             
1215   04A3             ; ----------------------------------
1216   04A3             ; THE 'DFILE INITIALIZATION' ROUTINE
1217   04A3             ; ----------------------------------
1218   04A3             
1219   04A3             ; INIT-DFILE
1220   04A3             L_04A3:
1221   04A3 21 97 43        LD HL,$4397                         ; Set VARS, starts of variable area
1222   04A6 22 10 40        LD ($4010),HL                       ; VARS = $4397 - fixed location after DFILE
1223   04A9 2B              DEC HL                              ; HL = 4396, start of program
1224   04AA 36 FF           LD (HL),$FF
1225   04AC             L_04AC:
1226   04AC 22 0C 40        LD ($400C),HL                       ; Set PRGRM
1227   04AF             
1228   04AF             ; CREATE-DFILE
1229   04AF 0E 19           LD C,$19                            ; 24 lines + 1 extra NL
1230   04B1 AF              XOR A                               ; A = 0 = Space
1231   04B2             
1232   04B2             ; NEXT-LINE
1233   04B2             L_04B2:
1234   04B2 2B              DEC HL
1235   04B3 36 76           LD (HL),$76                         ; start / end with newline / halt
1236   04B5 0D              DEC C                               ; line counter
1237   04B6 28 08           JR Z,L_04C0                         ; finished?
1238   04B8             
1239   04B8             ; FILL-LINE
1240   04B8 06 20           LD B,$20                            ; fill line with 32 spaces
1241   04BA             L_04BA:
1242   04BA 2B              DEC HL                              ; step backwards
1243   04BB 77              LD (HL),A                           ; write a space
1244   04BC 10 FC           DJNZ L_04BA                         ; loop until done
1245   04BE 18 F2           JR L_04B2                           ; back for more
1246   04C0             
1247   04C0             ; ----------------------------
1248   04C0             ; THE 'INITIALIZATION' ROUTINE
1249   04C0             ; ----------------------------
1250   04C0             
1251   04C0             ; INITIAL
1252   04C0             L_04C0:
1253   04C0 2A 04 40        LD HL,($4004)                       ; Get RAMTOP
1254   04C3 2B              DEC HL                              ; Move to last system byte
1255   04C4 36 3E           LD (HL),$3E                         ; Set GOSUB end marker
1256   04C6 2B              DEC HL                              ; Move down again
1257   04C7 F9              LD SP,HL                            ; Set stack here
1258   04C8 2B              DEC HL                              ; Move to first location in stack
1259   04C9 2B              DEC HL                              ;
1260   04CA 22 02 40        LD ($4002),HL                       ; Set error stack pointer ERR_SP
1261   04CD                                                     ; I register is setup here on ZX81, not used on the Lambda,
1262   04CD                                                     ; The character ROM is inside the ULA
1263   04CD ED 56           IM 1                                ; Z80 interrupt mode 1
1264   04CF FD 21 00 40     LD IY,$4000                         ; Set IY to start of SYS VARS to make access easier
1265   04D3 FD 36 3B 40     LD (IY+$3B),$40                     ; CDFLAG - compute and display mode requested
1266   04D7 FD 36 21 19     LD (IY+$21),$19                     ; Set TEMPO to 25 (25*3.94ms = ~ 100ms)
1267   04DB AF              XOR A                               ; Clear more flags
1268   04DC 32 19 40        LD ($4019),A                        ; X_PTR_lo = 0
1269   04DF 32 2D 40        LD ($402D),A                        ; FLAGX = 0
1270   04E2 32 01 40        LD ($4001),A                        ; FLAGS = 0
1271   04E5 32 7C 40        LD ($407C),A                        ; SPARE3 = 0
1272   04E8 3D              DEC A                               ; A now $FF
1273   04E9 32 35 40        LD ($4035),A                        ; FRAMES_lo = $FF
1274   04EC CD 92 16        CALL SUB_1692                       ; CLEAR
1275   04EF CD 50 04        CALL SUB_0450                       ; MAKE-NOISE
1276   04F2             
1277   04F2 C3 80 2A        JP SHOW_BANNER                      ; show banner at init
1278   04F5                                                     ; will jump back to after CLS
1279   04F5             
1280   04F5             
1281   04FC             .ORG $04FC
1282   04FC             L_04FC:
1283   04FC CD A5 16        CALL SUB_16A5                       ; CURSOR-IN, set cursor on edit line
1284   04FF             
1285   04FF             ; ---------------------------
1286   04FF             ; THE 'BASIC LISTING' SECTION
1287   04FF             ; ---------------------------
1288   04FF             
1289   04FF             ; UPPER
1290   04FF             L_04FF:
1291   04FF CD D0 0B        CALL SUB_0BD0                       ; CLS
1292   0502 2A 29 40        LD HL,($4029)                       ; E.PPC line number with cursor on (was $400A on ZX81)
1293   0505 ED 5B 23 40     LD DE,($4023)
1294   0509 A7              AND A
1295   050A ED 52           SBC HL,DE
1296   050C EB              EX DE,HL
1297   050D 30 04           JR NC,L_0513
1298   050F 19              ADD HL,DE
1299   0510 22 23 40        LD ($4023),HL
1300   0513             
1301   0513             ; ADDR-TOP
1302   0513             L_0513:
1303   0513 CD 6A 0B        CALL SUB_0B6A
1304   0516 28 01           JR Z,L_0519
1305   0518 EB              EX DE,HL
1306   0519             
1307   0519             ; LIST-TOP
1308   0519             L_0519:
1309   0519 CD CD 08        CALL SUB_08CD
1310   051C FD 35 1E        DEC (IY+$1E)
1311   051F 20 37           JR NZ,L_0558                        ; routine LOWER
1312   0521 2A 29 40        LD HL,($4029)                       ; E.PPC line number with cursor on (was $400A on ZX81)
1313   0524 CD 6A 0B        CALL SUB_0B6A
1314   0527 2A 16 40        LD HL,($4016)
1315   052A 37              SCF
1316   052B ED 52           SBC HL,DE
1317   052D 21 23 40        LD HL,$4023
1318   0530 30 0B           JR NC,L_053D
1319   0532 EB              EX DE,HL
1320   0533 7E              LD A,(HL)
1321   0534 23              INC HL
1322   0535 ED A0           LDI
1323   0537 12              LD (DE),A
1324   0538 18 C5           JR L_04FF
1325   053A             
1326   053A             ; DOWN-KEY
1327   053A             SUB_053A:
1328   053A 21 29 40        LD HL,$4029                         ; E.PPC line number with cursor on (was $400A on ZX81)
1329   053D             
1330   053D             ; INC-LINE
1331   053D             L_053D:
1332   053D 5E              LD E,(HL)
1333   053E 23              INC HL
1334   053F 56              LD D,(HL)
1335   0540 E5              PUSH HL
1336   0541 EB              EX DE,HL
1337   0542 23              INC HL
1338   0543 CD 6A 0B        CALL SUB_0B6A
1339   0546 CD 77 06        CALL SUB_0677
1340   0549 E1              POP HL
1341   054A             
1342   054A             ; KEY-INPUT
1343   054A             L_054A:
1344   054A FD CB 2D 6E     BIT 5,(IY+$2D)
1345   054E 20 08           JR NZ,L_0558                        ; routine LOWER
1346   0550 72              LD (HL),D
1347   0551 2B              DEC HL
1348   0552 73              LD (HL),E
1349   0553 18 AA           JR L_04FF
1350   0555             
1351   0555             ; ----------------------------
1352   0555             ; THE 'EDIT LINE COPY' SECTION
1353   0555             ; ----------------------------
1354   0555             
1355   0555             ; EDIT-INP
1356   0555             L_0555:
1357   0555 CD A5 16        CALL SUB_16A5                       ; CURSOR-IN, set cursor on edit line
1358   0558             
1359   0558             ; LOWER
1360   0558             L_0558:
1361   0558 2A 14 40        LD HL,($4014)
1362   055B             
1363   055B             ; EACH-CHAR
1364   055B             L_055B:
1365   055B 7E              LD A,(HL)
1366   055C FE 7E           CP $7E
1367   055E 20 08           JR NZ,L_0568
1368   0560 01 06 00        LD BC,$0006
1369   0563 CD F5 0B        CALL SUB_0BF5                       ; routine RECLAIM-2
1370   0566 18 F3           JR L_055B
1371   0568             
1372   0568             ; END-LINE
1373   0568             L_0568:
1374   0568 FE 76           CP $76
1375   056A 23              INC HL
1376   056B 20 EE           JR NZ,L_055B
1377   056D             
1378   056D             ; EDIT-LINE
1379   056D                                                     ; ZX81 sets K or L here - we don't have that
1380   056D             
1381   056D             ; EDIT-ROOM
1382   056D             L_056D:
1383   056D CD C2 0B        CALL SUB_0BC2                       ; routine LINE-ENDS
1384   0570 2A 14 40        LD HL,($4014)                       ; Get E.LINE, the address of edit line
1385   0573 FD 36 00 FF     LD (IY+$00),$FF                     ; Set error to $FF (OK)
1386   0577 CD FC 08        CALL SUB_08FC                       ; routine COPY-LINE
1387   057A FD CB 00 7E     BIT 7,(IY+$00)                      ; Check if there was an error
1388   057E 20 0D           JR NZ,L_058D                        ; to DISPLAY-6 if OK
1389   0580 3A 22 40        LD A,($4022)                        ; check DF.SZ, size of editor section
1390   0583 FE 18           CP $18                              ; is it >24 lines
1391   0585 30 06           JR NC,L_058D                        ; to DISPLAY-6
1392   0587 3C              INC A                               ; add a line
1393   0588 32 22 40        LD ($4022),A                        ; update value
1394   058B 18 E0           JR L_056D                           ; simplified loop back compared to ZX81
1395   058D             
1396   058D             ; --------------------------
1397   058D             ; THE 'WAIT FOR KEY' SECTION
1398   058D             ; --------------------------
1399   058D             
1400   058D             ; DISPLAY-6
1401   058D             L_058D:
1402   058D 21 00 00        LD HL,$0000                         ; clear X.PTR   - Addess of character before syntax error
1403   0590 22 18 40        LD ($4018),HL                       ;
1404   0593 21 3B 40        LD HL,$403B                         ; get CDFLAGS
1405   0596 CB 7E           BIT 7,(HL)                          ; check FAST/SLOW mode
1406   0598 CC 93 02        CALL Z,SUB_0293                     ; routine PRE-DISPLAY-1 if FAST
1407   059B             
1408   059B             ; SLOW-DISP
1409   059B             L_059B:
1410   059B CB 46           BIT 0,(HL)
1411   059D 28 FC           JR Z,L_059B                         ; Loop unti bit 0 of (HL) is 1
1412   059F ED 4B 25 40     LD BC,($4025)
1413   05A3 CD 40 11        CALL SUB_1140                       ; routine DEBOUNCE
1414   05A6 CD 5E 09        CALL SUB_095E                       ; routine DECODE
1415   05A9 30 AD           JR NC,L_0558                        ; routine LOWER
1416   05AB FD CB 3B 6E     BIT 5,(IY+$3B)                      ; Check if we should beep
1417   05AF 20 1D           JR NZ,L_05CE
1418   05B1             
1419   05B1             ; KEY-BEEP
1420   05B1 D5              PUSH DE                             ; Save DE and HL
1421   05B2 E5              PUSH HL
1422   05B3 CD 70 03        CALL SUB_0370                       ; routine SET-FAST
1423   05B6 C6 14           ADD A,$14                           ; add $14 to the key value
1424   05B8 5F              LD E,A                              ; set the note to that
1425   05B9 01 CE 04        LD BC,$04CE                         ; set the duration to 18.9ms
1426   05BC FD CB 28 6E     BIT 5,(IY+$28)                      ; test bit 5 of MARGIN to check region
1427   05C0 20 03           JR NZ,L_05C5                        ; skip if PAL
1428   05C2 01 06 04        LD BC,$0406                         ; change duration to 15.9ms
1429   05C5             L_05C5:
1430   05C5 CD 60 04        CALL L_0460                         ; Routine PLAY-NOTE
1431   05C8 CD 85 02        CALL SUB_0285                       ; FAST/SLOW
1432   05CB E1              POP HL                              ; restore DE and HL
1433   05CC D1              POP DE
1434   05CD 7B              LD A,E                              ; and A is restored to what it was + $14 (is that intentional?)
1435   05CE             
1436   05CE             ; variation on FETCH-2
1437   05CE             L_05CE:
1438   05CE FD CB 01 56     BIT 2,(IY+$01)                      ; Check FLAG K mode = 0, L = 1
1439   05D2 28 08           JR Z,L_05DC                         ; skip for K mode
1440   05D4 FE 28           CP $28                              ; check for ?
1441   05D6 38 1A           JR C,L_05F2                         ; skip
1442   05D8 21 A1 00        LD HL,$00A1
1443   05DB 19              ADD HL,DE
1444   05DC             
1445   05DC             ; FETCH-3
1446   05DC             L_05DC:
1447   05DC 7E              LD A,(HL)
1448   05DD             
1449   05DD             ; TEST-CURS
1450   05DD             L_05DD:
1451   05DD FE F0           CP $F0
1452   05DF EA FB 05        JP PE,L_05FB                        ; routine KEY-SORT
1453   05E2             
1454   05E2             ; ENTER
1455   05E2 5F              LD E,A
1456   05E3 CD 05 06        CALL SUB_0605                       ; routine CURSOR
1457   05E6 7B              LD A,E
1458   05E7 CD ED 05        CALL SUB_05ED                       ; routine ADD-CHAR
1459   05EA             
1460   05EA             ; BACK-NEXT
1461   05EA             L_05EA:
1462   05EA C3 58 05        JP L_0558                           ; back to LOWER
1463   05ED             
1464   05ED             ; ------------------------------
1465   05ED             ; THE 'ADD CHARACTER' SUBROUTINE
1466   05ED             ; ------------------------------
1467   05ED             
1468   05ED             ; ADD-CHAR
1469   05ED             SUB_05ED:
1470   05ED CD 2D 0B        CALL SUB_0B2D
1471   05F0 12              LD (DE),A
1472   05F1 C9              RET
1473   05F2             
1474   05F2             ; more variation on FETCH-2
1475   05F2             L_05F2:
1476   05F2 7E              LD A,(HL)
1477   05F3 FE 76           CP $76                              ; check for NEWLINE
1478   05F5 CB FF           SET 7,A
1479   05F7 20 E4           JR NZ,L_05DD                        ; routine TEST-CURS
1480   05F9 3E 78           LD A,$78
1481   05FB             
1482   05FB             ; KEY-SORT
1483   05FB             L_05FB:
1484   05FB 5F              LD E,A                              ; DE = key
1485   05FC 21 38 05        LD HL,L_0618 - $E0                  ; reference to ED-KEYS table
1486   05FF 19              ADD HL,DE                           ; HL = table base - $E0 + 2x key
1487   0600 19              ADD HL,DE
1488   0601 4E              LD C,(HL)                           ; BC = function address
1489   0602 23              INC HL
1490   0603 46              LD B,(HL)
1491   0604 C5              PUSH BC                             ; push handler function onto stack
1492   0605             
1493   0605             ; CURSOR
1494   0605             SUB_0605:
1495   0605 2A 14 40        LD HL,($4014)
1496   0608             
1497   0608             ; cut down version of TEST-CHAR
1498   0608             L_0608:
1499   0608 7E              LD A,(HL)
1500   0609 FE 7F           CP $7F
1501   060B C8              RET Z
1502   060C 23              INC HL
1503   060D CD 55 09        CALL SUB_0955
1504   0610 18 F6           JR L_0608
1505   0612             
1506   0612             ; --------------------------
1507   0612             ; THE 'CLEAR-ONE' SUBROUTINE
1508   0612             ; --------------------------
1509   0612             
1510   0612             ; CLEAR-ONE
1511   0612             SUB_0612:
1512   0612 01 01 00        LD BC,$0001
1513   0615 C3 F5 0B        JP SUB_0BF5                         ; routine RECLAIM-2
1514   0618             
1515   0618             ; ------------------------
1516   0618             ; THE 'EDITING KEYS' TABLE
1517   0618             ; ------------------------
1518   0618             
1519   0618             ; ED-KEYS
1520   0618             L_0618:
1521   0618 57 06           .WORD SUB_0657                      ; UP_KEY
1522   061A 3A 05           .WORD SUB_053A                      ; DOWN-KEY
1523   061C 2E 06           .WORD SUB_062E                      ; LEFT-KEY
1524   061E 37 06           .WORD SUB_0637                      ; RIGHT-KEY
1525   0620 67 06           .WORD SUB_0667                      ; SET-L-MODE
1526   0622 80 06           .WORD SUB_0680                      ; EDIT-KEY
1527   0624 13 07           .WORD SUB_0713                      ; NEWLINE-KEY
1528   0626 43 06           .WORD SUB_0643                      ; RUBOUT
1529   0628 6D 06           .WORD SUB_066D                      ; SET-K-MODE
1530   062A 00 07           .WORD SUB_0700                      ; FUNCTION
1531   062C C8 06           .WORD SUB_06C8                      ; FUNCTION
1532   062E             
1533   062E             ; -------------------------
1534   062E             ; THE 'CURSOR LEFT' ROUTINE
1535   062E             ; -------------------------
1536   062E             
1537   062E             ; LEFT-KEY
1538   062E             SUB_062E:
1539   062E CD 4B 06        CALL SUB_064B                       ; routine LEFT-EDGE
1540   0631 7E              LD A,(HL)
1541   0632 36 7F           LD (HL),$7F
1542   0634 23              INC HL
1543   0635 18 09           JR L_0640
1544   0637             
1545   0637             ; --------------------------
1546   0637             ; THE 'CURSOR RIGHT' ROUTINE
1547   0637             ; --------------------------
1548   0637             
1549   0637             ; RIGHT-KEY
1550   0637             SUB_0637:
1551   0637 23              INC HL
1552   0638 7E              LD A,(HL)
1553   0639 FE 76           CP $76
1554   063B 28 18           JR Z,L_0655                         ; routine ENDED-2
1555   063D 36 7F           LD (HL),$7F
1556   063F 2B              DEC HL
1557   0640             
1558   0640             ; GET-CODE
1559   0640             L_0640:
1560   0640 77              LD (HL),A
1561   0641             
1562   0641             ; ENDED-1
1563   0641             L_0641:
1564   0641 18 A7           JR L_05EA
1565   0643             
1566   0643             ; --------------------
1567   0643             ; THE 'RUBOUT' ROUTINE
1568   0643             ; --------------------
1569   0643             
1570   0643             ; RUBOUT
1571   0643             SUB_0643:
1572   0643 CD 4B 06        CALL SUB_064B
1573   0646 CD 12 06        CALL SUB_0612
1574   0649 18 F6           JR L_0641
1575   064B             
1576   064B             ; ------------------------
1577   064B             ; THE 'ED-EDGE' SUBROUTINE
1578   064B             ; ------------------------
1579   064B             
1580   064B             ; LEFT-EDGE
1581   064B             SUB_064B:
1582   064B 2B              DEC HL
1583   064C ED 5B 14 40     LD DE,($4014)
1584   0650 1A              LD A,(DE)
1585   0651 FE 7F           CP $7F
1586   0653 C0              RET NZ
1587   0654 D1              POP DE
1588   0655             
1589   0655             ; ENDED-2
1590   0655             L_0655:
1591   0655 18 EA           JR L_0641
1592   0657             
1593   0657             ; -----------------------
1594   0657             ; THE 'CURSOR UP' ROUTINE
1595   0657             ; -----------------------
1596   0657             
1597   0657             ; UP-KEY
1598   0657             SUB_0657:
1599   0657 2A 29 40        LD HL,($4029)                       ; E.PPC line number with cursor on (was $400A on ZX81)
1600   065A CD 6A 0B        CALL SUB_0B6A
1601   065D EB              EX DE,HL
1602   065E CD 77 06        CALL SUB_0677
1603   0661 21 2A 40        LD HL,$402A
1604   0664 C3 4A 05        JP L_054A
1605   0667             
1606   0667             
1607   0667             ; --------------------------
1608   0667             ; THE 'FUNCTION KEY' ROUTINE
1609   0667             ; --------------------------
1610   0667             
1611   0667             ; Alternatives to the FUNCTION key routine
1612   0667             
1613   0667             ; SET-L-MODE
1614   0667             SUB_0667:
1615   0667 FD CB 01 D6     SET 2,(IY+$01)                      ; Enter L mode
1616   066B 18 E8           JR L_0655
1617   066D             
1618   066D             ; SET-K-MODE
1619   066D             SUB_066D:
1620   066D FD CB 01 96     RES 2,(IY+$01)                      ; Enter K mode
1621   0671 18 E2           JR L_0655
1622   0673             
1623   0673             ; ------------------------------------
1624   0673             ; THE 'COLLECT LINE NUMBER' SUBROUTINE
1625   0673             ; ------------------------------------
1626   0673             
1627   0673             ; ZERO-DE
1628   0673             L_0673:
1629   0673 EB              EX DE,HL
1630   0674 11 8E 05        LD DE,L_058D+1                      ; Points to code containing $0000
1631   0677             
1632   0677             ; LINE-NO
1633   0677             SUB_0677:
1634   0677 7E              LD A,(HL)
1635   0678 E6 C0           AND $C0
1636   067A 20 F7           JR NZ,L_0673
1637   067C 56              LD D,(HL)
1638   067D 23              INC HL
1639   067E 5E              LD E,(HL)
1640   067F C9              RET
1641   0680             
1642   0680             ; ----------------------
1643   0680             ; THE 'EDIT KEY' ROUTINE
1644   0680             ; ----------------------
1645   0680             
1646   0680             ; EDIT-KEY
1647   0680             SUB_0680:
1648   0680 CD C2 0B        CALL SUB_0BC2                       ; routine LINE-ENDS
1649   0683 21 55 05        LD HL,L_0555                        ; routine EDIT-INP
1650   0686 E5              PUSH HL
1651   0687 FD CB 2D 6E     BIT 5,(IY+$2D)
1652   068B C0              RET NZ
1653   068C 2A 14 40        LD HL,($4014)
1654   068F 22 0E 40        LD ($400E),HL
1655   0692 21 21 18        LD HL,$1821
1656   0695 22 39 40        LD ($4039),HL
1657   0698 2A 29 40        LD HL,($4029)                       ; E.PPC line number with cursor on (was $400A on ZX81)
1658   069B CD 6A 0B        CALL SUB_0B6A
1659   069E CD 77 06        CALL SUB_0677
1660   06A1 7A              LD A,D
1661   06A2 B3              OR E
1662   06A3 C8              RET Z
1663   06A4 2B              DEC HL
1664   06A5 CD 35 0C        CALL SUB_0C35
1665   06A8 23              INC HL
1666   06A9 4E              LD C,(HL)
1667   06AA 23              INC HL
1668   06AB 46              LD B,(HL)
1669   06AC 23              INC HL
1670   06AD ED 5B 0E 40     LD DE,($400E)
1671   06B1 3E 7F           LD A,$7F
1672   06B3 12              LD (DE),A
1673   06B4 13              INC DE
1674   06B5 E5              PUSH HL
1675   06B6 21 1D 00        LD HL,$001D
1676   06B9 19              ADD HL,DE
1677   06BA 09              ADD HL,BC
1678   06BB ED 72           SBC HL,SP
1679   06BD E1              POP HL
1680   06BE D0              RET NC
1681   06BF ED B0           LDIR
1682   06C1 EB              EX DE,HL
1683   06C2             L_06C2:
1684   06C2 D1              POP DE
1685   06C3 CD 9E 16        CALL SUB_169E
1686   06C6             L_06C6:
1687   06C6 18 8D           JR L_0655
1688   06C8                                                     ; ZX81 dropped through to N/L-KEY here
1689   06C8             
1690   06C8             ; ----------------------
1691   06C8             ; THE 'EDIT KEY' ROUTINE
1692   06C8             ; ----------------------
1693   06C8             
1694   06C8             ; variation on EDIT-KEY
1695   06C8             SUB_06C8:
1696   06C8 FD CB 2D 6E     BIT 5,(IY+$2D)                      ; test FLAGX
1697   06CC 20 F8           JR NZ,L_06C6                        ; jump back if in INPUT mode
1698   06CE             
1699   06CE 21 55 05        LD HL,L_0555                        ; address of EDIT-INP routine
1700   06D1 E5              PUSH HL                             ; pushed onto stack
1701   06D2             
1702   06D2 2A 14 40        LD HL,($4014)                       ; fetch E-LINE
1703   06D5 22 0E 40        LD ($400E),HL                       ; update cursor DF-CC
1704   06D8             
1705   06D8 21 21 18        LD HL,$1821                         ; line 0, column 0
1706   06DB 22 39 40        LD ($4039),HL                       ; update S-POSN
1707   06DE             
1708   06DE 2A 29 40        LD HL,($4029)                       ; fetch E.PPC line number with cursor on (was $400A on ZX81)
1709   06E1 01 0A 00        LD BC,0$0A
1710   06E4 09              ADD HL,BC
1711   06E5 44              LD B,H
1712   06E6 4D              LD C,L
1713   06E7 21 0F 27        LD HL,$270F
1714   06EA A7              AND A
1715   06EB ED 42           SBC HL,BC
1716   06ED 30 03           JR NC,L_06F2
1717   06EF 01 0F 27        LD BC,$270F
1718   06F2             L_06F2:
1719   06F2 CD 2D 0C        CALL SUB_0C2D                       ; OUT-NUM, print line number
1720   06F5 2A 0E 40        LD HL,($400E)
1721   06F8 36 7F           LD (HL),$7F
1722   06FA 23              INC HL
1723   06FB 36 76           LD (HL),$76
1724   06FD 23              INC HL
1725   06FE 18 C2           JR L_06C2
1726   0700             
1727   0700             ; ?
1728   0700             SUB_0700:
1729   0700 21 2D 40        LD HL,$402D                         ; FLAGX
1730   0703 CB 6E           BIT 5,(HL)                          ; check bit 5
1731   0705 CA FC 04        JP Z,L_04FC
1732   0708 CB AE           RES 5,(HL)
1733   070A CD C2 0B        CALL SUB_0BC2                       ; routine LINE-ENDS
1734   070D 21 00 40        LD HL,$4000
1735   0710 C3 BC 07        JP L_07BC
1736   0713             
1737   0713             ; -------------------------
1738   0713             ; THE 'NEWLINE KEY' ROUTINE
1739   0713             ; -------------------------
1740   0713             
1741   0713             ; sort of N/L-KEY
1742   0713             SUB_0713:
1743   0713 CD C2 0B        CALL SUB_0BC2                       ; routine LINE-ENDS
1744   0716 21 58 05        LD HL,L_0558                        ; routine LOWER
1745   0719 FD CB 2D 6E     BIT 5,(IY+$2D)                      ; check FLAGS
1746   071D 20 03           JR NZ,L_0722
1747   071F 21 FF 04        LD HL,L_04FF                        ; routine UPPER
1748   0722             
1749   0722             L_0722:
1750   0722 E5              PUSH HL
1751   0723 CD 4A 08        CALL SUB_084A
1752   0726 FD CB 2D 6E     BIT 5,(IY+$2D)
1753   072A 20 0E           JR NZ,L_073A
1754   072C 2A 14 40        LD HL,($4014)
1755   072F 7E              LD A,(HL)
1756   0730 FE FF           CP $FF
1757   0732 28 06           JR Z,L_073A
1758   0734 CD 81 0A        CALL SUB_0A81
1759   0737 CD D0 0B        CALL SUB_0BD0                       ; CLS
1760   073A             
1761   073A             ; Similar to NOW_SCAN
1762   073A             L_073A:
1763   073A CD 3B 0E        CALL SUB_0E3B
1764   073D E1              POP HL
1765   073E CD 05 06        CALL SUB_0605
1766   0741 CD 12 06        CALL SUB_0612
1767   0744 CD 08 0C        CALL SUB_0C08
1768   0747 20 14           JR NZ,L_075D
1769   0749 78              LD A,B
1770   074A B1              OR C
1771   074B C2 09 08        JP NZ,L_0809
1772   074E 0B              DEC BC
1773   074F 0B              DEC BC
1774   0750 ED 43 07 40     LD ($4007),BC
1775   0754 FD 36 22 02     LD (IY+$22),$02
1776   0758 11 7D 40        LD DE,DFILE                         ; Hard coded DFILE location
1777   075B 18 13           JR L_0770
1778   075D             
1779   075D             ; N/L-INP
1780   075D             L_075D:
1781   075D FE 76           CP $76
1782   075F 28 12           JR Z,L_0773
1783   0761 ED 4B 30 40     LD BC,($4030)
1784   0765 CD B7 0A        CALL SUB_0AB7                       ; routine LOC-ADDR
1785   0768 ED 5B 0A 40     LD DE,($400A)
1786   076C FD 36 22 02     LD (IY+$22),$02
1787   0770             
1788   0770             ; TEST-NULL
1789   0770             L_0770:
1790   0770 DF              RST 18H
1791   0771 FE 76           CP $76
1792   0773             
1793   0773             ; N/L-NULL
1794   0773             L_0773:
1795   0773 CA FC 04        JP Z,L_04FC
1796   0776 FD 36 01 81     LD (IY+$01),$81
1797   077A EB              EX DE,HL
1798   077B             
1799   077B             ; NEXT-LINE
1800   077B             L_077B:
1801   077B 22 0A 40        LD ($400A),HL                       ; NXTLIN - Address of next line to be executed (ZX81 was $4029)
1802   077E EB              EX DE,HL
1803   077F CD 4E 00        CALL TEMP_PTR2
1804   0782 CD 42 0E        CALL SUB_0E42
1805   0785 FD CB 01 8E     RES 1,(IY+$01)
1806   0789 3E C0           LD A,$C0
1807   078B FD 36 19 00     LD (IY+$19),$00
1808   078F CD 9B 16        CALL SUB_169B
1809   0792 FD CB 2D AE     RES 5,(IY+$2D)
1810   0796 FD CB 00 7E     BIT 7,(IY+$00)
1811   079A 28 22           JR Z,L_07BE
1812   079C 2A 0A 40        LD HL,($400A)                       ; NXTLIN - Address of next line to be executed (ZX81 was $4029)
1813   079F A6              AND (HL)
1814   07A0 20 1C           JR NZ,L_07BE
1815   07A2 56              LD D,(HL)
1816   07A3 23              INC HL
1817   07A4 5E              LD E,(HL)
1818   07A5 ED 53 07 40     LD ($4007),DE
1819   07A9 23              INC HL
1820   07AA 5E              LD E,(HL)
1821   07AB 23              INC HL
1822   07AC 56              LD D,(HL)
1823   07AD 23              INC HL
1824   07AE EB              EX DE,HL
1825   07AF 19              ADD HL,DE
1826   07B0 CD 3B 11        CALL SUB_113B
1827   07B3 38 C6           JR C,L_077B
1828   07B5 21 00 40        LD HL,$4000
1829   07B8 CB 7E           BIT 7,(HL)
1830   07BA 28 02           JR Z,L_07BE
1831   07BC             L_07BC:
1832   07BC 36 0C           LD (HL),$0C
1833   07BE             
1834   07BE             ; STOP-LINE
1835   07BE             L_07BE:
1836   07BE FD CB 38 7E     BIT 7,(IY+$38)
1837   07C2 CC 11 0A        CALL Z,SUB_0A11
1838   07C5 01 21 01        LD BC,$0121
1839   07C8 CD B7 0A        CALL SUB_0AB7                       ; routine LOC-ADDR
1840   07CB 3A 00 40        LD A,($4000)
1841   07CE ED 4B 07 40     LD BC,($4007)
1842   07D2 3C              INC A
1843   07D3 28 0C           JR Z,L_07E1
1844   07D5 FE 09           CP $09
1845   07D7 20 01           JR NZ,L_07DA
1846   07D9 03              INC BC
1847   07DA             
1848   07DA             ; CONTINUE
1849   07DA             L_07DA:
1850   07DA ED 43 2B 40     LD ($402B),BC                       ; Set OLDPPC
1851   07DE 20 01           JR NZ,L_07E1
1852   07E0 0B              DEC BC
1853   07E1             
1854   07E1             ; REPORT (different to ZX81)
1855   07E1             L_07E1:
1856   07E1 07              RLCA                                ; a = 2 * error code
1857   07E2 5F              LD E,A
1858   07E3 16 00           LD D,$00
1859   07E5 21 F2 01        LD HL,L_01F2                        ; address of error code table
1860   07E8 19              ADD HL,DE                           ; HL = table + 2 * error code
1861   07E9             
1862   07E9 7E              LD A,(HL)                           ; print the first letter of the error code
1863   07EA D7              RST 10H
1864   07EB             
1865   07EB 23              INC HL                              ; print the second letter of the error code
1866   07EC 7E              LD A,(HL)
1867   07ED D7              RST 10H
1868   07EE             
1869   07EE CB 78           BIT 7,B                             ; check bit 7 of return address (check for immediate mode?)
1870   07F0 20 0E           JR NZ,L_0800
1871   07F2             
1872   07F2             ; IN_LINE
1873   07F2 1E 04           LD E,$04                            ; 4 characters
1874   07F4 21 12 02        LD HL,L_0212                        ; table containing " IN "
1875   07F7             L_07F7:
1876   07F7 7E              LD A,(HL)                           ; get character
1877   07F8 23              INC HL
1878   07F9 D7              RST 10H                             ; print character
1879   07FA 1D              DEC E
1880   07FB 20 FA           JR NZ,L_07F7                        ; loop until all done
1881   07FD             
1882   07FD CD 2D 0C        CALL SUB_0C2D                       ; OUT-NUM, print line number
1883   0800             L_0800:
1884   0800 CD A5 16        CALL SUB_16A5                       ; CURSOR-IN, set cursor on edit line
1885   0803 CD 40 11        CALL SUB_1140                       ; routine DEBOUNCE
1886   0806 C3 8D 05        JP L_058D
1887   0809             
1888   0809             ; N/L-LINE (sort of)
1889   0809             L_0809:
1890   0809 ED 43 29 40     LD ($4029),BC                       ; E.PPC line number with cursor on (was $400A on ZX81)
1891   080D 2A 16 40        LD HL,($4016)
1892   0810 EB              EX DE,HL
1893   0811 21 FC 04        LD HL,L_04FC
1894   0814 E5              PUSH HL
1895   0815 2A 1A 40        LD HL,($401A)
1896   0818 ED 52           SBC HL,DE
1897   081A E5              PUSH HL
1898   081B 60              LD H,B
1899   081C 69              LD L,C
1900   081D CD 6A 0B        CALL SUB_0B6A
1901   0820 20 06           JR NZ,L_0828
1902   0822 CD 84 0B        CALL SUB_0B84
1903   0825 CD F5 0B        CALL SUB_0BF5                       ; routine RECLAIM-2
1904   0828             
1905   0828             ; COPY-OVER
1906   0828             L_0828:
1907   0828 C1              POP BC
1908   0829 79              LD A,C
1909   082A 3D              DEC A
1910   082B B0              OR B
1911   082C C8              RET Z
1912   082D C5              PUSH BC
1913   082E 03              INC BC
1914   082F 03              INC BC
1915   0830 03              INC BC
1916   0831 03              INC BC
1917   0832 CD 30 0B        CALL SUB_0B30                       ; MAKE-ROOM
1918   0835 C1              POP BC
1919   0836 C5              PUSH BC
1920   0837 2A 1A 40        LD HL,($401A)
1921   083A 2B              DEC HL
1922   083B ED B8           LDDR
1923   083D 2A 29 40        LD HL,($4029)                       ; E.PPC line number with cursor on (was $400A on ZX81)
1924   0840 EB              EX DE,HL
1925   0841 C1              POP BC
1926   0842 70              LD (HL),B
1927   0843 2B              DEC HL
1928   0844 71              LD (HL),C
1929   0845 2B              DEC HL
1930   0846 73              LD (HL),E
1931   0847 2B              DEC HL
1932   0848 72              LD (HL),D
1933   0849 C9              RET
1934   084A             
1935   084A             ; Not LLIST ?
1936   084A             SUB_084A:
1937   084A 2A 14 40        LD HL,($4014)
1938   084D             L_084D:
1939   084D 22 16 40        LD ($4016),HL
1940   0850 DF              RST 18H
1941   0851             L_0851:
1942   0851 FE 0B           CP $0B
1943   0853 20 0A           JR NZ,L_085F
1944   0855             L_0855:
1945   0855 E7              RST 20H
1946   0856 FE 0B           CP $0B
1947   0858 28 1B           JR Z,L_0875
1948   085A FE 76           CP $76
1949   085C C8              RET Z
1950   085D 18 F6           JR L_0855
1951   085F             L_085F:
1952   085F FE 76           CP $76
1953   0861 C8              RET Z
1954   0862 11 F1 00        LD DE,L_00F1                        ; token table
1955   0865 0E 00           LD C,$00
1956   0867 18 0F           JR L_0878
1957   0869             L_0869:
1958   0869 1A              LD A,(DE)
1959   086A CB 7F           BIT 7,A
1960   086C 13              INC DE
1961   086D 28 FA           JR Z,L_0869
1962   086F 0C              INC C
1963   0870 3E 45           LD A,$45
1964   0872 B9              CP C
1965   0873 30 03           JR NC,L_0878
1966   0875             L_0875:
1967   0875 E7              RST 20H
1968   0876 18 D9           JR L_0851
1969   0878             L_0878:
1970   0878 2A 16 40        LD HL,($4016)
1971   087B             L_087B:
1972   087B 1A              LD A,(DE)
1973   087C 47              LD B,A
1974   087D E6 7F           AND $7F
1975   087F BE              CP (HL)
1976   0880 20 E7           JR NZ,L_0869
1977   0882 23              INC HL
1978   0883 13              INC DE
1979   0884 CB 78           BIT 7,B
1980   0886 28 F3           JR Z,L_087B
1981   0888             L_0888:
1982   0888 7E              LD A,(HL)
1983   0889 A7              AND A
1984   088A 20 03           JR NZ,L_088F
1985   088C 23              INC HL
1986   088D 18 F9           JR L_0888
1987   088F             L_088F:
1988   088F ED 5B 16 40     LD DE,($4016)
1989   0893 22 16 40        LD ($4016),HL
1990   0896 2A 14 40        LD HL,($4014)
1991   0899 A7              AND A
1992   089A             L_089A:
1993   089A ED 52           SBC HL,DE
1994   089C 19              ADD HL,DE
1995   089D 30 06           JR NC,L_08A5
1996   089F 1B              DEC DE
1997   08A0 1A              LD A,(DE)
1998   08A1 A7              AND A
1999   08A2 28 F6           JR Z,L_089A
2000   08A4 13              INC DE
2001   08A5             L_08A5:
2002   08A5 79              LD A,C
2003   08A6 CB 77           BIT 6,A
2004   08A8 20 02           JR NZ,L_08AC
2005   08AA F6 C0           OR $C0
2006   08AC             L_08AC:
2007   08AC 12              LD (DE),A
2008   08AD 13              INC DE
2009   08AE 2A 16 40        LD HL,($4016)
2010   08B1 F5              PUSH AF
2011   08B2 CD F2 0B        CALL SUB_0BF2
2012   08B5 F1              POP AF
2013   08B6 FE EA           CP $EA
2014   08B8 C8              RET Z
2015   08B9 18 92           JR L_084D
2016   08BB             
2017   08BB             ; ---------------------------------------
2018   08BB             ; THE 'LIST' AND 'LLIST' COMMAND ROUTINES
2019   08BB             ; ---------------------------------------
2020   08BB             
2021   08BB             ; LLIST
2022   08BB             SUB_08BB:
2023   08BB FD CB 01 CE     SET 1,(IY+$01)
2024   08BF             
2025   08BF             ; LIST
2026   08BF             SUB_08BF:
2027   08BF CD 88 10        CALL SUB_1088
2028   08C2 78              LD A,B
2029   08C3 E6 3F           AND $3F
2030   08C5 67              LD H,A
2031   08C6 69              LD L,C
2032   08C7 22 29 40        LD ($4029),HL                       ; E.PPC line number with cursor on (was $400A on ZX81)
2033   08CA CD 6A 0B        CALL SUB_0B6A
2034   08CD             
2035   08CD             ; LIST-PROG
2036   08CD             SUB_08CD:
2037   08CD 1E 00           LD E,$00
2038   08CF             
2039   08CF             ; UNTIL-END
2040   08CF             L_08CF:
2041   08CF CD D4 08        CALL SUB_08D4
2042   08D2 18 FB           JR L_08CF
2043   08D4             
2044   08D4             ; -----------------------------------
2045   08D4             ; THE 'PRINT A BASIC LINE' SUBROUTINE
2046   08D4             ; -----------------------------------
2047   08D4             
2048   08D4             ; OUT-LINE
2049   08D4             SUB_08D4:
2050   08D4 ED 4B 29 40     LD BC,($4029)                       ; E.PPC line number with cursor on (was $400A on ZX81)
2051   08D8 CD 7C 0B        CALL SUB_0B7C
2052   08DB 16 97           LD D,$97
2053   08DD 28 05           JR Z,L_08E4
2054   08DF 11 00 00        LD DE,$0000
2055   08E2 CB 13           RL E
2056   08E4             
2057   08E4             ; TEST-END
2058   08E4             L_08E4:
2059   08E4 FD 73 1E        LD (IY+$1E),E
2060   08E7 7E              LD A,(HL)
2061   08E8 FE 40           CP $40
2062   08EA C1              POP BC
2063   08EB D0              RET NC
2064   08EC C5              PUSH BC                             ; rest of function different to ZX81
2065   08ED 22 16 40        LD ($4016),HL                       ; CH.ADD - Address of next character to interpret
2066   08F0 CD 35 0C        CALL SUB_0C35
2067   08F3 7A              LD A,D
2068   08F4 D7              RST 10H
2069   08F5 2A 16 40        LD HL,($4016)
2070   08F8 23              INC HL
2071   08F9 23              INC HL
2072   08FA 23              INC HL
2073   08FB 23              INC HL
2074   08FC             
2075   08FC             ; COPY-LINE
2076   08FC             SUB_08FC:
2077   08FC 22 16 40        LD ($4016),HL
2078   08FF FD CB 01 C6     SET 0,(IY+$01)
2079   0903             
2080   0903             ; MORE-LINE
2081   0903             L_0903:
2082   0903 ED 4B 18 40     LD BC,($4018)
2083   0907 2A 16 40        LD HL,($4016)
2084   090A A7              AND A
2085   090B ED 42           SBC HL,BC
2086   090D 20 09           JR NZ,L_0918
2087   090F 3E AA           LD A,$AA                            ; Inverse E
2088   0911 D7              RST 10H                             ; print character
2089   0912             
2090   0912 CD 4D 09        CALL SUB_094D                       ; SET-CURSOR
2091   0915 CD 50 04        CALL SUB_0450                       ; MAKE-NOISE
2092   0918             
2093   0918             ; TEST-NUM
2094   0918             L_0918:
2095   0918 2A 16 40        LD HL,($4016)
2096   091B 7E              LD A,(HL)
2097   091C 23              INC HL
2098   091D CD 55 09        CALL SUB_0955
2099   0920 22 16 40        LD ($4016),HL
2100   0923 28 DE           JR Z,L_0903
2101   0925 FE 7F           CP $7F
2102   0927 28 10           JR Z,L_0939
2103   0929 FE 76           CP $76
2104   092B 28 62           JR Z,L_098F
2105   092D CB 77           BIT 6,A
2106   092F 28 05           JR Z,L_0936
2107   0931 CD D7 0A        CALL SUB_0AD7
2108   0934 18 CD           JR L_0903
2109   0936             
2110   0936             ; NOT-TOKEN
2111   0936             L_0936:
2112   0936 D7              RST 10H
2113   0937 18 CA           JR L_0903
2114   0939             
2115   0939             ; different to ZX81 from here
2116   0939             L_0939:
2117   0939 3E 80           LD A,$80
2118   093B FD CB 01 56     BIT 2,(IY+$01)
2119   093F 28 02           JR Z,L_0943
2120   0941 3E AC           LD A,$AC
2121   0943             L_0943:
2122   0943 05              DEC B
2123   0944 04              INC B
2124   0945 CC 4A 09        CALL Z,SUB_094A
2125   0948 18 B9           JR L_0903
2126   094A             SUB_094A:
2127   094A CD 96 09        CALL L_0996
2128   094D             
2129   094D             ; SET-CURSOR
2130   094D             SUB_094D:
2131   094D 2A 0E 40        LD HL,($400E)                       ; get current character address
2132   0950 2B              DEC HL                              ; move one before that
2133   0951 22 7B 40        LD ($407B),HL                       ; set the blinking cursor to that address
2134   0954 C9              RET
2135   0955             
2136   0955             ; -----------------------
2137   0955             ; THE 'NUMBER' SUBROUTINE
2138   0955             ; -----------------------
2139   0955             
2140   0955             ; NUMBER
2141   0955             SUB_0955:
2142   0955 FE 7E           CP $7E
2143   0957 C0              RET NZ
2144   0958 23              INC HL
2145   0959 23              INC HL
2146   095A 23              INC HL
2147   095B 23              INC HL
2148   095C 23              INC HL
2149   095D C9              RET
2150   095E             
2151   095E             ; --------------------------------
2152   095E             ; THE 'KEYBOARD DECODE' SUBROUTINE
2153   095E             ; --------------------------------
2154   095E             
2155   095E             ; DECODE
2156   095E             SUB_095E:
2157   095E 16 00           LD D,$00
2158   0960 CB 28           SRA B
2159   0962 9F              SBC A,A
2160   0963 F6 26           OR $26
2161   0965 2E 05           LD L,$05
2162   0967 95              SUB L
2163   0968             
2164   0968             ; KEY-LINE
2165   0968             L_0968:
2166   0968 85              ADD A,L
2167   0969 37              SCF
2168   096A CB 19           RR C
2169   096C 38 FA           JR C,L_0968
2170   096E 0C              INC C
2171   096F C0              RET NZ
2172   0970 48              LD C,B
2173   0971 2D              DEC L
2174   0972 2E 01           LD L,$01
2175   0974 20 F2           JR NZ,L_0968
2176   0976 21 7A 00        LD HL,$007A
2177   0979 5F              LD E,A
2178   097A 19              ADD HL,DE
2179   097B 37              SCF
2180   097C C9              RET
2181   097D             
2182   097D             ; -------------------------
2183   097D             ; THE 'PRINTING' SUBROUTINE
2184   097D             ; -------------------------
2185   097D             
2186   097D             ; LEAD-SP
2187   097D             L_097D:
2188   097D 7B              LD A,E
2189   097E A7              AND A
2190   097F F8              RET M
2191   0980 18 10           JR L_0992
2192   0982             
2193   0982             ; OUT-DIGIT
2194   0982             SUB_0982:
2195   0982 AF              XOR A
2196   0983             
2197   0983             ; DIGIT-INC
2198   0983             L_0983:
2199   0983 09              ADD HL,BC
2200   0984 3C              INC A
2201   0985 38 FC           JR C,L_0983
2202   0987 ED 42           SBC HL,BC
2203   0989 3D              DEC A
2204   098A 28 F1           JR Z,L_097D
2205   098C             
2206   098C             ; OUT-CODE
2207   098C             SUB_098C:
2208   098C 1E 1C           LD E,$1C
2209   098E 83              ADD A,E
2210   098F             
2211   098F             ; OUT-CH
2212   098F             L_098F:
2213   098F A7              AND A
2214   0990 28 04           JR Z,L_0996
2215   0992             
2216   0992             ; PRINT-CH
2217   0992             L_0992:
2218   0992 FD CB 01 86     RES 0,(IY+$01)
2219   0996             
2220   0996             ; PRINT-SP
2221   0996             L_0996:
2222   0996 D9              EXX
2223   0997 E5              PUSH HL
2224   0998 FD CB 01 4E     BIT 1,(IY+$01)
2225   099C 20 05           JR NZ,L_09A3
2226   099E CD A9 09        CALL SUB_09A9
2227   09A1 18 03           JR L_09A6
2228   09A3             
2229   09A3             ; LPRINT-A
2230   09A3             L_09A3:
2231   09A3 CD F2 09        CALL SUB_09F2
2232   09A6             
2233   09A6             ; PRINT-EXX
2234   09A6             L_09A6:
2235   09A6 E1              POP HL
2236   09A7 D9              EXX
2237   09A8 C9              RET
2238   09A9             
2239   09A9             ; ENTER-CH
2240   09A9             SUB_09A9:
2241   09A9 57              LD D,A
2242   09AA ED 4B 39 40     LD BC,($4039)
2243   09AE 79              LD A,C
2244   09AF FE 21           CP $21
2245   09B1 28 1A           JR Z,L_09CD
2246   09B3             
2247   09B3             ; TEST-N/L
2248   09B3             L_09B3:
2249   09B3 3E 76           LD A,$76
2250   09B5 BA              CP D
2251   09B6 28 30           JR Z,L_09E8
2252   09B8 2A 0E 40        LD HL,($400E)
2253   09BB BE              CP (HL)
2254   09BC 7A              LD A,D
2255   09BD 20 20           JR NZ,L_09DF
2256   09BF 0D              DEC C
2257   09C0 20 19           JR NZ,L_09DB
2258   09C2 23              INC HL
2259   09C3 22 0E 40        LD ($400E),HL
2260   09C6 0E 21           LD C,$21
2261   09C8 05              DEC B
2262   09C9 ED 43 39 40     LD ($4039),BC
2263   09CD             
2264   09CD             ; TEST-LOW
2265   09CD             L_09CD:
2266   09CD 78              LD A,B
2267   09CE FD BE 22        CP (IY+$22)
2268   09D1 28 03           JR Z,L_09D6
2269   09D3 A7              AND A
2270   09D4 20 DD           JR NZ,L_09B3
2271   09D6             
2272   09D6             ; REPORT-5
2273   09D6             L_09D6:
2274   09D6 2E 04           LD L,$04
2275   09D8 C3 59 00        JP ERROR_3
2276   09DB             
2277   09DB             ; EXPAND-1
2278   09DB             L_09DB:
2279   09DB CD 2D 0B        CALL SUB_0B2D
2280   09DE EB              EX DE,HL
2281   09DF             
2282   09DF             ; WRITE-CH
2283   09DF             L_09DF:
2284   09DF 77              LD (HL),A
2285   09E0 23              INC HL
2286   09E1 22 0E 40        LD ($400E),HL
2287   09E4 FD 35 39        DEC (IY+$39)
2288   09E7 C9              RET
2289   09E8             
2290   09E8             ; WRITE-N/L
2291   09E8             L_09E8:
2292   09E8 0E 21           LD C,$21
2293   09EA 05              DEC B
2294   09EB FD CB 01 C6     SET 0,(IY+$01)
2295   09EF C3 B7 0A        JP SUB_0AB7                         ; routine LOC-ADDR
2296   09F2             
2297   09F2             ; --------------------------
2298   09F2             ; THE 'LPRINT-CH' SUBROUTINE
2299   09F2             ; --------------------------
2300   09F2             
2301   09F2             ; LPRINT-CH
2302   09F2             SUB_09F2:
2303   09F2 FE 76           CP $76
2304   09F4 28 1B           JR Z,SUB_0A11
2305   09F6 4F              LD C,A
2306   09F7 3A 38 40        LD A,($4038)
2307   09FA E6 7F           AND $7F
2308   09FC FE 5C           CP $5C
2309   09FE 6F              LD L,A
2310   09FF 26 40           LD H,$40
2311   0A01 CC 11 0A        CALL Z,SUB_0A11
2312   0A04 71              LD (HL),C
2313   0A05 2C              INC L
2314   0A06 FD 75 38        LD (IY+$38),L
2315   0A09 C9              RET
2316   0A0A             
2317   0A0A             ; --------------------------
2318   0A0A             ; THE 'COPY' COMMAND ROUTINE
2319   0A0A             ; --------------------------
2320   0A0A             
2321   0A0A             ; COPY
2322   0A0A             SUB_0101:
2323   0A0A 16 16           LD D,$16
2324   0A0C 21 7E 40        LD HL,$407E
2325   0A0F 18 05           JR L_0A16
2326   0A11             
2327   0A11             ; COPY-BUFF
2328   0A11             SUB_0A11:
2329   0A11 16 01           LD D,$01
2330   0A13 21 3C 40        LD HL,$403C
2331   0A16             
2332   0A16             ; COPY*D
2333   0A16             L_0A16:
2334   0A16 CD 70 03        CALL SUB_0370                       ; routine SET-FAST
2335   0A19 C5              PUSH BC
2336   0A1A             
2337   0A1A             ; COPY-LOOP
2338   0A1A             L_0A1A:
2339   0A1A E5              PUSH HL
2340   0A1B AF              XOR A
2341   0A1C 5F              LD E,A
2342   0A1D             
2343   0A1D             ; COPY-TIME
2344   0A1D             L_0A1D:
2345   0A1D D3 FB           OUT ($FB),A
2346   0A1F E1              POP HL
2347   0A20             
2348   0A20             ; COPY-BRK
2349   0A20             L_0A20:
2350   0A20 CD 3B 11        CALL SUB_113B
2351   0A23 38 05           JR C,L_0A2A
2352   0A25 1F              RRA
2353   0A26 D3 FB           OUT ($FB),A
2354   0A28             ; REPORT-D2
2355   0A28 CF              RST 08H                             ; ERROR-1
2356   0A29 0C              .BYTE $0C                           ; BK - BreaK
2357   0A2A             
2358   0A2A             ; COPY-CONT
2359   0A2A             L_0A2A:
2360   0A2A DB FB           IN A,($FB)
2361   0A2C 87              ADD A,A
2362   0A2D FA 7D 0A        JP M,L_0A7D
2363   0A30 30 EE           JR NC,L_0A20
2364   0A32 E5              PUSH HL
2365   0A33 D5              PUSH DE
2366   0A34 7A              LD A,D
2367   0A35 FE 02           CP $02
2368   0A37 9F              SBC A,A
2369   0A38 A3              AND E
2370   0A39 07              RLCA
2371   0A3A A3              AND E
2372   0A3B 57              LD D,A
2373   0A3C             
2374   0A3C             ; COPY-NEXT
2375   0A3C             L_0A3C:
2376   0A3C 4E              LD C,(HL)                           ; load character from screen or buffer
2377   0A3D 79              LD A,C                              ; save a copy in C for later test
2378   0A3E 23              INC HL                              ; update pointer for next time
2379   0A3F FE 76           CP $76                              ; is this a newline?
2380   0A41 28 23           JR Z,L_0A66                         ; forward to COPY-N/L if it is
2381   0A43 E5              PUSH HL                             ; no NL, so preserve the counter
2382   0A44             ; different to ZX81 from here
2383   0A44             
2384   0A44 C3 F0 2A        JP GET_CHAR_BITS                    ; Replacement routine to read ROM font
2385   0A47             
2386   0A51             .ORG $0A51
2387   0A51             
2388   0A51             ; back to ZX81 code from here
2389   0A51             L_0A51:
2390   0A51 4F              LD C,A
2391   0A52 06 08           LD B,$08
2392   0A54             
2393   0A54             ; COPY-BITS
2394   0A54             L_0A54:
2395   0A54 7A              LD A,D
2396   0A55 CB 01           RLC C
2397   0A57 1F              RRA
2398   0A58 67              LD H,A
2399   0A59             
2400   0A59             ; COPY-WAIT
2401   0A59             L_0A59:
2402   0A59 DB FB           IN A,($FB)
2403   0A5B 1F              RRA
2404   0A5C 30 FB           JR NC,L_0A59
2405   0A5E 7C              LD A,H
2406   0A5F D3 FB           OUT ($FB),A
2407   0A61 10 F1           DJNZ L_0A54
2408   0A63 E1              POP HL
2409   0A64 18 D6           JR L_0A3C
2410   0A66             
2411   0A66             ; COPY-N/L
2412   0A66             L_0A66:
2413   0A66 DB FB           IN A,($FB)
2414   0A68 1F              RRA
2415   0A69 30 FB           JR NC,L_0A66
2416   0A6B 7A              LD A,D
2417   0A6C 0F              RRCA
2418   0A6D D3 FB           OUT ($FB),A
2419   0A6F D1              POP DE
2420   0A70 1C              INC E
2421   0A71 CB 5B           BIT 3,E
2422   0A73 28 A8           JR Z,L_0A1D
2423   0A75 C1              POP BC
2424   0A76 15              DEC D
2425   0A77 20 A1           JR NZ,L_0A1A
2426   0A79 3E 04           LD A,$04
2427   0A7B D3 FB           OUT ($FB),A
2428   0A7D             
2429   0A7D             ; COPY-END
2430   0A7D             L_0A7D:
2431   0A7D CD 85 02        CALL SUB_0285                       ; FAST/SLOW
2432   0A80 C1              POP BC
2433   0A81             
2434   0A81             ; -------------------------------------
2435   0A81             ; THE 'CLEAR PRINTER BUFFER' SUBROUTINE
2436   0A81             ; -------------------------------------
2437   0A81             
2438   0A81             ; CLEAR-PRB
2439   0A81             SUB_0A81:
2440   0A81 21 5C 40        LD HL,$405C
2441   0A84 36 76           LD (HL),$76
2442   0A86 06 20           LD B,$20
2443   0A88             
2444   0A88             ; PRB-BYTES
2445   0A88             L_0A88:
2446   0A88 2B              DEC HL
2447   0A89 36 00           LD (HL),$00
2448   0A8B 10 FB           DJNZ L_0A88
2449   0A8D 7D              LD A,L
2450   0A8E CB FF           SET 7,A
2451   0A90 32 38 40        LD ($4038),A
2452   0A93 C9              RET
2453   0A94             
2454   0A94             ; -------------------------
2455   0A94             ; THE 'PRINT AT' SUBROUTINE
2456   0A94             ; -------------------------
2457   0A94             
2458   0A94             ; PRINT-AT
2459   0A94             SUB_0A94:
2460   0A94 3E 17           LD A,$17
2461   0A96 90              SUB B
2462   0A97 38 0B           JR C,L_0AA4
2463   0A99             
2464   0A99             ; TEST-VAL
2465   0A99             SUB_0A99:
2466   0A99 FD BE 22        CP (IY+$22)
2467   0A9C DA D6 09        JP C,L_09D6
2468   0A9F 3C              INC A
2469   0AA0 47              LD B,A
2470   0AA1 3E 1F           LD A,$1F
2471   0AA3 91              SUB C
2472   0AA4             
2473   0AA4             ; WRONG-VAL
2474   0AA4             L_0AA4:
2475   0AA4 DA 8E 10        JP C,L_108E
2476   0AA7 C6 02           ADD A,$02
2477   0AA9 4F              LD C,A
2478   0AAA             
2479   0AAA             ; SET-FIELD
2480   0AAA             SUB_0AAA:
2481   0AAA FD CB 01 4E     BIT 1,(IY+$01)
2482   0AAE 28 07           JR Z,SUB_0AB7                       ; routine LOC-ADDR
2483   0AB0 3E 5D           LD A,$5D
2484   0AB2 91              SUB C
2485   0AB3 32 38 40        LD ($4038),A
2486   0AB6 C9              RET
2487   0AB7             
2488   0AB7             ; ----------------------------
2489   0AB7             ; THE 'LOCATE ADDRESS' ROUTINE
2490   0AB7             ; ----------------------------
2491   0AB7             
2492   0AB7             ; LOC-ADDR  different to ZX81
2493   0AB7             SUB_0AB7:
2494   0AB7 ED 43 39 40     LD ($4039),BC                       ; Set S.POSN - Current PRINT position
2495   0ABB 3E 21           LD A,$21
2496   0ABD 91              SUB C
2497   0ABE 4F              LD C,A
2498   0ABF 3E 18           LD A,$18
2499   0AC1 90              SUB B
2500   0AC2 6F              LD L,A
2501   0AC3 26 00           LD H,$00
2502   0AC5 06 05           LD B,$05
2503   0AC7             L_0AC7:
2504   0AC7 29              ADD HL,HL
2505   0AC8 10 FD           DJNZ L_0AC7
2506   0ACA 09              ADD HL,BC
2507   0ACB 4F              LD C,A
2508   0ACC 09              ADD HL,BC
2509   0ACD 01 7E 40        LD BC,$407E                         ; position of top left character (fixed DFILE location)
2510   0AD0 09              ADD HL,BC                           ; add offset to get address of character
2511   0AD1 22 0E 40        LD ($400E),HL                       ; Set DF.CC - Display file current character
2512   0AD4 06 00           LD B,$00
2513   0AD6 C9              RET
2514   0AD7             
2515   0AD7             ; ------------------------------
2516   0AD7             ; THE 'EXPAND TOKENS' SUBROUTINE
2517   0AD7             ; ------------------------------
2518   0AD7             
2519   0AD7             ; TOKENS
2520   0AD7             SUB_0AD7:
2521   0AD7 F5              PUSH AF
2522   0AD8 CD 07 0B        CALL SUB_0B07
2523   0ADB 30 08           JR NC,L_0AE5
2524   0ADD FD CB 01 46     BIT 0,(IY+$01)
2525   0AE1 20 02           JR NZ,L_0AE5
2526   0AE3 AF              XOR A
2527   0AE4 D7              RST 10H
2528   0AE5             
2529   0AE5             ; ALL-CHARS - different to ZX81
2530   0AE5             L_0AE5:
2531   0AE5 0A              LD A,(BC)
2532   0AE6 E6 3F           AND $3F
2533   0AE8 D7              RST 10H
2534   0AE9 0A              LD A,(BC)
2535   0AEA 03              INC BC
2536   0AEB 87              ADD A,A
2537   0AEC 30 F7           JR NC,L_0AE5
2538   0AEE 4F              LD C,A
2539   0AEF F1              POP AF
2540   0AF0 FE C0           CP $C0
2541   0AF2 30 03           JR NC,L_0AF7
2542   0AF4 FE 43           CP $43
2543   0AF6 D0              RET NC
2544   0AF7             L_0AF7:
2545   0AF7 79              LD A,C
2546   0AF8 FE 1A           CP $1A
2547   0AFA 28 03           JR Z,L_0AFF
2548   0AFC FE 38           CP $38
2549   0AFE D8              RET C
2550   0AFF             
2551   0AFF             ; TRAIL-SP
2552   0AFF             L_0AFF:
2553   0AFF AF              XOR A
2554   0B00 FD CB 01 C6     SET 0,(IY+$01)
2555   0B04 C3 96 09        JP L_0996
2556   0B07             
2557   0B07             ; TOKEN-ADD
2558   0B07             SUB_0B07:
2559   0B07 E5              PUSH HL
2560   0B08 21 F0 00        LD HL,L_00F0                        ; Tokens table
2561   0B0B CB 7F           BIT 7,A
2562   0B0D 28 02           JR Z,L_0B11
2563   0B0F E6 3F           AND $3F
2564   0B11             
2565   0B11             ; TEST-HIGH
2566   0B11             L_0B11:
2567   0B11 FE 46           CP $46                              ; $46 tokens in table
2568   0B13 30 10           JR NC,L_0B25
2569   0B15 47              LD B,A
2570   0B16 04              INC B
2571   0B17             
2572   0B17             ; WORDS
2573   0B17             L_0B17:
2574   0B17 CB 7E           BIT 7,(HL)
2575   0B19 23              INC HL
2576   0B1A 28 FB           JR Z,L_0B17
2577   0B1C 10 F9           DJNZ L_0B17
2578   0B1E FE 43           CP $43                              ; different offsets here
2579   0B20 30 03           JR NC,L_0B25
2580   0B22 FE 16           CP $16                              ; and here
2581   0B24             
2582   0B24             ; COMP-FLAG
2583   0B24 3F              CCF
2584   0B25             
2585   0B25             ; FOUND
2586   0B25             L_0B25:
2587   0B25 44              LD B,H
2588   0B26 4D              LD C,L
2589   0B27 E1              POP HL
2590   0B28 D0              RET NC
2591   0B29 0A              LD A,(BC)
2592   0B2A C6 E4           ADD A,$E4
2593   0B2C C9              RET
2594   0B2D             
2595   0B2D             ; --------------------------
2596   0B2D             ; THE 'ONE SPACE' SUBROUTINE
2597   0B2D             ; --------------------------
2598   0B2D             
2599   0B2D             ; ONE-SPACE
2600   0B2D             SUB_0B2D:
2601   0B2D 01 01 00        LD BC,$0001
2602   0B30             
2603   0B30             ; --------------------------
2604   0B30             ; THE 'MAKE ROOM' SUBROUTINE
2605   0B30             ; --------------------------
2606   0B30             
2607   0B30             ; Make room for DE bytes at HL
2608   0B30             
2609   0B30             ; MAKE-ROOM
2610   0B30             SUB_0B30:
2611   0B30 E5              PUSH HL                             ; Save HL
2612   0B31 CD A0 10        CALL SUB_10A0                       ; Routine TEST-ROOM
2613   0B34 E1              POP HL                              ; Restore HL
2614   0B35 CD 3F 0B        CALL SUB_0B3F                       ; Routine POINTERS
2615   0B38 2A 1C 40        LD HL,($401C)                       ; STKEND - End of calculator stack
2616   0B3B EB              EX DE,HL                            ; DE=STKEND, HL=Location of bytes to be moved, BC=number of bytes to move
2617   0B3C ED B8           LDDR                                ; Move bytes
2618   0B3E C9              RET
2619   0B3F             
2620   0B3F             ; -------------------------
2621   0B3F             ; THE 'POINTERS' SUBROUTINE
2622   0B3F             ; -------------------------
2623   0B3F             
2624   0B3F             ; POINTERS
2625   0B3F             SUB_0B3F:
2626   0B3F F5              PUSH AF                             ; Save the Carry from the result of TEST-ROM
2627   0B40 E5              PUSH HL                             ; Save HL, the destination
2628   0B41 21 0A 40        LD HL,$400A                         ; NXTLIN - Address of next line to be executed (ZX81 was $4029)
2629   0B44 3E 0A           LD A,$0A                            ; Number of pointers to test
2630   0B46             
2631   0B46             ; NEXT-PTR
2632   0B46             L_0B46:
2633   0B46 5E              LD E,(HL)
2634   0B47 23              INC HL
2635   0B48 56              LD D,(HL)
2636   0B49 E3              EX (SP),HL                          ; Get destination from stack
2637   0B4A A7              AND A                               ; Clear carry flag
2638   0B4B ED 52           SBC HL,DE                           ; Subtract and restore to set flags
2639   0B4D 19              ADD HL,DE                           ;
2640   0B4E E3              EX (SP),HL                          ; Restore destination to stack
2641   0B4F 30 09           JR NC,L_0B5A                        ; skip to PTR-DONE if pointer below destination
2642   0B51             ; pointer is after point of insertion, so update pointer
2643   0B51 D5              PUSH DE                             ; Save DE
2644   0B52 EB              EX DE,HL
2645   0B53 09              ADD HL,BC                           ; move pointer up by BC bytes
2646   0B54 EB              EX DE,HL
2647   0B55 72              LD (HL),D                           ; Update the pointer
2648   0B56 2B              DEC HL
2649   0B57 73              LD (HL),E
2650   0B58 23              INC HL
2651   0B59 D1              POP DE                              ; Restore DE
2652   0B5A             
2653   0B5A             ; PTR-DONE
2654   0B5A             L_0B5A:
2655   0B5A 23              INC HL                              ; Next pointer
2656   0B5B 3D              DEC A                               ; Reduce number of pointers left to test
2657   0B5C 20 E8           JR NZ,L_0B46                        ; Back to NEXT-PTR if there are more to do
2658   0B5E             
2659   0B5E             ; all pointers updated
2660   0B5E EB              EX DE,HL                            ; HL now contains the end of the space to add + overheads
2661   0B5F D1              POP DE                              ; DE contains the location of the new space
2662   0B60 F1              POP AF
2663   0B61 A7              AND A
2664   0B62 ED 52           SBC HL,DE                           ; HL now contains the number of bytes required
2665   0B64 44              LD B,H                              ; BC=HL
2666   0B65 4D              LD C,L
2667   0B66 03              INC BC                              ; +1
2668   0B67 19              ADD HL,DE                           ; Add back
2669   0B68 EB              EX DE,HL                            ; Finally DE=End of space, HL=Start of space, BC=Size of space
2670   0B69 C9              RET
2671   0B6A             
2672   0B6A             ; -----------------------------
2673   0B6A             ; THE 'LINE ADDRESS' SUBROUTINE
2674   0B6A             ; -----------------------------
2675   0B6A             
2676   0B6A             ; LINE-ADDR
2677   0B6A             SUB_0B6A:
2678   0B6A E5              PUSH HL
2679   0B6B 2A 0C 40        LD HL,($400C)                       ; PRGRM, start of user program
2680   0B6E 54              LD D,H
2681   0B6F 5D              LD E,L
2682   0B70             
2683   0B70             ; NEXT-TEST
2684   0B70             L_0B70:
2685   0B70 C1              POP BC
2686   0B71 CD 7C 0B        CALL SUB_0B7C
2687   0B74 D0              RET NC
2688   0B75 C5              PUSH BC
2689   0B76 CD 84 0B        CALL SUB_0B84
2690   0B79 EB              EX DE,HL
2691   0B7A 18 F4           JR L_0B70
2692   0B7C             
2693   0B7C             ; -------------------------------------
2694   0B7C             ; THE 'COMPARE LINE NUMBERS' SUBROUTINE
2695   0B7C             ; -------------------------------------
2696   0B7C             
2697   0B7C             ; CP-LINES
2698   0B7C             SUB_0B7C:
2699   0B7C 7E              LD A,(HL)
2700   0B7D B8              CP B
2701   0B7E C0              RET NZ
2702   0B7F 23              INC HL
2703   0B80 7E              LD A,(HL)
2704   0B81 2B              DEC HL
2705   0B82 B9              CP C
2706   0B83 C9              RET
2707   0B84             
2708   0B84             ; --------------------------------------
2709   0B84             ; THE 'NEXT LINE OR VARIABLE' SUBROUTINE
2710   0B84             ; --------------------------------------
2711   0B84             
2712   0B84             ; NEXT-ONE
2713   0B84             SUB_0B84:
2714   0B84 E5              PUSH HL
2715   0B85 7E              LD A,(HL)
2716   0B86 FE 40           CP $40
2717   0B88 38 17           JR C,L_0BA1
2718   0B8A CB 6F           BIT 5,A
2719   0B8C 28 14           JR Z,L_0BA2
2720   0B8E 87              ADD A,A
2721   0B8F FA 93 0B        JP M,L_0B93
2722   0B92 3F              CCF
2723   0B93             
2724   0B93             ; NEXT+FIVE
2725   0B93             L_0B93:
2726   0B93 01 05 00        LD BC,$0005
2727   0B96 30 02           JR NC,L_0B9A
2728   0B98 0E 11           LD C,$11
2729   0B9A             
2730   0B9A             ; NEXT-LETT
2731   0B9A             L_0B9A:
2732   0B9A 17              RLA
2733   0B9B 23              INC HL
2734   0B9C 7E              LD A,(HL)
2735   0B9D 30 FB           JR NC,L_0B9A
2736   0B9F 18 06           JR L_0BA7
2737   0BA1             
2738   0BA1             ; LINES
2739   0BA1             L_0BA1:
2740   0BA1 23              INC HL
2741   0BA2             
2742   0BA2             ; NEXT-O-4
2743   0BA2             L_0BA2:
2744   0BA2 23              INC HL
2745   0BA3 4E              LD C,(HL)
2746   0BA4 23              INC HL
2747   0BA5 46              LD B,(HL)
2748   0BA6 23              INC HL
2749   0BA7             
2750   0BA7             ; NEXT-ADD
2751   0BA7             L_0BA7:
2752   0BA7 09              ADD HL,BC
2753   0BA8 D1              POP DE
2754   0BA9             
2755   0BA9             ; ---------------------------
2756   0BA9             ; THE 'DIFFERENCE' SUBROUTINE
2757   0BA9             ; ---------------------------
2758   0BA9             
2759   0BA9             ; DIFFER
2760   0BA9             SUB_0BA9:
2761   0BA9 A7              AND A
2762   0BAA ED 52           SBC HL,DE
2763   0BAC 44              LD B,H
2764   0BAD 4D              LD C,L
2765   0BAE 19              ADD HL,DE
2766   0BAF EB              EX DE,HL
2767   0BB0 C9              RET
2768   0BB1             
2769   0BB1             ; -------------------------------
2770   0BB1             ; THE 'SCROLL COMMAND' SUBROUTINE
2771   0BB1             ; -------------------------------
2772   0BB1             
2773   0BB1             ; scrolling is easy with a fully expanded DFILE
2774   0BB1             ; copy lines 2-24 to 1-23
2775   0BB1             
2776   0BB1             ; SCROLL
2777   0BB1             SUB_0BB1:
2778   0BB1 21 9F 40        LD HL,DFILE+$22                     ; Source, start of line 2
2779   0BB4 11 7E 40        LD DE,DFILE+1                       ; Destination, start of line 1
2780   0BB7 01 F6 02        LD BC,$02F6                         ; 23*33-1, 23 lines to copy
2781   0BBA ED B0           LDIR                                ; copy
2782   0BBC FD 46 22        LD B,(IY+$22)                       ; get DF.SZ - Size of editor part of screen
2783   0BBF 04              INC B                               ; increase by 1 row
2784   0BC0 18 10           JR L_0BD2                           ; routine B-LINES, clear the editor lines
2785   0BC2             
2786   0BC2             ; --------------------------
2787   0BC2             ; THE 'LINE-ENDS' SUBROUTINE
2788   0BC2             ; --------------------------
2789   0BC2             
2790   0BC2             ; LINE-ENDS
2791   0BC2             SUB_0BC2:
2792   0BC2 FD 46 22        LD B,(IY+$22)
2793   0BC5 C5              PUSH BC
2794   0BC6 CD D2 0B        CALL L_0BD2
2795   0BC9 C1              POP BC
2796   0BCA 05              DEC B
2797   0BCB 0E 21           LD C,$21
2798   0BCD C3 B7 0A        JP SUB_0AB7                         ; routine LOC-ADDR
2799   0BD0             
2800   0BD0             ; -------------------------
2801   0BD0             ; THE 'CLS' COMMAND ROUTINE
2802   0BD0             ; -------------------------
2803   0BD0             
2804   0BD0             ; Different as there is no collapsed display file
2805   0BD0             
2806   0BD0             ; CLS
2807   0BD0             SUB_0BD0:
2808   0BD0 06 18           LD B,$18                            ; 24 lines
2809   0BD2             
2810   0BD2             ; B-LINES
2811   0BD2             L_0BD2:
2812   0BD2 FD CB 01 8E     RES 1,(IY+$01)                      ; Clear FLAG - printer not in use
2813   0BD6 FD 36 7C 00     LD (IY+$7C),$00                     ; Clear address of blinking curosr
2814   0BDA FD CB 01 C6     SET 0,(IY+$01)                      ; Set FLAG  - Suppress leading space
2815   0BDE 0E 21           LD C,$21
2816   0BE0 C5              PUSH BC
2817   0BE1 CD B7 0A        CALL SUB_0AB7                       ; routine LOC-ADDR
2818   0BE4 C1              POP BC
2819   0BE5 48              LD C,B
2820   0BE6             
2821   0BE6             ; CLEAR-SCREEN
2822   0BE6 AF              XOR A                               ; A = 0 = SPACE
2823   0BE7             L_0BE7:
2824   0BE7 06 20           LD B,$20                            ; 32 characters
2825   0BE9             L_0BE9:
2826   0BE9 77              LD (HL),A                           ; clear character
2827   0BEA 23              INC HL
2828   0BEB 10 FC           DJNZ L_0BE9                         ; loop until EOL
2829   0BED 23              INC HL                              ; skip over NEWLINE
2830   0BEE 0D              DEC C                               ; line counter
2831   0BEF 20 F6           JR NZ,L_0BE7                        ; loop back until complete
2832   0BF1 C9              RET
2833   0BF2             
2834   0BF2             ; ----------------------------
2835   0BF2             ; THE 'RECLAIMING' SUBROUTINES
2836   0BF2             ; ----------------------------
2837   0BF2             
2838   0BF2             ; RECLAIM-1
2839   0BF2             SUB_0BF2:
2840   0BF2 CD A9 0B        CALL SUB_0BA9
2841   0BF5             
2842   0BF5             ; RECLAIM-2
2843   0BF5             SUB_0BF5:
2844   0BF5 C5              PUSH BC
2845   0BF6 78              LD A,B
2846   0BF7 2F              CPL
2847   0BF8 47              LD B,A
2848   0BF9 79              LD A,C
2849   0BFA 2F              CPL
2850   0BFB 4F              LD C,A
2851   0BFC 03              INC BC
2852   0BFD CD 3F 0B        CALL SUB_0B3F
2853   0C00 EB              EX DE,HL
2854   0C01 E1              POP HL
2855   0C02 19              ADD HL,DE
2856   0C03 D5              PUSH DE
2857   0C04 ED B0           LDIR
2858   0C06 E1              POP HL
2859   0C07 C9              RET
2860   0C08             
2861   0C08             ; ------------------------------
2862   0C08             ; THE 'E-LINE NUMBER' SUBROUTINE
2863   0C08             ; ------------------------------
2864   0C08             
2865   0C08             ; E-LINE-NO
2866   0C08             SUB_0C08:
2867   0C08 2A 14 40        LD HL,($4014)
2868   0C0B CD 4E 00        CALL TEMP_PTR2
2869   0C0E DF              RST 18H
2870   0C0F             ;SUB_0C0F:
2871   0C0F FD CB 2D 6E     BIT 5,(IY+$2D)
2872   0C13 C0              RET NZ
2873   0C14 21 5D 40        LD HL,$405D
2874   0C17 22 1C 40        LD ($401C),HL
2875   0C1A CD 40 17        CALL SUB_1740
2876   0C1D CD 82 17        CALL SUB_1782
2877   0C20 38 04           JR C,L_0C26
2878   0C22 21 F0 D8        LD HL,$D8F0
2879   0C25 09              ADD HL,BC
2880   0C26             
2881   0C26             ; NO-NUMBER
2882   0C26             L_0C26:
2883   0C26 DA 17 0F        JP C,L_0F17                         ; to REPORT-C - Invalid Expression
2884   0C29 BF              CP A
2885   0C2A C3 B4 16        JP L_16B4
2886   0C2D             
2887   0C2D             ; -------------------------------------------------
2888   0C2D             ; THE 'REPORT AND LINE NUMBER' PRINTING SUBROUTINES
2889   0C2D             ; -------------------------------------------------
2890   0C2D             
2891   0C2D             ; OUT-NUM
2892   0C2D             SUB_0C2D:
2893   0C2D D5              PUSH DE
2894   0C2E E5              PUSH HL
2895   0C2F                                                     ; missing call to UNITS here
2896   0C2F 60              LD H,B
2897   0C30 69              LD L,C
2898   0C31 1E FF           LD E,$FF
2899   0C33 18 08           JR L_0C3D
2900   0C35             
2901   0C35             ; OUT-NO
2902   0C35             SUB_0C35:
2903   0C35 D5              PUSH DE
2904   0C36 56              LD D,(HL)
2905   0C37 23              INC HL
2906   0C38 5E              LD E,(HL)
2907   0C39 E5              PUSH HL
2908   0C3A EB              EX DE,HL
2909   0C3B 1E 00           LD E,$00
2910   0C3D             
2911   0C3D             ; THOUSAND
2912   0C3D             L_0C3D:
2913   0C3D 01 18 FC        LD BC,$FC18
2914   0C40 CD 82 09        CALL SUB_0982
2915   0C43 01 9C FF        LD BC,$FF9C
2916   0C46 CD 82 09        CALL SUB_0982
2917   0C49 0E F6           LD C,$F6
2918   0C4B CD 82 09        CALL SUB_0982
2919   0C4E 7D              LD A,L
2920   0C4F             
2921   0C4F             ; UNITS
2922   0C4F CD 8C 09        CALL SUB_098C
2923   0C52 E1              POP HL
2924   0C53 D1              POP DE
2925   0C54 C9              RET
2926   0C55             
2927   0C55             ; --------------------------
2928   0C55             ; THE 'UNSTACK-Z' SUBROUTINE
2929   0C55             ; --------------------------
2930   0C55             
2931   0C55             ; UNSTACK-Z
2932   0C55             SUB_0C55:
2933   0C55 CD 23 0F        CALL SUB_0F23
2934   0C58 E1              POP HL
2935   0C59 C8              RET Z
2936   0C5A E9              JP (HL)
2937   0C5B             
2938   0C5B             ; ----------------------------
2939   0C5B             ; THE 'LPRINT' COMMAND ROUTINE
2940   0C5B             ; ----------------------------
2941   0C5B             
2942   0C5B             ; LPRINT
2943   0C5B             SUB_0C5B:
2944   0C5B FD CB 01 CE     SET 1,(IY+$01)
2945   0C5F             
2946   0C5F             ; ---------------------------
2947   0C5F             ; THE 'PRINT' COMMAND ROUTINE
2948   0C5F             ; ---------------------------
2949   0C5F             
2950   0C5F             ; PRINT
2951   0C5F             SUB_0C5F:
2952   0C5F 7E              LD A,(HL)
2953   0C60 FE 76           CP $76
2954   0C62 CA 0B 0D        JP Z,L_0D0B
2955   0C65             
2956   0C65             ; PRINT-1
2957   0C65             L_0C65:
2958   0C65 D6 1A           SUB $1A
2959   0C67 CE 00           ADC A,$00
2960   0C69 28 66           JR Z,L_0CD1
2961   0C6B FE BA           CP $BA
2962   0C6D 20 1B           JR NZ,L_0C8A
2963   0C6F E7              RST 20H
2964   0C70 CD 0F 0F        CALL SUB_0F0F
2965   0C73 FE 1A           CP $1A
2966   0C75 C2 17 0F        JP NZ,L_0F17                        ; to REPORT-C - Invalid Expression
2967   0C78 E7              RST 20H
2968   0C79 CD 0F 0F        CALL SUB_0F0F
2969   0C7C CD DB 0C        CALL SUB_0CDB
2970   0C7F EF              RST 28H                             ; FP-CALC
2971   0C80 01              .BYTE $01                           ; exchange
2972   0C81 34              .BYTE $34                           ; end-calc
2973   0C82 CD 7A 0D        CALL SUB_0D7A
2974   0C85 CD 94 0A        CALL SUB_0A94
2975   0C88 18 3A           JR L_0CC4
2976   0C8A             
2977   0C8A             ; NOT-AT
2978   0C8A             L_0C8A:
2979   0C8A FE BB           CP $BB                              ; different token on ZX81
2980   0C8C 20 30           JR NZ,L_0CBE
2981   0C8E E7              RST 20H
2982   0C8F CD 0F 0F        CALL SUB_0F0F
2983   0C92 CD DB 0C        CALL SUB_0CDB
2984   0C95 CD 83 10        CALL SUB_1083
2985   0C98 E6 1F           AND $1F
2986   0C9A 4F              LD C,A
2987   0C9B FD CB 01 4E     BIT 1,(IY+$01)
2988   0C9F 28 0A           JR Z,L_0CAB
2989   0CA1 FD 96 38        SUB (IY+$38)
2990   0CA4 CB FF           SET 7,A
2991   0CA6 C6 3C           ADD A,$3C
2992   0CA8 D4 11 0A        CALL NC,SUB_0A11
2993   0CAB             
2994   0CAB             ; TAB-TEST
2995   0CAB             L_0CAB:
2996   0CAB FD 86 39        ADD A,(IY+$39)
2997   0CAE FE 21           CP $21
2998   0CB0 3A 3A 40        LD A,($403A)
2999   0CB3 DE 01           SBC A,$01
3000   0CB5 CD 99 0A        CALL SUB_0A99
3001   0CB8 FD CB 01 C6     SET 0,(IY+$01)
3002   0CBC 18 06           JR L_0CC4
3003   0CBE             
3004   0CBE             ; NOT-TAB
3005   0CBE             L_0CBE:
3006   0CBE CD 4A 11        CALL SUB_114A                       ; routine SCANNING
3007   0CC1 CD E2 0C        CALL SUB_0CE2
3008   0CC4             
3009   0CC4             ; PRINT-ON
3010   0CC4             L_0CC4:
3011   0CC4 DF              RST 18H
3012   0CC5 D6 1A           SUB $1A
3013   0CC7 CE 00           ADC A,$00
3014   0CC9 28 06           JR Z,L_0CD1
3015   0CCB CD 9A 0E        CALL SUB_0E9A                       ; routine CHECK-END
3016   0CCE C3 0B 0D        JP L_0D0B
3017   0CD1             
3018   0CD1             ; SPACING
3019   0CD1             L_0CD1:
3020   0CD1 D4 12 0D        CALL NC,SUB_0D12
3021   0CD4 E7              RST 20H
3022   0CD5 FE 76           CP $76
3023   0CD7 C8              RET Z
3024   0CD8 C3 65 0C        JP L_0C65
3025   0CDB             
3026   0CDB             ; SYNTAX-ON
3027   0CDB             SUB_0CDB:
3028   0CDB CD 23 0F        CALL SUB_0F23
3029   0CDE C0              RET NZ
3030   0CDF E1              POP HL
3031   0CE0 18 E2           JR L_0CC4
3032   0CE2             
3033   0CE2             ; PRINT-STK
3034   0CE2             SUB_0CE2:
3035   0CE2 CD 55 0C        CALL SUB_0C55
3036   0CE5 FD CB 01 76     BIT 6,(IY+$01)                      ; check FLAGS - 0 = string or 1 = numeric result
3037   0CE9 CC ED 15        CALL Z,SUB_15ED                     ; routine STK-FETCH
3038   0CEC 28 08           JR Z,L_0CF6
3039   0CEE C3 D3 17        JP L_17D3
3040   0CF1             
3041   0CF1             ; PR-STR-1
3042   0CF1             ; missing ?
3043   0CF1             
3044   0CF1             ; PR-STR-2
3045   0CF1             L_0CF1:
3046   0CF1 D7              RST 10H
3047   0CF2             
3048   0CF2             ; PR-STR-3
3049   0CF2             L_0CF2:
3050   0CF2 ED 5B 18 40     LD DE,($4018)
3051   0CF6             
3052   0CF6             ; PR-STR-4
3053   0CF6             L_0CF6:
3054   0CF6 78              LD A,B
3055   0CF7 B1              OR C
3056   0CF8 0B              DEC BC
3057   0CF9 C8              RET Z
3058   0CFA 1A              LD A,(DE)
3059   0CFB 13              INC DE
3060   0CFC ED 53 18 40     LD ($4018),DE
3061   0D00 CB 77           BIT 6,A
3062   0D02 28 ED           JR Z,L_0CF1
3063   0D04 C5              PUSH BC
3064   0D05 CD D7 0A        CALL SUB_0AD7
3065   0D08 C1              POP BC
3066   0D09 18 E7           JR L_0CF2
3067   0D0B             
3068   0D0B             ; PRINT-END
3069   0D0B             L_0D0B:
3070   0D0B CD 55 0C        CALL SUB_0C55
3071   0D0E 3E 76           LD A,$76
3072   0D10 D7              RST 10H
3073   0D11 C9              RET
3074   0D12             
3075   0D12             ; FIELD
3076   0D12             SUB_0D12:
3077   0D12 CD 55 0C        CALL SUB_0C55
3078   0D15 FD CB 01 C6     SET 0,(IY+$01)
3079   0D19 AF              XOR A
3080   0D1A D7              RST 10H
3081   0D1B ED 4B 39 40     LD BC,($4039)
3082   0D1F 79              LD A,C
3083   0D20 FD CB 01 4E     BIT 1,(IY+$01)
3084   0D24 28 05           JR Z,L_0D2B
3085   0D26 3E 5D           LD A,$5D
3086   0D28 FD 96 38        SUB (IY+$38)
3087   0D2B             
3088   0D2B             ; CENTRE
3089   0D2B             L_0D2B:
3090   0D2B 0E 11           LD C,$11
3091   0D2D B9              CP C
3092   0D2E 30 02           JR NC,L_0D32
3093   0D30 0E 01           LD C,$01
3094   0D32             
3095   0D32             ; RIGHT
3096   0D32             L_0D32:
3097   0D32 CD AA 0A        CALL SUB_0AAA
3098   0D35 C9              RET
3099   0D36             
3100   0D36             ; --------------------------------------
3101   0D36             ; THE 'PLOT AND UNPLOT' COMMAND ROUTINES
3102   0D36             ; --------------------------------------
3103   0D36             
3104   0D36             ; PLOT/UNP
3105   0D36             SUB_0D36:
3106   0D36 CD 7A 0D        CALL SUB_0D7A
3107   0D39 ED 43 36 40     LD ($4036),BC
3108   0D3D 3E 2B           LD A,$2B
3109   0D3F 90              SUB B
3110   0D40 DA 8E 10        JP C,L_108E
3111   0D43 47              LD B,A
3112   0D44 3E 01           LD A,$01
3113   0D46 CB 28           SRA B
3114   0D48 30 02           JR NC,L_0D4C
3115   0D4A 3E 04           LD A,$04
3116   0D4C             
3117   0D4C             ; COLUMNS
3118   0D4C             L_0D4C:
3119   0D4C CB 29           SRA C
3120   0D4E 30 01           JR NC,L_0D51
3121   0D50 07              RLCA
3122   0D51             
3123   0D51             ; FIND-ADDR
3124   0D51             L_0D51:
3125   0D51 F5              PUSH AF
3126   0D52 CD 94 0A        CALL SUB_0A94
3127   0D55 7E              LD A,(HL)
3128   0D56 07              RLCA
3129   0D57 FE 10           CP $10
3130   0D59 30 06           JR NC,L_0D61
3131   0D5B 0F              RRCA
3132   0D5C 30 02           JR NC,L_0D60
3133   0D5E EE 8F           XOR $8F
3134   0D60             
3135   0D60             ; SQ-SAVED
3136   0D60             L_0D60:
3137   0D60 47              LD B,A
3138   0D61             
3139   0D61             ; TABLE-PTR
3140   0D61             L_0D61:
3141   0D61 11 12 0E        LD DE,L_0E12                        ; Address: P-UNPLOT
3142   0D64 3A 30 40        LD A,($4030)
3143   0D67 93              SUB E
3144   0D68 FA 70 0D        JP M,L_0D70
3145   0D6B F1              POP AF
3146   0D6C 2F              CPL
3147   0D6D A0              AND B
3148   0D6E 18 02           JR L_0D72
3149   0D70             
3150   0D70             ; PLOT
3151   0D70             L_0D70:
3152   0D70 F1              POP AF
3153   0D71 B0              OR B
3154   0D72             
3155   0D72             ; UNPLOT
3156   0D72             L_0D72:
3157   0D72 FE 08           CP $08
3158   0D74 38 02           JR C,L_0D78
3159   0D76 EE 8F           XOR $8F
3160   0D78             
3161   0D78             ; PLOT-END
3162   0D78             L_0D78:
3163   0D78                                                     ; Missing EXX before and after RST 10H
3164   0D78 D7              RST 10H
3165   0D79                                                     ;
3166   0D79 C9              RET
3167   0D7A             
3168   0D7A             ; ----------------------------
3169   0D7A             ; THE 'STACK-TO-BC' SUBROUTINE
3170   0D7A             ; ----------------------------
3171   0D7A             
3172   0D7A             ; STK-TO-BC
3173   0D7A             SUB_0D7A:
3174   0D7A CD 83 10        CALL SUB_1083
3175   0D7D 47              LD B,A
3176   0D7E C5              PUSH BC
3177   0D7F CD 83 10        CALL SUB_1083
3178   0D82 C1              POP BC                              ; missing setting E and D to previous values of C
3179   0D83 4F              LD C,A
3180   0D84 C9              RET
3181   0D85             
3182   0D85             ; -------------------
3183   0D85             ; THE 'SYNTAX' TABLES
3184   0D85             ; -------------------
3185   0D85             
3186   0D85             ; i) The Offset table
3187   0D85             
3188   0D85             ; offset-t
3189   0D85             L_0D85:
3190   0D85 24              .BYTE L_0DA9 - $                    ; offset of $24 for TEMPO
3191   0D86 27              .BYTE L_0DAD - $                    ; offset of $27 for MUSIC
3192   0D87 29              .BYTE L_0DB0 - $                    ; offset of $29 for SOUND
3193   0D88 2E              .BYTE L_0DB6 - $                    ; offset of $2E for BEEP
3194   0D89 30              .BYTE L_0DB9 - $                    ; offset of $30 for NOBEEP
3195   0D8A 9E              .BYTE L_0E28 - $                    ; offset of $9E for LPRINT
3196   0D8B A0              .BYTE L_0E2B - $                    ; offset of $A0 for LLIST
3197   0D8C 40              .BYTE L_0DCC - $                    ; offset of $40 for STOP
3198   0D8D 92              .BYTE L_0E1F - $                    ; offset of $92 for SLOW
3199   0D8E 94              .BYTE L_0E22 - $                    ; offset of $94 for FAST
3200   0D8F 5C              .BYTE L_0DEB - $                    ; offset of $5C for NEW
3201   0D90 88              .BYTE L_0E18 - $                    ; offset of $88 for SCROLL
3202   0D91 72              .BYTE L_0E03 - $                    ; offset of $72 for CONT
3203   0D92 53              .BYTE L_0DE5 - $                    ; offset of $53 for DIM
3204   0D93 55              .BYTE L_0DE8 - $                    ; offset of $55 for REM
3205   0D94 3E              .BYTE L_0DD2 - $                    ; offset of $3E for FOR
3206   0D95 2A              .BYTE L_0DBF - $                    ; offset of $2A for GOTO
3207   0D96 32              .BYTE L_0DC8 - $                    ; offset of $32 for GOSUB
3208   0D97 4A              .BYTE L_0DE1 - $                    ; offset of $4A for INPUT
3209   0D98 65              .BYTE L_0DFD - $                    ; offset of $65 for LOAD
3210   0D99 58              .BYTE L_0DF1 - $                    ; offset of $58 for LIST
3211   0D9A 22              .BYTE L_0DBC - $                    ; offset of $22 for LET
3212   0D9B 80              .BYTE L_0E1B - $                    ; offset of $80 for PAUSE
3213   0D9C 3E              .BYTE L_0DDA - $                    ; offset of $3E for NEXT
3214   0D9D 57              .BYTE L_0DF4 - $                    ; offset of $57 for POKE
3215   0D9E 40              .BYTE L_0DDE - $                    ; offset of $40 for PRINT
3216   0D9F 6D              .BYTE L_0E0C - $                    ; offset of $6D for PLOT
3217   0DA0 4E              .BYTE L_0DEE - $                    ; offset of $4E for RUN
3218   0DA1 5F              .BYTE L_0E00 - $                    ; offset of $5F for SAVE
3219   0DA2 58              .BYTE L_0DFA - $                    ; offset of $58 for RAND
3220   0DA3 20              .BYTE L_0DC3 - $                    ; offset of $20 for IF
3221   0DA4 65              .BYTE L_0E09 - $                    ; offset of $65 for CLS
3222   0DA5 6D              .BYTE L_0E12 - $                    ; offset of $6D for UNPLOT
3223   0DA6 60              .BYTE L_0E06 - $                    ; offset of $60 for CLEAR
3224   0DA7 28              .BYTE L_0DCF - $                    ; offset of $28 for RETURN
3225   0DA8 7D              .BYTE L_0E25 - $                    ; offset of $7D for COPY
3226   0DA9             
3227   0DA9             ; P-TEMPO
3228   0DA9             L_0DA9:
3229   0DA9 06              .BYTE $06                           ; Class-06 - A numeric expression must follow.
3230   0DAA 00              .BYTE $00                           ; Class-00 - No further operands.
3231   0DAB 5C 10           .WORD SUB_105C                      ; TEMPO
3232   0DAD             
3233   0DAD             ; P-MUSIC
3234   0DAD             L_0DAD:
3235   0DAD 05              .BYTE $05                           ; Class-05 - Variable syntax checked entirely by routine.
3236   0DAE 4D 0F           .WORD SUB_0F4D                      ; MUSIC
3237   0DB0             
3238   0DB0             ; P-SOUND
3239   0DB0             L_0DB0:
3240   0DB0 06              .BYTE $06                           ; Class-06 - A numeric expression must follow.
3241   0DB1 1A              .BYTE $1A                           ; Separator:  ','
3242   0DB2 06              .BYTE $06                           ; Class-06 - A numeric expression must follow.
3243   0DB3 00              .BYTE $00                           ; Class-00 - No further operands.
3244   0DB4 57 04           .WORD SUB_0457                      ; SOUND
3245   0DB6             
3246   0DB6             L_0DB6:
3247   0DB6             ; P-BEEP
3248   0DB6 00              .BYTE $00                           ; Class-00 - No further operands.
3249   0DB7 31 11           .WORD SUB_1131                      ; BEEP
3250   0DB9             
3251   0DB9             ; P-NOBEEP
3252   0DB9             L_0DB9:
3253   0DB9 00              .BYTE $00                           ; Class-00 - No further operands.
3254   0DBA 36 11           .WORD SUB_1136                      ; NOBEEP
3255   0DBC             
3256   0DBC             ; P-LET
3257   0DBC             L_0DBC:
3258   0DBC 01              .BYTE $01                           ; Class-01 - A variable is required.
3259   0DBD 14              .BYTE $14                           ; Separator:  '='
3260   0DBE 02              .BYTE $02                           ; Class-02 - An expression, numeric or string, must follow.
3261   0DBF                                                     ; no function to call
3262   0DBF             ; P-GOTO
3263   0DBF             L_0DBF:
3264   0DBF 06              .BYTE $06                           ; Class-06 - A numeric expression must follow.
3265   0DC0 00              .BYTE $00                           ; Class-00 - No further operands.
3266   0DC1 68 10           .WORD SUB_1068                      ; GOTO
3267   0DC3             
3268   0DC3             ; P-IF
3269   0DC3             L_0DC3:
3270   0DC3 06              .BYTE $06                           ; CLASS-06 - A NUMERIC EXPRESSION MUST FOLLOW.                                                                        ;
3271   0DC4 40              .BYTE $40                           ; Separator:  'THEN' ($DE on ZX81)
3272   0DC5 05              .BYTE $05                           ; Class-05 - Variable syntax checked entirely by routine.
3273   0DC6 2E 0E           .WORD SUB_0E2E                      ; IF
3274   0DC8             
3275   0DC8             ; P-GOSUB
3276   0DC8             L_0DC8:
3277   0DC8 06              .BYTE $06                           ; Class-06 - A numeric expression must follow.
3278   0DC9 00              .BYTE $00                           ; Class-00 - No further operands.
3279   0DCA 90 10           .WORD SUB_1090                      ; GOSUB
3280   0DCC             
3281   0DCC             ; P-STOP
3282   0DCC             L_0DCC:
3283   0DCC 00              .BYTE $00                           ; CLASS-00 - NO FURTHER OPERANDS.                                                              ;
3284   0DCD 91 0E           .WORD SUB_0E91                      ; STOP
3285   0DCF             
3286   0DCF             ; P-RETURN
3287   0DCF             L_0DCF:
3288   0DCF 00              .BYTE $00                           ; Class-00 - No further operands.
3289   0DD0 B3 10           .WORD SUB_10B3                      ; RETURN
3290   0DD2             
3291   0DD2             ; P-FOR
3292   0DD2             L_0DD2:
3293   0DD2 04              .BYTE $04                           ; Class-04 - A single character variable must follow.
3294   0DD3 14              .BYTE $14                           ; Separator:  '='
3295   0DD4 06              .BYTE $06                           ; Class-06 - A numeric expression must follow.
3296   0DD5 41              .BYTE $41                           ; Separator:  'TO' (was $DF on ZX81)
3297   0DD6 06              .BYTE $06                           ; Class-06 - A numeric expression must follow.
3298   0DD7 05              .BYTE $05                           ; Class-05 - Variable syntax checked entirely by routine.
3299   0DD8 C9 0F           .WORD SUB_0FC9                      ; FOR
3300   0DDA             
3301   0DDA             ; P-NEXT
3302   0DDA             L_0DDA:
3303   0DDA 04              .BYTE $04                           ; Class-04 - A single character variable must follow.
3304   0DDB 00              .BYTE $00                           ; Class-00 - No further operands.
3305   0DDC 0E 10           .WORD SUB_100E                      ; NEXT
3306   0DDE             
3307   0DDE             ; P-PRINT
3308   0DDE             L_0DDE:
3309   0DDE 05              .BYTE $05                           ; Class-05 - Variable syntax checked entirely by routine.
3310   0DDF 5F 0C           .WORD SUB_0C5F                      ; PRINT
3311   0DE1             
3312   0DE1             ; P-INPUT
3313   0DE1             L_0DE1:
3314   0DE1 01              .BYTE $01                           ; Class-01 - A variable is required.
3315   0DE2 00              .BYTE $00                           ; Class-00 - No further operands.
3316   0DE3 C4 10           .WORD SUB_10C4                      ; INPUT
3317   0DE5             
3318   0DE5             ; P-DIM
3319   0DE5             L_0DE5:
3320   0DE5 05              .BYTE $05                           ; Class-05 - Variable syntax checked entirely by routine.
3321   0DE6 FE 15           .WORD SUB_15FE                      ;
3322   0DE8             
3323   0DE8             ; P-REM
3324   0DE8             L_0DE8:
3325   0DE8 05              .BYTE $05                           ; Class-05 - Variable syntax checked entirely by routine.
3326   0DE9 E7 0E           .WORD SUB_0EE7                      ; REM
3327   0DEB             
3328   0DEB             ; P-NEW
3329   0DEB             L_0DEB:
3330   0DEB 00              .BYTE $00                           ; Class-00 - No further operands.
3331   0DEC 81 04           .WORD SUB_0481                      ; NEW
3332   0DEE             
3333   0DEE             ; P-RUN
3334   0DEE             L_0DEE:
3335   0DEE 03              .BYTE $03                           ; Class-03 - A numeric expression may follow else default to zero.
3336   0DEF 8F 16           .WORD SUB_168F                      ; RUN
3337   0DF1             
3338   0DF1             ; P-LIST
3339   0DF1             L_0DF1:
3340   0DF1 03              .BYTE $03                           ; Class-03 - A numeric expression may follow else default to zero.
3341   0DF2 BF 08           .WORD SUB_08BF                      ; LIST
3342   0DF4             
3343   0DF4             ; P-POKE
3344   0DF4             L_0DF4:
3345   0DF4 06              .BYTE $06                           ; Class-06 - A numeric expression must follow.
3346   0DF5 1A              .BYTE $1A                           ; Separator:  ','
3347   0DF6 06              .BYTE $06                           ; Class-06 - A numeric expression must follow.
3348   0DF7 00              .BYTE $00                           ; Class-00 - No further operands.
3349   0DF8 79 10           .WORD SUB_1079                      ; POKE
3350   0DFA             
3351   0DFA             ; P-RAND
3352   0DFA             L_0DFA:
3353   0DFA 03              .BYTE $03                           ; Class-03 - A numeric expression may follow else default to zero.
3354   0DFB 4C 10           .WORD SUB_104C                      ; RAND
3355   0DFD             
3356   0DFD             ; P-LOAD
3357   0DFD             L_0DFD:
3358   0DFD 05              .BYTE $05                           ; Class-05 - Variable syntax checked entirely by routine.
3359   0DFE 81 2B           .WORD NEW_LOAD                      ; New LOAD routine
3360   0E00             
3361   0E00             
3362   0E00             ; P-SAVE
3363   0E00             L_0E00:
3364   0E00 05              .BYTE $05                           ; Class-05 - Variable syntax checked entirely by routine.
3365   0E01 01 2B           .WORD NEW_SAVE                      ; New SAVE routine
3366   0E03             
3367   0E03             ; P-CONT
3368   0E03             L_0E03:
3369   0E03 00              .BYTE $00                           ; Class-00 - No further operands.
3370   0E04 63 10           .WORD SUB_1063                      ; CONT
3371   0E06             
3372   0E06             ; P-CLEAR
3373   0E06             L_0E06:
3374   0E06 00              .BYTE $00                           ; Class-00 - No further operands.
3375   0E07 92 16           .WORD SUB_1692                      ; CLEAR
3376   0E09             
3377   0E09             ; P-CLS
3378   0E09             L_0E09:
3379   0E09 00              .BYTE $00                           ; Class-00 - No further operands.
3380   0E0A D0 0B           .WORD SUB_0BD0                      ; CLS
3381   0E0C             
3382   0E0C             ; P-PLOT
3383   0E0C             L_0E0C:
3384   0E0C 06              .BYTE $06                           ; Class-06 - A numeric expression must follow.
3385   0E0D 1A              .BYTE $1A                           ; Separator:  ','
3386   0E0E 06              .BYTE $06                           ; Class-06 - A numeric expression must follow.
3387   0E0F 00              .BYTE $00                           ; Class-00 - No further operands.
3388   0E10 36 0D           .WORD SUB_0D36                      ; PLOT/UNPLOT
3389   0E12             
3390   0E12             ; P-UNPLOT
3391   0E12             L_0E12:
3392   0E12 06              .BYTE $06                           ; Class-06 - A numeric expression must follow.
3393   0E13 1A              .BYTE $1A                           ; Separator:  ','
3394   0E14 06              .BYTE $06                           ; Class-06 - A numeric expression must follow.
3395   0E15 00              .BYTE $00                           ; Class-00 - No further operands.
3396   0E16 36 0D           .WORD SUB_0D36                      ; PLOT/UNPLOT
3397   0E18             
3398   0E18             ; P-SCROLL
3399   0E18             L_0E18:
3400   0E18 00              .BYTE $00                           ; Class-00 - No further operands.
3401   0E19 B1 0B           .WORD SUB_0BB1                      ; SCROLL
3402   0E1B             
3403   0E1B             ; P-PAUSE
3404   0E1B             L_0E1B:
3405   0E1B 06              .BYTE $06                           ; Class-06 - A numeric expression must follow.
3406   0E1C 00              .BYTE $00                           ; Class-00 - No further operands.
3407   0E1D FE 10           .WORD SUB_10FE                      ; PAUSE
3408   0E1F             
3409   0E1F             ; P-SLOW
3410   0E1F             L_0E1F:
3411   0E1F 00              .BYTE $00                           ; Class-00 - No further operands.
3412   0E20 81 02           .WORD SUB_0281                      ; SLOW
3413   0E22             
3414   0E22             ; P-FAST
3415   0E22             L_0E22:
3416   0E22 00              .BYTE $00                           ; Class-00 - No further operands.
3417   0E23 C6 2A           .WORD NEW_FAST                      ; New FAST routine
3418   0E25             
3419   0E25             ; P-COPY
3420   0E25             L_0E25:
3421   0E25 00              .BYTE $00                           ; Class-00 - No further operands.
3422   0E26 0A 0A           .WORD SUB_0101                      ; COPY
3423   0E28             
3424   0E28             ; P-LPRINT
3425   0E28             L_0E28:
3426   0E28 05              .BYTE $05                           ; Class-05 - Variable syntax checked entirely by routine.
3427   0E29 5B 0C           .WORD SUB_0C5B                      ; LPRINT
3428   0E2B             
3429   0E2B             ; P-LLIST
3430   0E2B             L_0E2B:
3431   0E2B 03              .BYTE $03                           ; Class-03 - A numeric expression may follow else default to zero.
3432   0E2C BB 08           .WORD SUB_08BB                      ; LLIST
3433   0E2E             
3434   0E2E             ; ------------------------
3435   0E2E             ; THE 'IF' COMMAND ROUTINE
3436   0E2E             ; ------------------------
3437   0E2E             
3438   0E2E             ; IF
3439   0E2E             SUB_0E2E
3440   0E2E CD 23 0F        CALL SUB_0F23
3441   0E31 28 06           JR Z,L_0E39
3442   0E33 EF              RST 28H                             ; FP-CALC
3443   0E34 02              .BYTE $02                           ; delete
3444   0E35 34              .BYTE $34                           ; end-calc
3445   0E36 1A              LD A,(DE)
3446   0E37 A7              AND A
3447   0E38 C8              RET Z
3448   0E39             
3449   0E39             ; IF-END
3450   0E39             L_0E39:
3451   0E39 18 18           JR L_0E53
3452   0E3B             
3453   0E3B             ; ---------------------------
3454   0E3B             ; THE 'LINE SCANNING' ROUTINE
3455   0E3B             ; ---------------------------
3456   0E3B             
3457   0E3B             ; LINE-SCAN
3458   0E3B             SUB_0E3B:
3459   0E3B FD 36 01 01     LD (IY+$01),$01
3460   0E3F CD 08 0C        CALL SUB_0C08
3461   0E42             
3462   0E42             ; LINE-RUN    
3463   0E42             SUB_0E42:
3464   0E42 CD B4 16        CALL L_16B4
3465   0E45 21 00 40        LD HL,$4000
3466   0E48 36 FF           LD (HL),$FF
3467   0E4A 21 2D 40        LD HL,$402D
3468   0E4D CB 6E           BIT 5,(HL)
3469   0E4F 7E              LD A,(HL)
3470   0E50 C2 EC 0E        JP NZ,L_0EEC
3471   0E53             
3472   0E53             ; LINE-NULL    
3473   0E53             L_0E53:
3474   0E53 DF              RST 18H                             ; GET-CHAR
3475   0E54 06 00           LD B,$00
3476   0E56 FE 76           CP $76
3477   0E58 C8              RET Z
3478   0E59 4F              LD C,A
3479   0E5A FE 40           CP $40                              ; different to ZX81
3480   0E5C 3E F1           LD A,$F1                            ;
3481   0E5E 38 02           JR C,L_0E62                         ;
3482   0E60             
3483   0E60 E7              RST 20H                             ; NEXT-CHAR advances
3484   0E61 79              LD A,C
3485   0E62             L_0E62:
3486   0E62 D6 DC           SUB $DC                             ; Subtract lower command (Was $E1, LPRINT in ZX81)
3487   0E64 38 3D           JR C,L_0EA3                         ; different
3488   0E66 4F              LD C,A                              ;
3489   0E67 21 85 0D        LD HL,L_0D85                        ;
3490   0E6A 09              ADD HL,BC
3491   0E6B             
3492   0E6B 4E              LD C,(HL)
3493   0E6C 09              ADD HL,BC
3494   0E6D 18 03           JR L_0E72
3495   0E6F             
3496   0E6F             ; SCAN-LOOP    
3497   0E6F             L_0E6F:
3498   0E6F 2A 30 40        LD HL,($4030)
3499   0E72             
3500   0E72             ; GET-PARAM    
3501   0E72             L_0E72:
3502   0E72 7E              LD A,(HL)
3503   0E73 23              INC HL
3504   0E74 22 30 40        LD ($4030),HL
3505   0E77 01 6F 0E        LD BC,L_0E6F
3506   0E7A C5              PUSH BC
3507   0E7B 4F              LD C,A
3508   0E7C FE 0B           CP $0B
3509   0E7E 30 0B           JR NC,L_0E8B
3510   0E80 21 93 0E        LD HL,L_0E93                        ; Command class table             
3511   0E83 06 00           LD B,$00
3512   0E85 09              ADD HL,BC
3513   0E86 4E              LD C,(HL)
3514   0E87 09              ADD HL,BC
3515   0E88 E5              PUSH HL
3516   0E89 DF              RST 18H
3517   0E8A C9              RET
3518   0E8B             L_0E8B:
3519   0E8B DF              RST 18H
3520   0E8C B9              CP C
3521   0E8D 20 14           JR NZ,L_0EA3
3522   0E8F E7              RST 20H                             ; was RST 18H on ZX81
3523   0E90 C9              RET
3524   0E91             
3525   0E91             ; --------------------------
3526   0E91             ; THE 'STOP' COMMAND ROUTINE
3527   0E91             ; --------------------------
3528   0E91             
3529   0E91             ; STOP
3530   0E91             SUB_0E91:
3531   0E91 CF              RST 08H                             ; ERROR-1
3532   0E92 08              .BYTE $08                           ; ST - STopped
3533   0E93             
3534   0E93             ; -------------------------
3535   0E93             ; THE 'COMMAND CLASS' TABLE
3536   0E93             ; -------------------------
3537   0E93             
3538   0E93             ; class-tbl
3539   0E93             L_0E93:
3540   0E93 17              .BYTE SUB_0EAA - $                  ; offset of $17 to CLASS-0
3541   0E94 25              .BYTE SUB_0EB9 - $                  ; offset of $25 to CLASS-1
3542   0E95 53              .BYTE SUB_0EE8 - $                  ; offset of $53 to CLASS-2
3543   0E96 0F              .BYTE SUB_0EA5 - $                  ; offset of $0F to CLASS-3
3544   0E97 6B              .BYTE SUB_0F02 - $                  ; offset of $6B to CLASS-4
3545   0E98 13              .BYTE SUB_0EAB - $                  ; offset of $13 to CLASS-5
3546   0E99 76              .BYTE SUB_0F0F - $                  ; offset of $76 to CLASS-6
3547   0E9A             
3548   0E9A             ; --------------------------
3549   0E9A             ; THE 'CHECK END' SUBROUTINE
3550   0E9A             ; --------------------------
3551   0E9A             
3552   0E9A             ; CHECK-END
3553   0E9A             SUB_0E9A:
3554   0E9A CD 23 0F        CALL SUB_0F23
3555   0E9D C0              RET NZ
3556   0E9E C1              POP BC
3557   0E9F             
3558   0E9F             ; CHECK-2
3559   0E9F             L_0E9F:
3560   0E9F 7E              LD A,(HL)
3561   0EA0 FE 76           CP $76
3562   0EA2 C8              RET Z
3563   0EA3             
3564   0EA3             ; REPORT-C2
3565   0EA3             L_0EA3:
3566   0EA3 18 72           JR L_0F17                           ; to REPORT-C - Invalid Expression
3567   0EA5             
3568   0EA5             ; --------------------------
3569   0EA5             ; COMMAND CLASSES 03, 00, 05
3570   0EA5             ; --------------------------
3571   0EA5             
3572   0EA5             ; CLASS-3
3573   0EA5             SUB_0EA5:
3574   0EA5 FE 76           CP $76
3575   0EA7 CD 19 0F        CALL SUB_0F19
3576   0EAA             
3577   0EAA             ; CLASS-0
3578   0EAA             SUB_0EAA:
3579   0EAA BF              CP A
3580   0EAB             
3581   0EAB             ; CLASS-5
3582   0EAB             SUB_0EAB:
3583   0EAB C1              POP BC
3584   0EAC CC 9A 0E        CALL Z,SUB_0E9A                     ; routine CHECK-END
3585   0EAF EB              EX DE,HL
3586   0EB0 2A 30 40        LD HL,($4030)
3587   0EB3 4E              LD C,(HL)
3588   0EB4 23              INC HL
3589   0EB5 46              LD B,(HL)
3590   0EB6 EB              EX DE,HL
3591   0EB7             
3592   0EB7             ; CLASS-END
3593   0EB7             L_0EB7:
3594   0EB7 C5              PUSH BC
3595   0EB8 C9              RET
3596   0EB9             
3597   0EB9             ; ------------------------------
3598   0EB9             ; COMMAND CLASSES 01, 02, 04, 06
3599   0EB9             ; ------------------------------
3600   0EB9             
3601   0EB9             ; CLASS-1
3602   0EB9             SUB_0EB9:
3603   0EB9 CD 11 13        CALL $1311
3604   0EBC             
3605   0EBC             ; CLASS-4-2
3606   0EBC             L_0EBC:
3607   0EBC FD 36 2D 00     LD (IY+$2D),$00
3608   0EC0 30 08           JR NC,$+10
3609   0EC2 FD CB 2D CE     SET 1,(IY+$2D)
3610   0EC6 20 18           JR NZ,L_0EE0
3611   0EC8             
3612   0EC8             
3613   0EC8             ; REPORT-2
3614   0EC8             L_0EC8:
3615   0EC8 CF              RST 08H                             ; ERROR-1
3616   0EC9 01              .BYTE $01                           ; UV - Unidentified Variable
3617   0ECA             
3618   0ECA             ; SET-STK
3619   0ECA CC 9C 13        CALL Z,SUB_139C
3620   0ECD FD CB 01 76     BIT 6,(IY+$01)                      ; check FLAGS - 0 = string or 1 = numeric result
3621   0ED1 20 0D           JR NZ,L_0EE0
3622   0ED3 AF              XOR A
3623   0ED4 CD 23 0F        CALL SUB_0F23
3624   0ED7 C4 ED 15        CALL NZ,SUB_15ED                    ; routine STK-FETCH
3625   0EDA 21 2D 40        LD HL,$402D
3626   0EDD B6              OR (HL)
3627   0EDE 77              LD (HL),A
3628   0EDF EB              EX DE,HL
3629   0EE0             
3630   0EE0             ; SET-STRLN
3631   0EE0             L_0EE0:
3632   0EE0 ED 43 2E 40     LD ($402E),BC
3633   0EE4 22 12 40        LD ($4012),HL
3634   0EE7                                                     ; drops through
3635   0EE7             
3636   0EE7             ; THE 'REM' COMMAND ROUTINE
3637   0EE7             
3638   0EE7             ; REM
3639   0EE7             SUB_0EE7:
3640   0EE7 C9              RET
3641   0EE8             
3642   0EE8             ; CLASS-2
3643   0EE8             SUB_0EE8:
3644   0EE8 C1              POP BC
3645   0EE9 3A 01 40        LD A,($4001)
3646   0EEC             
3647   0EEC             ; INPUT-REP
3648   0EEC             L_0EEC:
3649   0EEC F5              PUSH AF
3650   0EED CD 4A 11        CALL SUB_114A                       ; routine SCANNING
3651   0EF0 F1              POP AF
3652   0EF1 01 16 15        LD BC,L_1516
3653   0EF4 FD 56 01        LD D,(IY+$01)
3654   0EF7 AA              XOR D
3655   0EF8 E6 40           AND $40
3656   0EFA 20 1B           JR NZ,L_0F17                        ; to REPORT-C - Invalid Expression
3657   0EFC CB 7A           BIT 7,D
3658   0EFE 20 B7           JR NZ,L_0EB7
3659   0F00 18 9D           JR L_0E9F
3660   0F02             
3661   0F02             ; CLASS-4
3662   0F02             SUB_0F02:
3663   0F02 CD 11 13        CALL $1311
3664   0F05 F5              PUSH AF
3665   0F06 79              LD A,C
3666   0F07 F6 9F           OR $9F
3667   0F09 3C              INC A
3668   0F0A 20 0B           JR NZ,L_0F17                        ; to REPORT-C - Invalid Expression
3669   0F0C F1              POP AF
3670   0F0D 18 AD           JR L_0EBC
3671   0F0F             
3672   0F0F             ; CLASS-6
3673   0F0F             SUB_0F0F:
3674   0F0F CD 4A 11        CALL SUB_114A                       ; routine SCANNING
3675   0F12 FD CB 01 76     BIT 6,(IY+$01)                      ; check FLAGS - 0 = string or 1 = numeric result
3676   0F16 C0              RET NZ
3677   0F17             
3678   0F17             ; REPORT-C
3679   0F17             L_0F17:
3680   0F17 CF              RST 08H                             ; ERROR-1
3681   0F18 0B              .BYTE $0B                           ; IE - Invalid Expression
3682   0F19             
3683   0F19             ; --------------------------------
3684   0F19             ; THE 'NUMBER TO STACK' SUBROUTINE
3685   0F19             ; --------------------------------
3686   0F19             
3687   0F19             ; NO-TO-STK
3688   0F19             SUB_0F19:
3689   0F19 20 F4           JR NZ,SUB_0F0F
3690   0F1B CD 23 0F        CALL SUB_0F23
3691   0F1E C8              RET Z
3692   0F1F EF              RST 28H                             ; FP-CALC
3693   0F20 A0              .BYTE $A0                           ; stk-zero
3694   0F21 34              .BYTE $34                           ; end-calc
3695   0F22 C9              RET
3696   0F23             
3697   0F23             ; -------------------------
3698   0F23             ; THE 'SYNTAX-Z' SUBROUTINE
3699   0F23             ; -------------------------
3700   0F23             
3701   0F23             ; SYNTAX-Z
3702   0F23             SUB_0F23:
3703   0F23 FD CB 01 7E     BIT 7,(IY+$01)
3704   0F27 C9              RET
3705   0F28             
3706   0F28             ; ---------------------
3707   0F28             ; MORE 'MUSIC' ROUTINES
3708   0F28             ; ---------------------
3709   0F28             
3710   0F28             ; MUSIC-TABLE
3711   0F28             L_0F28:
3712   0F28 94              .BYTE $94                           ; A
3713   0F29 8B              .BYTE $8B                           ; A#
3714   0F2A 84              .BYTE $84                           ; B
3715   0F2B 7C              .BYTE $7C                           ; B#
3716   0F2C F8              .BYTE $F8                           ; C
3717   0F2D EB              .BYTE $EB                           ; C#
3718   0F2E DD              .BYTE $DD                           ; D
3719   0F2F D1              .BYTE $D1                           ; D#
3720   0F30 C5              .BYTE $C5                           ; E
3721   0F31 BA              .BYTE $BA                           ; (=F)
3722   0F32 BA              .BYTE $BA                           ; F
3723   0F33 B0              .BYTE $B0                           ; F#
3724   0F34 A6              .BYTE $A6                           ; G
3725   0F35 9D              .BYTE $9D                           ; G#
3726   0F36             
3727   0F36             ; MUSIC-9
3728   0F36             SUB_0F36:
3729   0F36 FE 26           CP $26
3730   0F38 D0              RET NC
3731   0F39 D6 1C           SUB $1C
3732   0F3B 3F              CCF
3733   0F3C C9              RET
3734   0F3D             
3735   0F3D             ; MUSIC-10
3736   0F3D             L_0F3D:
3737   0F3D 78              LD A,B
3738   0F3E B1              OR C
3739   0F3F C8              RET Z                               ; return if A and B are 0
3740   0F40 7E              LD A,(HL)                           ; get character
3741   0F41 23              INC HL                              ; step pointer
3742   0F42 0B              DEC BC                              ; decrement length
3743   0F43 A7              AND A                               ; check character
3744   0F44 C0              RET NZ                              ; return if not a space
3745   0F45 18 F6           JR L_0F3D                           ; to MUSIC-10
3746   0F47             
3747   0F47             ; MUSIC-11
3748   0F47             SUB_0F47:
3749   0F47 CD 3D 0F        CALL L_0F3D                         ; to MUSIC-10
3750   0F4A C0              RET NZ
3751   0F4B             
3752   0F4B             ; REPORT-MF
3753   0F4B             L_0F4B:
3754   0F4B CF              RST 08H                             ; ERROR-1
3755   0F4C 0E              .BYTE $0E                           ; MF - Music Format incorrect
3756   0F4D             
3757   0F4D             ; ---------------------------
3758   0F4D             ; THE 'MUSIC' COMMAND ROUTINE
3759   0F4D             ; ---------------------------
3760   0F4D             
3761   0F4D             ; MUSIC
3762   0F4D             SUB_0F4D:
3763   0F4D CD 4A 11        CALL SUB_114A                       ; routine SCANNING
3764   0F50 FD CB 01 76     BIT 6,(IY+$01)                      ; check FLAGS - 0 = string or 1 = numeric result
3765   0F54 20 C1           JR NZ,L_0F17                        ; to REPORT-C - Invalid Expression
3766   0F56 CD 9A 0E        CALL SUB_0E9A                       ; routine CHECK-END
3767   0F59 CD ED 15        CALL SUB_15ED                       ; routine STK-FETCH
3768   0F5C EB              EX DE,HL                            ; DE now start address, HL string length
3769   0F5D CD 70 03        CALL SUB_0370                       ; routine SET-FAST
3770   0F60             
3771   0F60             ; MUSIC-1
3772   0F60             L_0F60:
3773   0F60 CD 3D 0F        CALL L_0F3D                         ; routine MUSIC-10 (get next character)
3774   0F63 CA 85 02        JP Z,SUB_0285                       ; check in FAST mode
3775   0F66 FE 1B           CP $1B                              ; is character '"'
3776   0F68 1E 01           LD E,$01
3777   0F6A 28 22           JR Z,L_0F8E                         ; to MUSIC-2 if it is
3778   0F6C 07              RLCA                                ; character x2
3779   0F6D FE 5A           CP $5A                              ; Before the rotate, A would have been $2D, 'H', so checking A-G
3780   0F6F 30 DA           JR NC,L_0F4B                        ; to REPORT, Music Format incorrect
3781   0F71 D6 4C           SUB $4C
3782   0F73 38 D6           JR C,L_0F4B                         ; to REPORT, Music Format incorrect
3783   0F75             
3784   0F75             ; get note
3785   0F75 E5              PUSH HL
3786   0F76 16 00           LD D,$00
3787   0F78 5F              LD E,A
3788   0F79 21 28 0F        LD HL,L_0F28                        ; address of MUSIC-TABLE
3789   0F7C 19              ADD HL,DE                           ; offset by 2x letter - 4C
3790   0F7D 5E              LD E,(HL)                           ; get note
3791   0F7E E1              POP HL
3792   0F7F             
3793   0F7F CD 47 0F        CALL SUB_0F47                       ; routine MUSIC-11
3794   0F82 FE 13           CP $13                              ; is character '<'
3795   0F84 28 08           JR Z,L_0F8E                         ; to MUSIC-2 if it is
3796   0F86 CB 3B           SRL E                               ; down an octave
3797   0F88 FE 12           CP $12                              ; is character '>'
3798   0F8A 20 05           JR NZ,L_0F91                        ; to MUSIC-3 if it isn't
3799   0F8C CB 3B           SRL E                               ; down an octave
3800   0F8E             
3801   0F8E             ; MUSIC-2
3802   0F8E             L_0F8E:
3803   0F8E CD 47 0F        CALL SUB_0F47                       ; routine MUSIC-11
3804   0F91             
3805   0F91             ; MUSIC-3 - get duration
3806   0F91             L_0F91:
3807   0F91 CD 36 0F        CALL SUB_0F36                       ; routine MUSIC-9
3808   0F94 30 B5           JR NC,L_0F4B                        ; to REPORT, Music Format incorrect
3809   0F96 57              LD D,A
3810   0F97 CD 3D 0F        CALL L_0F3D                         ; routine MUSIC-10
3811   0F9A 28 12           JR Z,L_0FAE                         ; to MUSIC-5
3812   0F9C CD 36 0F        CALL SUB_0F36                       ; routine MUSIC-9
3813   0F9F 38 04           JR C,L_0FA5
3814   0FA1 2B              DEC HL
3815   0FA2 03              INC BC
3816   0FA3 18 09           JR L_0FAE                           ; to MUSIC-5
3817   0FA5             
3818   0FA5             ; MUSIC-4
3819   0FA5             L_0FA5:
3820   0FA5 CB 22           SLA D
3821   0FA7 82              ADD A,D
3822   0FA8 CB 22           SLA D
3823   0FAA CB 22           SLA D
3824   0FAC 82              ADD A,D
3825   0FAD 57              LD D,A
3826   0FAE             
3827   0FAE             ; MUSIC-5 - play note
3828   0FAE             L_0FAE:
3829   0FAE E5              PUSH HL
3830   0FAF C5              PUSH BC
3831   0FB0 62              LD H,D                              ; prepare note
3832   0FB1 FD 6E 21        LD L,(IY+$21)                       ; TEMPO
3833   0FB4 0E 00           LD C,$00
3834   0FB6 53              LD D,E
3835   0FB7             
3836   0FB7             ; MUSIC-6
3837   0FB7             L_0FB7:
3838   0FB7 45              LD B,L
3839   0FB8             ; by this point E = note (adjusted from table), BC = duration (from TEMPO)
3840   0FB8 CD 63 04        CALL L_0463                         ; routine PLAY-NOTE-2
3841   0FBB 25              DEC H
3842   0FBC 20 F9           JR NZ,L_0FB7                        ; loop back to MUSIC-6
3843   0FBE 06 05           LD B,$05
3844   0FC0             
3845   0FC0             ; MUSIC-7
3846   0FC0             L_0FC0:
3847   0FC0 0B              DEC BC
3848   0FC1 78              LD A,B
3849   0FC2 B1              OR C
3850   0FC3 20 FB           JR NZ,L_0FC0                        ; loop until BC = 0
3851   0FC5 C1              POP BC
3852   0FC6 E1              POP HL
3853   0FC7 18 97           JR L_0F60                           ; back to MUSIC-1
3854   0FC9             
3855   0FC9             
3856   0FC9             ; -------------------------
3857   0FC9             ; THE 'FOR' COMMAND ROUTINE
3858   0FC9             ; -------------------------
3859   0FC9             
3860   0FC9             ; FOR
3861   0FC9             SUB_0FC9:
3862   0FC9 FE 42           CP $42                              ; STEP ($E0 on ZX81)
3863   0FCB 20 09           JR NZ,L_0FD6
3864   0FCD E7              RST 20H
3865   0FCE CD 0F 0F        CALL SUB_0F0F
3866   0FD1 CD 9A 0E        CALL SUB_0E9A                       ; routine CHECK-END
3867   0FD4 18 06           JR L_0FDC
3868   0FD6             
3869   0FD6             ; F-USE-ONE
3870   0FD6             L_0FD6:
3871   0FD6 CD 9A 0E        CALL SUB_0E9A                       ; routine CHECK-END
3872   0FD9 EF              RST 28H                             ; FP-CALC
3873   0FDA A1              .BYTE $A1                           ; stk-one
3874   0FDB 34              .BYTE $34                           ; end-calc
3875   0FDC             
3876   0FDC             ; F-REORDER
3877   0FDC             L_0FDC:
3878   0FDC EF              RST 28H                             ; FP-CALC      v, l, s.
3879   0FDD C0              .BYTE $C0                           ; st-mem-0      v, l, s.
3880   0FDE 02              .BYTE $02                           ; delete        v, l.
3881   0FDF 01              .BYTE $01                           ; exchange      l, v.
3882   0FE0 E0              .BYTE $E0                           ; get-mem-0     l, v, s.
3883   0FE1 01              .BYTE $01                           ; exchange      l, s, v.
3884   0FE2 34              .BYTE $34                           ; end-calc      l, s, v.
3885   0FE3 CD 16 15        CALL L_1516
3886   0FE6 22 1F 40        LD ($401F),HL
3887   0FE9 2B              DEC HL
3888   0FEA 7E              LD A,(HL)
3889   0FEB CB FE           SET 7,(HL)
3890   0FED 01 06 00        LD BC,$0006
3891   0FF0 09              ADD HL,BC
3892   0FF1 07              RLCA
3893   0FF2 38 06           JR C,L_0FFA
3894   0FF4 CB 21           SLA C
3895   0FF6 CD 30 0B        CALL SUB_0B30                       ; MAKE-ROOM
3896   0FF9 23              INC HL
3897   0FFA             
3898   0FFA             ; F-LMT-STP
3899   0FFA             L_0FFA:
3900   0FFA E5              PUSH HL
3901   0FFB EF              RST 28H                             ; FP-CALC
3902   0FFC 02              .BYTE $02                           ; delete
3903   0FFD 02              .BYTE $02                           ; delete
3904   0FFE 34              .BYTE $34                           ; end-calc
3905   0FFF E1              POP HL
3906   1000 EB              EX DE,HL
3907   1001 0E 0A           LD C,$0A
3908   1003 ED B0           LDIR
3909   1005 2A 07 40        LD HL,($4007)
3910   1008 EB              EX DE,HL
3911   1009 13              INC DE
3912   100A 73              LD (HL),E
3913   100B 23              INC HL
3914   100C 72              LD (HL),D
3915   100D C9              RET                                 ; skips call to NEXT-LOOP
3916   100E             
3917   100E             ; --------------------------
3918   100E             ; THE 'NEXT' COMMAND ROUTINE
3919   100E             ; --------------------------
3920   100E             
3921   100E             ; NEXT
3922   100E             SUB_100E:
3923   100E FD CB 2D 4E     BIT 1,(IY+$2D)
3924   1012 C2 C8 0E        JP NZ,L_0EC8
3925   1015 2A 12 40        LD HL,($4012)
3926   1018 CB 7E           BIT 7,(HL)
3927   101A 28 1C           JR Z,L_1038
3928   101C 23              INC HL
3929   101D 22 1F 40        LD ($401F),HL
3930   1020 EF              RST 28H                             ; FP-CALC
3931   1021 E0              .BYTE $E0                           ; get-mem-0
3932   1022 E2              .BYTE $E2                           ; get-mem-2
3933   1023 0F              .BYTE $0F                           ; addition
3934   1024 C0              .BYTE $C0                           ; st-mem-0
3935   1025 02              .BYTE $02                           ; delete
3936   1026 34              .BYTE $34                           ; end-calc
3937   1027 CD 3A 10        CALL SUB_103A
3938   102A D8              RET C
3939   102B 2A 1F 40        LD HL,($401F)
3940   102E 11 0F 00        LD DE,$000F
3941   1031 19              ADD HL,DE
3942   1032 5E              LD E,(HL)
3943   1033 23              INC HL
3944   1034 56              LD D,(HL)
3945   1035 EB              EX DE,HL
3946   1036 18 35           JR L_106D
3947   1038             
3948   1038             ; REPORT-1
3949   1038             L_1038:
3950   1038 CF              RST 08H                             ; ERROR-1
3951   1039 00              .BYTE $00                           ; NF - Next without For
3952   103A             
3953   103A             ; --------------------------
3954   103A             ; THE 'NEXT-LOOP' SUBROUTINE
3955   103A             ; --------------------------
3956   103A             
3957   103A             ; NEXT-LOOP
3958   103A             SUB_103A:
3959   103A EF              RST 28H                             ; FP-CALC
3960   103B E1              .BYTE $E1                           ; get-mem-1
3961   103C E0              .BYTE $E0                           ; get-mem-0
3962   103D E2              .BYTE $E2                           ; get-mem-2
3963   103E 32              .BYTE $32                           ; less-0
3964   103F 00              .BYTE $00                           ; jump-true
3965   1040 02              .BYTE $02                           ; to LMT-V-VAL
3966   1041 01              .BYTE $01                           ; exchange
3967   1042             ; LMT-V-VAL
3968   1042 03              .BYTE $03                           ; subtract
3969   1043 33              .BYTE $33                           ; greater-0
3970   1044 00              .BYTE $00                           ; jump-true
3971   1045 04              .BYTE $04                           ; to L0E69, IMPOSS
3972   1046 34              .BYTE $34                           ; end-calc
3973   1047             
3974   1047 A7              AND A
3975   1048 C9              RET
3976   1049             
3977   1049             ; ?
3978   1049 34              INC (HL)
3979   104A 37              SCF
3980   104B C9              RET
3981   104C             
3982   104C             ; --------------------------
3983   104C             ; THE 'RAND' COMMAND ROUTINE
3984   104C             ; --------------------------
3985   104C             
3986   104C             ; RAND
3987   104C             SUB_104C:
3988   104C CD 88 10        CALL SUB_1088
3989   104F 78              LD A,B
3990   1050 B1              OR C
3991   1051 20 04           JR NZ,L_1057
3992   1053 ED 4B 34 40     LD BC,($4034)                       ; If 0, use FRAMES value
3993   1057             
3994   1057             ; SET-SEED
3995   1057             L_1057:
3996   1057 ED 43 32 40     LD ($4032),BC                       ; Store SEED
3997   105B C9              RET
3998   105C             
3999   105C             
4000   105C             ; ---------------------------
4001   105C             ; THE 'TEMPO' COMMAND ROUTINE
4002   105C             ; ---------------------------
4003   105C             
4004   105C             ; TEMPO
4005   105C             SUB_105C:
4006   105C CD 83 10        CALL SUB_1083
4007   105F 32 21 40        LD ($4021),A
4008   1062 C9              RET
4009   1063             
4010   1063             ; --------------------------
4011   1063             ; THE 'CONT' COMMAND ROUTINE
4012   1063             ; --------------------------
4013   1063             
4014   1063             ; CONT
4015   1063             SUB_1063:
4016   1063 2A 2B 40        LD HL,($402B)
4017   1066 18 05           JR L_106D
4018   1068             
4019   1068             ; --------------------------
4020   1068             ; THE 'GOTO' COMMAND ROUTINE
4021   1068             ; --------------------------
4022   1068             
4023   1068             ; GOTO
4024   1068             SUB_1068:
4025   1068 CD 88 10        CALL SUB_1088
4026   106B 60              LD H,B
4027   106C 69              LD L,C
4028   106D             
4029   106D             ; GOTO-2
4030   106D             L_106D:
4031   106D 7C              LD A,H
4032   106E FE 28           CP $28
4033   1070 30 1C           JR NC,L_108E
4034   1072 CD 6A 0B        CALL SUB_0B6A
4035   1075 22 0A 40        LD ($400A),HL                       ; NXTLIN - Address of next line to be executed (ZX81 was $4029)
4036   1078 C9              RET
4037   1079             
4038   1079             ; --------------------------
4039   1079             ; THE 'POKE' COMMAND ROUTINE
4040   1079             ; --------------------------
4041   1079             ; POKE
4042   1079             SUB_1079
4043   1079 CD 83 10        CALL SUB_1083
4044   107C                                                     ; missing negative checks
4045   107C F5              PUSH AF
4046   107D CD 88 10        CALL SUB_1088
4047   1080 F1              POP AF
4048   1081                                                     ; missing code that was in the ZX81 ROM, left over from the ZX80 and not requried
4049   1081 02              LD (BC),A
4050   1082 C9              RET
4051   1083             
4052   1083             ; FIND-SHORT
4053   1083             SUB_1083:
4054   1083 CD C5 17        CALL SUB_17C5                       ; routine FP-TO-A
4055   1086 18 03           JR L_108B
4056   1088             
4057   1088             ; -----------------------------
4058   1088             ; THE 'FIND INTEGER' SUBROUTINE
4059   1088             ; -----------------------------
4060   1088             
4061   1088             ; FIND-INT
4062   1088             SUB_1088:
4063   1088 CD 82 17        CALL SUB_1782                       ; routine FP-TO-BC
4064   108B             L_108B:
4065   108B 38 01           JR C,L_108E                         ; error
4066   108D C8              RET Z                               ; Return if valid (0-65535)
4067   108E             
4068   108E             ; REPORT-B
4069   108E             L_108E:
4070   108E CF              RST 08H                             ; ERROR-1
4071   108F 0A              .BYTE $0A                           ; IR - Integer out of Range
4072   1090             
4073   1090             ; ---------------------------
4074   1090             ; THE 'GOSUB' COMMAND ROUTINE
4075   1090             ; ---------------------------
4076   1090             
4077   1090             ; GOSUB
4078   1090             SUB_1090:
4079   1090 2A 07 40        LD HL,($4007)
4080   1093 23              INC HL
4081   1094 E3              EX (SP),HL
4082   1095 E5              PUSH HL
4083   1096 ED 73 02 40     LD ($4002),SP
4084   109A CD 68 10        CALL SUB_1068
4085   109D 01 06 00        LD BC,$0006
4086   10A0             
4087   10A0             ; --------------------------
4088   10A0             ; THE 'TEST ROOM' SUBROUTINE
4089   10A0             ; --------------------------
4090   10A0             
4091   10A0             ; TEST-ROOM
4092   10A0             SUB_10A0:
4093   10A0 2A 1C 40        LD HL,($401C)                       ; Get STKEND - End of calculator stack
4094   10A3 09              ADD HL,BC                           ; Add the number of bytes space needed
4095   10A4 38 08           JR C,L_10AE                         ; to REPORT-4
4096   10A6 EB              EX DE,HL                            ; Save HL
4097   10A7 21 24 00        LD HL,$0024                         ; Safety margin past the end of stack?
4098   10AA 19              ADD HL,DE                           ; Add this margin to the bytes required
4099   10AB ED 72           SBC HL,SP                           ; Subtract the she stack pointer from the new total
4100   10AD D8              RET C                               ; Return with carry set if there is room, if not OM error
4101   10AE             
4102   10AE             ; REPORT-4
4103   10AE             L_10AE:
4104   10AE 2E 03           LD L,$03                            ; Raise OM - Out of Memory
4105   10B0 C3 59 00        JP ERROR_3                           ; to ERROR-3
4106   10B3             
4107   10B3             ; ----------------------------
4108   10B3             ; THE 'RETURN' COMMAND ROUTINE
4109   10B3             ; ----------------------------
4110   10B3             
4111   10B3             ; RETURN
4112   10B3             SUB_10B3:
4113   10B3 E1              POP HL
4114   10B4 E3              EX (SP),HL
4115   10B5 7C              LD A,H
4116   10B6 FE 3E           CP $3E
4117   10B8 28 06           JR Z,L_10C0
4118   10BA ED 73 02 40     LD ($4002),SP
4119   10BE 18 AD           JR L_106D
4120   10C0             
4121   10C0             ; REPORT-7
4122   10C0             L_10C0:
4123   10C0 E3              EX (SP),HL
4124   10C1 E5              PUSH HL
4125   10C2 CF              RST 08H                             ; ERROR-1
4126   10C3 06              .BYTE $06                           ; RG - RETURN without GOSUB
4127   10C4             
4128   10C4             ; ---------------------------
4129   10C4             ; THE 'INPUT' COMMAND ROUTINE
4130   10C4             ; ---------------------------
4131   10C4             
4132   10C4             ; INPUT
4133   10C4             SUB_10C4:
4134   10C4 FD CB 08 7E     BIT 7,(IY+$08)
4135   10C8 20 32           JR NZ,L_10FC
4136   10CA CD 9B 16        CALL SUB_169B
4137   10CD 21 2D 40        LD HL,$402D
4138   10D0 CB EE           SET 5,(HL)
4139   10D2 CB B6           RES 6,(HL)
4140   10D4 3A 01 40        LD A,($4001)
4141   10D7 E6 40           AND $40
4142   10D9 01 02 00        LD BC,$0002
4143   10DC 20 02           JR NZ,L_10E0
4144   10DE 0E 04           LD C,$04
4145   10E0             L_10E0:
4146   10E0 B6              OR (HL)
4147   10E1 77              LD (HL),A
4148   10E2 F7              RST 30H
4149   10E3 36 76           LD (HL),$76
4150   10E5 79              LD A,C
4151   10E6 0F              RRCA
4152   10E7             L_10E7:
4153   10E7 0F              RRCA
4154   10E8 38 05           JR C,L_10EF
4155   10EA 3E 0B           LD A,$0B
4156   10EC 12              LD (DE),A
4157   10ED 2B              DEC HL
4158   10EE 77              LD (HL),A
4159   10EF             L_10EF:
4160   10EF 2B              DEC HL
4161   10F0 36 7F           LD (HL),$7F
4162   10F2 2A 39 40        LD HL,($4039)
4163   10F5 22 30 40        LD ($4030),HL
4164   10F8 E1              POP HL
4165   10F9 C3 58 05        JP L_0558                           ; routine LOWER
4166   10FC             
4167   10FC             L_10FC:
4168   10FC CF              RST 08H                             ; ERROR-1
4169   10FD 07              .BYTE $07                           ; II - Illegal Input
4170   10FE             
4171   10FE             ; ---------------------------
4172   10FE             ; THE 'PAUSE' COMMAND ROUTINE
4173   10FE             ; ---------------------------
4174   10FE             
4175   10FE             ; PAUSE
4176   10FE             SUB_10FE:
4177   10FE CD 88 10        CALL SUB_1088                       ; routine FIND-INT => BC
4178   1101 21 3B 40        LD HL,$403B                         ; CDFLAG
4179   1104 CB 7E           BIT 7,(HL)                          ; check FAST mode
4180   1106 20 0E           JR NZ,L_1116                        ; skip to PAUSE-3 if slow
4181   1108 03              INC BC                              ; Pause value++
4182   1109 ED 43 34 40     LD ($4034),BC                       ; Store this in the frame counter
4183   110D CD 93 02        CALL SUB_0293                       ; Routine PRE-DISPLAY-1
4184   1110             
4185   1110             ; PAUSE-2
4186   1110             L_1110:
4187   1110 FD 36 35 FF     LD (IY+$35),$FF                     ; COORDS - Last point plotted?
4188   1114 18 2A           JR SUB_1140                         ; routine DEBOUNCE
4189   1116             
4190   1116             ; PAUSE-3
4191   1116             L_1116:
4192   1116 78              LD A,B                              ; A = bit 7 of B
4193   1117 E6 80           AND $80
4194   1119 57              LD D,A                              ; D = old bit 7 of B
4195   111A CB F8           SET 7,B                             ; Set bit 7, indicatin PAUSE mode
4196   111C ED 43 34 40     LD ($4034),BC                       ; Alternate value in frame counter
4197   1120             
4198   1120             ; PAUSE-4
4199   1120             L_1120:
4200   1120 ED 4B 34 40     LD BC,($4034)                       ; Get frame counter
4201   1124 CB B8           RES 7,B                             ; ignore bit 7
4202   1126 78              LD A,B                              ; check if MSB
4203   1127 B1              OR C                                ; LSB
4204   1128 B2              OR D                                ; and old bit 7 are all zero (i.e. we have waited long enough)
4205   1129 28 E5           JR Z,L_1110                         ; finished, back to PAUSE-2
4206   112B 7E              LD A,(HL)                           ; get CDFLAG
4207   112C 1F              RRA                                 ; test bit 7 for fast mode
4208   112D 38 E1           JR C,L_1110                         ; finished, back to PAUSE-2
4209   112F 18 EF           JR L_1120                           ; loop back to PAUSE-4
4210   1131             
4211   1131             ; ---------------------------------
4212   1131             ; THE 'BEEP' AND 'NOBEEP' FUNCTIONS
4213   1131             ; ---------------------------------
4214   1131             
4215   1131             ; These functions use bit 5 of the CDFLAG to control the keyboard sounds
4216   1131             ; 0 to make sounds, 1 for silence
4217   1131             
4218   1131             ; BEEP
4219   1131             SUB_1131:
4220   1131 FD CB 3B AE     RES 5,(IY+$3B)                      ; Clear bit 5 of CDFLAG
4221   1135 C9              RET
4222   1136             
4223   1136             ; NOBEEP
4224   1136             SUB_1136:
4225   1136 FD CB 3B EE     SET 5,(IY+$3B)                      ; Set bit 5 of CDFLAG
4226   113A C9              RET
4227   113B             
4228   113B             ; ----------------------
4229   113B             ; THE 'BREAK' SUBROUTINE
4230   113B             ; ----------------------
4231   113B             
4232   113B             ; BREAK-1
4233   113B             SUB_113B:
4234   113B 3E 7F           LD A,$7F
4235   113D DB FE           IN A,($FE)
4236   113F 1F              RRA
4237   1140             
4238   1140             ; -------------------------
4239   1140             ; THE 'DEBOUNCE' SUBROUTINE
4240   1140             ; -------------------------
4241   1140             
4242   1140             ; DEBOUNCE
4243   1140             SUB_1140:
4244   1140 FD CB 3B 86     RES 0,(IY+$3B)
4245   1144 3E FF           LD A,$FF
4246   1146 32 27 40        LD ($4027),A
4247   1149 C9              RET
4248   114A             
4249   114A             ; -------------------------
4250   114A             ; THE 'SCANNING' SUBROUTINE
4251   114A             ; -------------------------
4252   114A             
4253   114A             ; SCANNING
4254   114A             SUB_114A:
4255   114A DF              RST 18H
4256   114B 06 00           LD B,$00
4257   114D C5              PUSH BC
4258   114E             
4259   114E             ; S-LOOP-1
4260   114E             L_114E:
4261   114E FE 43           CP $43
4262   1150 20 2F           JR NZ,L_1181
4263   1152             
4264   1152             ; ------------------
4265   1152             ; THE 'RND' FUNCTION
4266   1152             ; ------------------
4267   1152 CD 23 0F        CALL SUB_0F23
4268   1155 28 28           JR Z,L_117F
4269   1157 ED 4B 32 40     LD BC,($4032)
4270   115B CD 18 17        CALL SUB_1718
4271   115E EF              RST 28H                             ; FP-CALC
4272   115F A1              .BYTE $A1                           ; stk-one
4273   1160 0F              .BYTE $0F                           ; addition
4274   1161 30              .BYTE $30                           ; stk-data
4275   1162 37              .BYTE $37                           ; Exponent: $87, Bytes: 1
4276   1163 16              .BYTE $16                           ; (+00,+00,+00)
4277   1164 04              .BYTE $04                           ; multiply
4278   1165 30              .BYTE $30                           ; stk-data
4279   1166 80              .BYTE $80                           ; Bytes: 3
4280   1167 41              .BYTE $41                           ; Exponent $91
4281   1168 00 00 80        .BYTE $00,$00,$80                   ; (+00)
4282   116B 2E              .BYTE $2E                           ; n-mod-m
4283   116C 02              .BYTE $02                           ; delete
4284   116D A1              .BYTE $A1                           ; stk-one
4285   116E 03              .BYTE $03                           ; subtract
4286   116F 2D              .BYTE $2D                           ; duplicate
4287   1170 34              .BYTE $34                           ; end-calc
4288   1171 CD 82 17        CALL SUB_1782
4289   1174 ED 43 32 40     LD ($4032),BC
4290   1178 7E              LD A,(HL)
4291   1179 A7              AND A
4292   117A 28 03           JR Z,L_117F
4293   117C D6 10           SUB $10
4294   117E 77              LD (HL),A
4295   117F             L_117F:
4296   117F 18 0D           JR L_118E
4297   1181             
4298   1181             ; S-TEST-PI
4299   1181             L_1181:
4300   1181 FE 45           CP $45
4301   1183 20 0D           JR NZ,L_1192
4302   1185             
4303   1185             ; -------------------
4304   1185             ; THE 'PI' EVALUATION
4305   1185             ; -------------------
4306   1185             
4307   1185 CD 23 0F        CALL SUB_0F23
4308   1188 28 04           JR Z,L_118E
4309   118A EF              RST 28H                             ; FP-CALC
4310   118B A3              .BYTE $A3                           ; stk-pi/2
4311   118C 34              .BYTE $34                           ;end-calc
4312   118D 34              INC (HL)
4313   118E             
4314   118E             ; S-PI-END
4315   118E             L_118E:
4316   118E E7              RST 20H
4317   118F C3 78 12        JP L_1278
4318   1192             
4319   1192             
4320   1192             ; not S-TST-INK
4321   1192             L_1192:
4322   1192 FE 44           CP $44
4323   1194 20 11           JR NZ,L_11A7
4324   1196 CD 3D 03        CALL SUB_033D
4325   1199 44              LD B,H
4326   119A             L_119A:
4327   119A 4D              LD C,L
4328   119B 51              LD D,C
4329   119C 14              INC D
4330   119D C4 5E 09        CALL NZ,SUB_095E                    ; routine DECODE
4331   11A0 7A              LD A,D
4332   11A1 8A              ADC A,D
4333   11A2 42              LD B,D
4334   11A3 4F              LD C,A
4335   11A4 EB              EX DE,HL
4336   11A5 18 3B           JR L_11E2
4337   11A7             
4338   11A7             ; S-ALPHANUM
4339   11A7             L_11A7:
4340   11A7 CD CA 16        CALL SUB_16CA
4341   11AA 38 6E           JR C,L_121A
4342   11AC FE 1B           CP $1B
4343   11AE CA 3C 12        JP Z,L_123C
4344   11B1 01 D8 09        LD BC,$09D8
4345   11B4 FE 16           CP $16
4346   11B6 28 5D           JR Z,L_1215
4347   11B8 FE 10           CP $10
4348   11BA 20 0F           JR NZ,L_11CB
4349   11BC CD 4A 00        CALL INC_CH_ADD
4350   11BF CD 4A 11        CALL SUB_114A                       ; routine SCANNING
4351   11C2 FE 11           CP $11
4352   11C4 20 2E           JR NZ,L_11F4
4353   11C6 CD 4A 00        CALL INC_CH_ADD
4354   11C9 18 22           JR L_11ED
4355   11CB             
4356   11CB             ; S-QUOTE
4357   11CB             L_11CB:
4358   11CB FE 0B           CP $0B
4359   11CD 20 28           JR NZ,L_11F7
4360   11CF CD 4A 00        CALL INC_CH_ADD
4361   11D2 E5              PUSH HL
4362   11D3 18 03           JR L_11D8
4363   11D5             
4364   11D5             ; S-Q-AGAIN
4365   11D5             L_11D5:
4366   11D5 CD 4A 00        CALL INC_CH_ADD
4367   11D8             
4368   11D8             ; S-QUOTE-S
4369   11D8             L_11D8:
4370   11D8 FE 0B           CP $0B
4371   11DA 20 14           JR NZ,L_11F0
4372   11DC D1              POP DE
4373   11DD A7              AND A
4374   11DE ED 52           SBC HL,DE
4375   11E0 44              LD B,H
4376   11E1 4D              LD C,L
4377   11E2             
4378   11E2             ; S-STRING
4379   11E2             L_11E2:
4380   11E2 21 01 40        LD HL,$4001
4381   11E5 CB B6           RES 6,(HL)
4382   11E7 CB 7E           BIT 7,(HL)
4383   11E9 C4 B8 14        CALL NZ,SUB_14B8
4384   11EC E7              RST 20H
4385   11ED             
4386   11ED             ; S-J-CONT-3
4387   11ED             L_11ED:
4388   11ED C3 7D 12        JP L_127D
4389   11F0             
4390   11F0             ; S-Q-NL
4391   11F0             L_11F0:
4392   11F0 FE 76           CP $76
4393   11F2 20 E1           JR NZ,L_11D5
4394   11F4             
4395   11F4             ; S-RPT-C
4396   11F4             L_11F4:
4397   11F4 C3 17 0F        JP L_0F17                           ; to REPORT-C - Invalid Expression
4398   11F7             
4399   11F7             ; S-FUNCTION
4400   11F7             L_11F7:
4401   11F7 D6 C0           SUB $C0
4402   11F9 38 F9           JR C,L_11F4
4403   11FB 01 EC 04        LD BC,$04EC
4404   11FE FE 13           CP $13
4405   1200 28 13           JR Z,L_1215
4406   1202 30 F0           JR NC,L_11F4
4407   1204 06 10           LD B,$10
4408   1206 C6 D9           ADD A,$D9
4409   1208 4F              LD C,A
4410   1209 FE DC           CP $DC
4411   120B 30 02           JR NC,L_120F
4412   120D CB B1           RES 6,C
4413   120F             
4414   120F             ; S-NO-TO-$
4415   120F             L_120F:
4416   120F FE EA           CP $EA
4417   1211 38 02           JR C,L_1215
4418   1213 CB B9           RES 7,C
4419   1215             
4420   1215             ; S-PUSH-PO
4421   1215             L_1215:
4422   1215 C5              PUSH BC
4423   1216 E7              RST 20H
4424   1217 C3 4E 11        JP L_114E
4425   121A             
4426   121A             ; S-LTR-DGT
4427   121A             L_121A:
4428   121A FE 26           CP $26
4429   121C 38 1E           JR C,L_123C
4430   121E CD 11 13        CALL $1311
4431   1221 DA C8 0E        JP C,L_0EC8
4432   1224 CC 9C 13        CALL Z,SUB_139C
4433   1227 3A 01 40        LD A,($4001)
4434   122A FE C0           CP $C0
4435   122C 38 4E           JR C,L_127C
4436   122E 23              INC HL
4437   122F ED 5B 1C 40     LD DE,($401C)
4438   1233 CD ED 1B        CALL SUB_1BED
4439   1236 EB              EX DE,HL
4440   1237 22 1C 40        LD ($401C),HL
4441   123A 18 40           JR L_127C
4442   123C             
4443   123C             ; S-DECIMAL
4444   123C             L_123C:
4445   123C CD 23 0F        CALL SUB_0F23
4446   123F 20 23           JR NZ,L_1264
4447   1241 CD D1 16        CALL SUB_16D1
4448   1244 DF              RST 18H
4449   1245 01 06 00        LD BC,$0006
4450   1248 CD 30 0B        CALL SUB_0B30                       ; MAKE-ROOM
4451   124B 23              INC HL
4452   124C 36 7E           LD (HL),$7E
4453   124E 23              INC HL
4454   124F EB              EX DE,HL
4455   1250 2A 1C 40        LD HL,($401C)
4456   1253 0E 05           LD C,$05
4457   1255 A7              AND A
4458   1256 ED 42           SBC HL,BC
4459   1258 22 1C 40        LD ($401C),HL
4460   125B ED B0           LDIR
4461   125D EB              EX DE,HL
4462   125E 2B              DEC HL
4463   125F CD 4D 00        CALL TEMP_PTR1
4464   1262 18 14           JR L_1278
4465   1264             
4466   1264             ; S-STK-DEC
4467   1264             L_1264:
4468   1264 E7              RST 20H
4469   1265 FE 7E           CP $7E
4470   1267 20 FB           JR NZ,L_1264
4471   1269 23              INC HL
4472   126A ED 5B 1C 40     LD DE,($401C)
4473   126E CD ED 1B        CALL SUB_1BED
4474   1271 ED 53 1C 40     LD ($401C),DE
4475   1275 22 16 40        LD ($4016),HL                       ; CH.ADD - Address of next character to interpret
4476   1278             
4477   1278             ; S-NUMERIC
4478   1278             L_1278:
4479   1278 FD CB 01 F6     SET 6,(IY+$01)                      ; set FLAGS  - 1 = Numeric result
4480   127C             
4481   127C             ; S-CONT-2
4482   127C             L_127C:
4483   127C DF              RST 18H
4484   127D             
4485   127D             ; S-CONT-3
4486   127D             L_127D:
4487   127D FE 10           CP $10
4488   127F 20 0C           JR NZ,L_128D
4489   1281 FD CB 01 76     BIT 6,(IY+$01)                      ; check FLAGS - 0 = string or 1 = numeric result
4490   1285 20 2A           JR NZ,L_12B1
4491   1287 CD 58 14        CALL SUB_1458
4492   128A E7              RST 20H
4493   128B 18 F0           JR L_127D
4494   128D             
4495   128D             ; S-OPERTR
4496   128D             L_128D:
4497   128D 01 C3 00        LD BC,$00C3
4498   1290 FE 12           CP $12
4499   1292 38 1D           JR C,L_12B1
4500   1294 D6 16           SUB $16
4501   1296 30 04           JR NC,L_129C
4502   1298 C6 0D           ADD A,$0D
4503   129A 18 0E           JR L_12AA
4504   129C             
4505   129C             ; SUBMLTDIV
4506   129C             L_129C:
4507   129C FE 03           CP $03
4508   129E 38 0A           JR C,L_12AA
4509   12A0 D6 C0           SUB $C0
4510   12A2 38 0D           JR C,L_12B1
4511   12A4 FE 06           CP $06
4512   12A6 30 09           JR NC,L_12B1
4513   12A8 C6 03           ADD A,$03
4514   12AA             
4515   12AA             ; GET-PRIO
4516   12AA             L_12AA:
4517   12AA 81              ADD A,C
4518   12AB 4F              LD C,A
4519   12AC 21 41 12        LD HL, L_1304 - $C3                 ; offset to base of the priorities table (=$1241)
4520   12AF 09              ADD HL,BC
4521   12B0 46              LD B,(HL)
4522   12B1             
4523   12B1             ; S-LOOP
4524   12B1             L_12B1:
4525   12B1 D1              POP DE
4526   12B2 7A              LD A,D
4527   12B3 B8              CP B
4528   12B4 38 2C           JR C,L_12E2
4529   12B6 A7              AND A
4530   12B7 CA 18 00        JP Z,GET_CHAR                         ; Routine GET_CHAR
4531   12BA C5              PUSH BC
4532   12BB D5              PUSH DE
4533   12BC CD 23 0F        CALL SUB_0F23
4534   12BF 28 09           JR Z,L_12CA
4535   12C1 7B              LD A,E
4536   12C2 E6 3F           AND $3F
4537   12C4 47              LD B,A
4538   12C5 EF              RST 28H
4539   12C6 37              SCF
4540   12C7 34              INC (HL)
4541   12C8 18 09           JR L_12D3
4542   12CA             
4543   12CA             ; S-SYNTEST
4544   12CA             L_12CA:
4545   12CA 7B              LD A,E
4546   12CB FD AE 01        XOR (IY+$01)
4547   12CE E6 40           AND $40
4548   12D0             
4549   12D0             ; S-RPORT-C
4550   12D0             L_12D0:
4551   12D0 C2 17 0F        JP NZ,L_0F17                        ; to REPORT-C - Invalid Expression
4552   12D3             
4553   12D3             ; S-RUNTEST
4554   12D3             L_12D3:
4555   12D3 D1              POP DE
4556   12D4 21 01 40        LD HL,$4001
4557   12D7 CB F6           SET 6,(HL)
4558   12D9 CB 7B           BIT 7,E
4559   12DB 20 02           JR NZ,L_12DF
4560   12DD CB B6           RES 6,(HL)
4561   12DF             
4562   12DF             ; S-LOOPEND
4563   12DF             L_12DF:
4564   12DF C1              POP BC
4565   12E0 18 CF           JR L_12B1
4566   12E2             
4567   12E2             ; S-TIGHTER
4568   12E2             L_12E2:
4569   12E2 D5              PUSH DE
4570   12E3 79              LD A,C
4571   12E4 FD CB 01 76     BIT 6,(IY+$01)                      ; check FLAGS - 0 = string or 1 = numeric result
4572   12E8 20 15           JR NZ,L_12FF
4573   12EA E6 3F           AND $3F
4574   12EC C6 08           ADD A,$08
4575   12EE 4F              LD C,A
4576   12EF FE 10           CP $10
4577   12F1 20 04           JR NZ,L_12F7
4578   12F3 CB F1           SET 6,C
4579   12F5 18 08           JR L_12FF
4580   12F7             
4581   12F7             ; S-NOT-AND
4582   12F7             L_12F7:
4583   12F7 38 D7           JR C,L_12D0
4584   12F9 FE 17           CP $17
4585   12FB 28 02           JR Z,L_12FF
4586   12FD CB F9           SET 7,C
4587   12FF             
4588   12FF             ; S-NEXT
4589   12FF             L_12FF:
4590   12FF C5              PUSH BC
4591   1300 E7              RST 20H
4592   1301 C3 4E 11        JP L_114E
4593   1304             
4594   1304             ; -------------------------
4595   1304             ; THE 'TABLE OF PRIORITIES'
4596   1304             ; -------------------------
4597   1304             
4598   1304             ; tbl-pri
4599   1304             L_1304:
4600   1304 06              .BYTE $06                           ;       '-'
4601   1305 08              .BYTE $08                           ;       '*'
4602   1306 08              .BYTE $08                           ;       '/'
4603   1307 0A              .BYTE $0A                           ;       '**'
4604   1308 02              .BYTE $02                           ;       'OR'
4605   1309 03              .BYTE $03                           ;       'AND'
4606   130A 05              .BYTE $05                           ;       '<='
4607   130B 05              .BYTE $05                           ;       '>='
4608   130C 05              .BYTE $05                           ;       '<>'
4609   130D 05              .BYTE $05                           ;       '>'
4610   130E 05              .BYTE $05                           ;       '<'
4611   130F 05              .BYTE $05                           ;       '='
4612   1310 06              .BYTE $06                           ;       '+'
4613   1311             
4614   1311             
4615   1311             ; --------------------------
4616   1311             ; THE 'LOOK-VARS' SUBROUTINE
4617   1311             ; --------------------------
4618   1311             
4619   1311             ; LOOK-VARS
4620   1311             SUB_1311:
4621   1311 FD CB 01 F6     SET 6,(IY+$01)                      ; set FLAGS - 1 = numeric result
4622   1315 DF              RST 18H
4623   1316 CD C6 16        CALL SUB_16C6
4624   1319 D2 17 0F        JP NC,L_0F17                        ; to REPORT-C - Invalid Expression
4625   131C E5              PUSH HL
4626   131D 4F              LD C,A
4627   131E E7              RST 20H
4628   131F E5              PUSH HL
4629   1320 CB A9           RES 5,C
4630   1322 FE 10           CP $10
4631   1324 28 17           JR Z,L_133D
4632   1326 CB F1           SET 6,C
4633   1328 FE 0D           CP $0D
4634   132A 28 0C           JR Z,L_1338
4635   132C CB E9           SET 5,C
4636   132E             
4637   132E             ; V-CHAR
4638   132E             L_132E:
4639   132E CD CA 16        CALL SUB_16CA
4640   1331 30 0A           JR NC,L_133D
4641   1333 CB B1           RES 6,C
4642   1335 E7              RST 20H
4643   1336 18 F6           JR L_132E
4644   1338             
4645   1338             ; V-STR-VAR
4646   1338             L_1338:
4647   1338 E7              RST 20H
4648   1339 FD CB 01 B6     RES 6,(IY+$01)                      ; set FLAGS - 0 = string result
4649   133D             
4650   133D             ; V-RUN/SYN
4651   133D             L_133D:
4652   133D 41              LD B,C
4653   133E CD 23 0F        CALL SUB_0F23
4654   1341 20 08           JR NZ,L_134B
4655   1343 79              LD A,C
4656   1344 E6 E0           AND $E0
4657   1346 CB FF           SET 7,A
4658   1348 4F              LD C,A
4659   1349 18 34           JR L_137F
4660   134B             
4661   134B             ; V-RUN
4662   134B             L_134B:
4663   134B 2A 10 40        LD HL,($4010)
4664   134E             
4665   134E             ; V-EACH
4666   134E             L_134E:
4667   134E 7E              LD A,(HL)
4668   134F E6 7F           AND $7F
4669   1351 28 2A           JR Z,L_137D
4670   1353 B9              CP C
4671   1354 20 1F           JR NZ,L_1375
4672   1356 17              RLA
4673   1357 87              ADD A,A
4674   1358 F2 8A 13        JP P,L_138A
4675   135B 38 2D           JR C,L_138A
4676   135D D1              POP DE
4677   135E D5              PUSH DE
4678   135F E5              PUSH HL
4679   1360             
4680   1360             ; V-MATCHES
4681   1360             L_1360:
4682   1360 23              INC HL
4683   1361             
4684   1361             ; V-SPACES
4685   1361             L_1361:
4686   1361 1A              LD A,(DE)
4687   1362 13              INC DE
4688   1363 A7              AND A
4689   1364 28 FB           JR Z,L_1361
4690   1366 BE              CP (HL)
4691   1367 28 F7           JR Z,L_1360
4692   1369 F6 80           OR $80
4693   136B BE              CP (HL)
4694   136C 20 06           JR NZ,L_1374
4695   136E 1A              LD A,(DE)
4696   136F CD CA 16        CALL SUB_16CA
4697   1372 30 15           JR NC,L_1389
4698   1374             
4699   1374             ; V-GET-PTR
4700   1374             L_1374:
4701   1374 E1              POP HL
4702   1375             
4703   1375             ; V-NEXT
4704   1375             L_1375:
4705   1375 C5              PUSH BC
4706   1376 CD 84 0B        CALL SUB_0B84
4707   1379 EB              EX DE,HL
4708   137A C1              POP BC
4709   137B 18 D1           JR L_134E
4710   137D             
4711   137D             ; V-80-BYTE
4712   137D             L_137D:
4713   137D CB F8           SET 7,B
4714   137F             
4715   137F             ; V-SYNTAX
4716   137F             L_137F:
4717   137F D1              POP DE
4718   1380 DF              RST 18H
4719   1381 FE 10           CP $10
4720   1383 28 09           JR Z,L_138E
4721   1385 CB E8           SET 5,B
4722   1387 18 0D           JR L_1396
4723   1389             
4724   1389             ; V-FOUND-1
4725   1389             L_1389:
4726   1389 D1              POP DE
4727   138A             
4728   138A             ; V-FOUND-2
4729   138A             L_138A:
4730   138A D1              POP DE
4731   138B D1              POP DE
4732   138C E5              PUSH HL
4733   138D DF              RST 18H
4734   138E             
4735   138E             ; V-PASS
4736   138E             L_138E:
4737   138E CD CA 16        CALL SUB_16CA
4738   1391 30 03           JR NC,L_1396
4739   1393 E7              RST 20H
4740   1394 18 F8           JR L_138E
4741   1396             
4742   1396             ; V-END
4743   1396             L_1396:
4744   1396 E1              POP HL
4745   1397 CB 10           RL B
4746   1399 CB 70           BIT 6,B
4747   139B C9              RET
4748   139C             
4749   139C             ; ------------------------
4750   139C             ; THE 'STK-VAR' SUBROUTINE
4751   139C             ; ------------------------
4752   139C             
4753   139C             ; STK-VAR
4754   139C             SUB_139C:
4755   139C AF              XOR A
4756   139D 47              LD B,A
4757   139E CB 79           BIT 7,C
4758   13A0 20 4B           JR NZ,L_13ED
4759   13A2 CB 7E           BIT 7,(HL)
4760   13A4 20 0E           JR NZ,L_13B4
4761   13A6 3C              INC A
4762   13A7             
4763   13A7             ; SV-SIMPLE$
4764   13A7             L_13A7:
4765   13A7 23              INC HL
4766   13A8 4E              LD C,(HL)
4767   13A9 23              INC HL
4768   13AA 46              LD B,(HL)
4769   13AB 23              INC HL
4770   13AC EB              EX DE,HL
4771   13AD CD B8 14        CALL SUB_14B8
4772   13B0 DF              RST 18H
4773   13B1 C3 4F 14        JP L_144F
4774   13B4             
4775   13B4             ; SV-ARRAYS
4776   13B4             L_13B4:
4777   13B4 23              INC HL
4778   13B5 23              INC HL
4779   13B6 23              INC HL
4780   13B7 46              LD B,(HL)
4781   13B8 CB 71           BIT 6,C
4782   13BA 28 0A           JR Z,L_13C6
4783   13BC 05              DEC B
4784   13BD 28 E8           JR Z,L_13A7
4785   13BF EB              EX DE,HL
4786   13C0 DF              RST 18H
4787   13C1 FE 10           CP $10
4788   13C3 20 61           JR NZ,L_1426
4789   13C5 EB              EX DE,HL
4790   13C6             
4791   13C6             ; SV-PTR
4792   13C6             L_13C6:
4793   13C6 EB              EX DE,HL
4794   13C7 18 24           JR L_13ED
4795   13C9             
4796   13C9             ; SV-COMMA
4797   13C9             L_13C9:
4798   13C9 E5              PUSH HL
4799   13CA DF              RST 18H
4800   13CB E1              POP HL
4801   13CC FE 1A           CP $1A
4802   13CE 28 20           JR Z,L_13F0
4803   13D0 CB 79           BIT 7,C
4804   13D2 28 52           JR Z,L_1426
4805   13D4 CB 71           BIT 6,C
4806   13D6 20 06           JR NZ,L_13DE
4807   13D8 FE 11           CP $11
4808   13DA 20 3C           JR NZ,L_1418
4809   13DC E7              RST 20H
4810   13DD C9              RET
4811   13DE             
4812   13DE             ; SV-CLOSE
4813   13DE             L_13DE:
4814   13DE FE 11           CP $11
4815   13E0 28 6C           JR Z,L_144E
4816   13E2 FE 41           CP $41
4817   13E4 20 32           JR NZ,L_1418
4818   13E6             
4819   13E6             ; SV-CH-ADD
4820   13E6             L_13E6:
4821   13E6 DF              RST 18H
4822   13E7 2B              DEC HL
4823   13E8 22 16 40        LD ($4016),HL                       ; CH.ADD - Address of next character to interpret
4824   13EB 18 5E           JR L_144B
4825   13ED             
4826   13ED             ; SV-COUNT
4827   13ED             L_13ED:
4828   13ED 21 00 00        LD HL,$0000
4829   13F0             
4830   13F0             ; SV-LOOP
4831   13F0             L_13F0:
4832   13F0 E5              PUSH HL
4833   13F1 E7              RST 20H
4834   13F2 E1              POP HL
4835   13F3 79              LD A,C
4836   13F4 FE C0           CP $C0
4837   13F6 20 09           JR NZ,L_1401
4838   13F8 DF              RST 18H
4839   13F9 FE 11           CP $11
4840   13FB 28 51           JR Z,L_144E
4841   13FD FE 41           CP $41
4842   13FF 28 E5           JR Z,L_13E6
4843   1401             
4844   1401             ; SV-MULT
4845   1401             L_1401:
4846   1401 C5              PUSH BC
4847   1402 E5              PUSH HL
4848   1403 CD F4 14        CALL SUB_14F4
4849   1406 E3              EX (SP),HL
4850   1407 EB              EX DE,HL
4851   1408 CD D2 14        CALL SUB_14D2
4852   140B 38 19           JR C,L_1426
4853   140D 0B              DEC BC
4854   140E CD FA 14        CALL SUB_14FA
4855   1411 09              ADD HL,BC
4856   1412 D1              POP DE
4857   1413 C1              POP BC
4858   1414 10 B3           DJNZ L_13C9
4859   1416 CB 79           BIT 7,C
4860   1418             
4861   1418             ; SV-RPT-C
4862   1418             L_1418:
4863   1418 20 66           JR NZ,L_1480
4864   141A E5              PUSH HL
4865   141B CB 71           BIT 6,C
4866   141D 20 13           JR NZ,L_1432
4867   141F 42              LD B,D
4868   1420 4B              LD C,E
4869   1421 DF              RST 18H
4870   1422 FE 11           CP $11
4871   1424 28 02           JR Z,L_1428
4872   1426             
4873   1426             ; REPORT-3
4874   1426             L_1426:
4875   1426 CF              RST 08H                             ; ERROR-1
4876   1427 02              .BYTE $02                           ; BS - Bad Subscript
4877   1428             
4878   1428             ; SV-NUMBER
4879   1428             L_1428:
4880   1428 E7              RST 20H
4881   1429 E1              POP HL
4882   142A 11 05 00        LD DE,$0005
4883   142D CD FA 14        CALL SUB_14FA
4884   1430 09              ADD HL,BC
4885   1431 C9              RET
4886   1432             
4887   1432             ; SV-ELEM$
4888   1432             L_1432:
4889   1432 CD F4 14        CALL SUB_14F4
4890   1435 E3              EX (SP),HL
4891   1436 CD FA 14        CALL SUB_14FA
4892   1439 C1              POP BC
4893   143A 09              ADD HL,BC
4894   143B 23              INC HL
4895   143C 42              LD B,D
4896   143D 4B              LD C,E
4897   143E EB              EX DE,HL
4898   143F CD B7 14        CALL SUB_14B7
4899   1442 DF              RST 18H
4900   1443 FE 11           CP $11
4901   1445 28 07           JR Z,L_144E
4902   1447 FE 1A           CP $1A
4903   1449 20 DB           JR NZ,L_1426
4904   144B             
4905   144B             ; SV-SLICE
4906   144B             L_144B:
4907   144B CD 58 14        CALL SUB_1458
4908   144E             
4909   144E             ; SV-DIM
4910   144E             L_144E:
4911   144E E7              RST 20H
4912   144F             
4913   144F             ; SV-SLICE?
4914   144F             L_144F:
4915   144F FE 10           CP $10
4916   1451 28 F8           JR Z,L_144B
4917   1453 FD CB 01 B6     RES 6,(IY+$01)                      ; set FLAGS - 0 = string result
4918   1457 C9              RET
4919   1458             
4920   1458             ; ------------------------
4921   1458             ; THE 'SLICING' SUBROUTINE
4922   1458             ; ------------------------
4923   1458             
4924   1458             ; SLICING
4925   1458             SUB_1458:
4926   1458 CD 23 0F        CALL SUB_0F23
4927   145B C4 ED 15        CALL NZ,SUB_15ED                    ; routine STK-FETCH
4928   145E E7              RST 20H
4929   145F FE 11           CP $11
4930   1461 28 50           JR Z,L_14B3
4931   1463 D5              PUSH DE
4932   1464 AF              XOR A
4933   1465 F5              PUSH AF
4934   1466 C5              PUSH BC
4935   1467 11 01 00        LD DE,$0001
4936   146A DF              RST 18H
4937   146B E1              POP HL
4938   146C FE 41           CP $41
4939   146E 28 17           JR Z,L_1487
4940   1470 F1              POP AF
4941   1471 CD D3 14        CALL SUB_14D3
4942   1474 F5              PUSH AF
4943   1475 50              LD D,B
4944   1476 59              LD E,C
4945   1477 E5              PUSH HL
4946   1478 DF              RST 18H
4947   1479 E1              POP HL
4948   147A FE 41           CP $41
4949   147C 28 09           JR Z,L_1487
4950   147E FE 11           CP $11
4951   1480             
4952   1480             ; SL-RPT-C
4953   1480             L_1480:
4954   1480 C2 17 0F        JP NZ,L_0F17                        ; to REPORT-C - Invalid Expression
4955   1483 62              LD H,D
4956   1484 6B              LD L,E
4957   1485 18 13           JR L_149A
4958   1487             
4959   1487             ; SL-SECOND
4960   1487             L_1487:
4961   1487 E5              PUSH HL
4962   1488 E7              RST 20H
4963   1489 E1              POP HL
4964   148A FE 11           CP $11
4965   148C 28 0C           JR Z,L_149A
4966   148E F1              POP AF
4967   148F CD D3 14        CALL SUB_14D3
4968   1492 F5              PUSH AF
4969   1493 DF              RST 18H
4970   1494 60              LD H,B
4971   1495 69              LD L,C
4972   1496 FE 11           CP $11
4973   1498 20 E6           JR NZ,L_1480
4974   149A             
4975   149A             ; SL-DEFINE
4976   149A             L_149A:
4977   149A F1              POP AF
4978   149B E3              EX (SP),HL
4979   149C 19              ADD HL,DE
4980   149D 2B              DEC HL
4981   149E E3              EX (SP),HL
4982   149F A7              AND A
4983   14A0 ED 52           SBC HL,DE
4984   14A2 01 00 00        LD BC,$0000
4985   14A5 38 07           JR C,L_14AE
4986   14A7 23              INC HL
4987   14A8 A7              AND A
4988   14A9 FA 26 14        JP M,L_1426
4989   14AC 44              LD B,H
4990   14AD 4D              LD C,L
4991   14AE             
4992   14AE             ; SL-OVER
4993   14AE             L_14AE:
4994   14AE D1              POP DE
4995   14AF FD CB 01 B6     RES 6,(IY+$01)                      ; set FLAGS - 0 = string result
4996   14B3             
4997   14B3             ; SL-STORE
4998   14B3             L_14B3:
4999   14B3 CD 23 0F        CALL SUB_0F23
5000   14B6 C8              RET Z
5001   14B7             
5002   14B7             ; --------------------------
5003   14B7             ; THE 'STK-STORE' SUBROUTINE
5004   14B7             ; --------------------------
5005   14B7             
5006   14B7             ; STK-ST-0
5007   14B7             SUB_14B7:
5008   14B7 AF              XOR A
5009   14B8             
5010   14B8             ; STK-STO-$
5011   14B8             SUB_14B8:
5012   14B8 C5              PUSH BC
5013   14B9 CD E2 1B        CALL SUB_1BE2
5014   14BC C1              POP BC
5015   14BD 2A 1C 40        LD HL,($401C)
5016   14C0 77              LD (HL),A
5017   14C1 23              INC HL
5018   14C2 73              LD (HL),E
5019   14C3 23              INC HL
5020   14C4 72              LD (HL),D
5021   14C5 23              INC HL
5022   14C6 71              LD (HL),C
5023   14C7 23              INC HL
5024   14C8 70              LD (HL),B
5025   14C9 23              INC HL
5026   14CA 22 1C 40        LD ($401C),HL
5027   14CD FD CB 01 B6     RES 6,(IY+$01)                      ; set FLAGS - 0 = string result
5028   14D1 C9              RET
5029   14D2             
5030   14D2             ; -------------------------
5031   14D2             ; THE 'INT EXP' SUBROUTINES
5032   14D2             ; -------------------------
5033   14D2             
5034   14D2             ; INT-EXP1
5035   14D2             SUB_14D2:
5036   14D2 AF              XOR A
5037   14D3             
5038   14D3             ; INT-EXP2
5039   14D3             SUB_14D3:
5040   14D3 D5              PUSH DE
5041   14D4 E5              PUSH HL
5042   14D5 F5              PUSH AF
5043   14D6 CD 0F 0F        CALL SUB_0F0F
5044   14D9 F1              POP AF
5045   14DA CD 23 0F        CALL SUB_0F23
5046   14DD 28 12           JR Z,L_14F1
5047   14DF F5              PUSH AF
5048   14E0 CD 88 10        CALL SUB_1088
5049   14E3 D1              POP DE
5050   14E4 78              LD A,B
5051   14E5 B1              OR C
5052   14E6 37              SCF
5053   14E7 28 05           JR Z,L_14EE
5054   14E9 E1              POP HL
5055   14EA E5              PUSH HL
5056   14EB A7              AND A
5057   14EC ED 42           SBC HL,BC
5058   14EE             
5059   14EE             ; I-CARRY
5060   14EE             L_14EE:
5061   14EE 7A              LD A,D
5062   14EF DE 00           SBC A,$00
5063   14F1             
5064   14F1             ; I-RESTORE
5065   14F1             L_14F1:
5066   14F1 E1              POP HL
5067   14F2 D1              POP DE
5068   14F3 C9              RET
5069   14F4             
5070   14F4             ; --------------------------
5071   14F4             ; THE 'DE,(DE+1)' SUBROUTINE
5072   14F4             ; --------------------------
5073   14F4             
5074   14F4             ; DE,(DE+1)
5075   14F4             SUB_14F4:
5076   14F4 EB              EX DE,HL
5077   14F5 23              INC HL
5078   14F6 5E              LD E,(HL)
5079   14F7 23              INC HL
5080   14F8 56              LD D,(HL)
5081   14F9 C9              RET
5082   14FA             
5083   14FA             ; --------------------------
5084   14FA             ; THE 'GET-HL*DE' SUBROUTINE
5085   14FA             ; --------------------------
5086   14FA             
5087   14FA             ; GET-HL*DE
5088   14FA             SUB_14FA:
5089   14FA CD 23 0F        CALL SUB_0F23
5090   14FD C8              RET Z
5091   14FE C5              PUSH BC
5092   14FF 06 10           LD B,$10
5093   1501 7C              LD A,H
5094   1502 4D              LD C,L
5095   1503 21 00 00        LD HL,$0000
5096   1506             
5097   1506             ; HL-LOOP
5098   1506             L_1506:
5099   1506 29              ADD HL,HL
5100   1507 38 06           JR C,L_150F
5101   1509 CB 11           RL C
5102   150B 17              RLA
5103   150C 30 04           JR NC,L_1512
5104   150E 19              ADD HL,DE
5105   150F             
5106   150F             ; HL-END
5107   150F             L_150F:
5108   150F DA AE 10        JP C,L_10AE
5109   1512             
5110   1512             ; HL-AGAIN
5111   1512             L_1512:
5112   1512 10 F2           DJNZ L_1506
5113   1514 C1              POP BC
5114   1515 C9              RET
5115   1516             
5116   1516             ; --------------------
5117   1516             ; THE 'LET' SUBROUTINE
5118   1516             ; --------------------
5119   1516             
5120   1516             ; LET
5121   1516             L_1516:
5122   1516 2A 12 40        LD HL,($4012)
5123   1519 FD CB 2D 4E     BIT 1,(IY+$2D)
5124   151D 28 44           JR Z,L_1563
5125   151F 01 05 00        LD BC,$0005
5126   1522             
5127   1522             ; L-EACH-CH
5128   1522             L_1522:
5129   1522 03              INC BC
5130   1523             
5131   1523             ; L-NO-SP
5132   1523             L_1523:
5133   1523 23              INC HL
5134   1524 7E              LD A,(HL)
5135   1525 A7              AND A
5136   1526 28 FB           JR Z,L_1523
5137   1528 CD CA 16        CALL SUB_16CA
5138   152B 38 F5           JR C,L_1522
5139   152D FE 0D           CP $0D
5140   152F CA BD 15        JP Z,L_15BD
5141   1532 F7              RST 30H
5142   1533 D5              PUSH DE
5143   1534 2A 12 40        LD HL,($4012)
5144   1537 1B              DEC DE
5145   1538 79              LD A,C
5146   1539 D6 06           SUB $06
5147   153B 47              LD B,A
5148   153C 3E 40           LD A,$40
5149   153E 28 0E           JR Z,L_154E
5150   1540             
5151   1540             ; L-CHAR
5152   1540             L_1540:
5153   1540 23              INC HL
5154   1541 7E              LD A,(HL)
5155   1542 A7              AND A
5156   1543 28 FB           JR Z,L_1540
5157   1545 13              INC DE
5158   1546 12              LD (DE),A
5159   1547 10 F7           DJNZ L_1540
5160   1549 F6 80           OR $80
5161   154B 12              LD (DE),A
5162   154C 3E 80           LD A,$80
5163   154E             
5164   154E             ; L-SINGLE
5165   154E             L_154E:
5166   154E 2A 12 40        LD HL,($4012)
5167   1551 AE              XOR (HL)
5168   1552 E1              POP HL
5169   1553 CD DC 15        CALL SUB_15DC
5170   1556             
5171   1556             ; L-NUMERIC
5172   1556             L_1556:
5173   1556 E5              PUSH HL
5174   1557 EF              RST 28H
5175   1558 02              LD (BC),A
5176   1559 34              INC (HL)
5177   155A E1              POP HL
5178   155B 01 05 00        LD BC,$0005
5179   155E A7              AND A
5180   155F ED 42           SBC HL,BC
5181   1561 18 40           JR L_15A3
5182   1563             
5183   1563             ; L-EXISTS
5184   1563             L_1563:
5185   1563 FD CB 01 76     BIT 6,(IY+$01)                      ; check FLAGS - 0 = string or 1 = numeric result
5186   1567 28 06           JR Z,L_156F
5187   1569 11 06 00        LD DE,$0006
5188   156C 19              ADD HL,DE
5189   156D 18 E7           JR L_1556
5190   156F             
5191   156F             ; L-DELETE$
5192   156F             L_156F:
5193   156F 2A 12 40        LD HL,($4012)
5194   1572 ED 4B 2E 40     LD BC,($402E)
5195   1576 FD CB 2D 46     BIT 0,(IY+$2D)
5196   157A 20 30           JR NZ,L_15AC
5197   157C 78              LD A,B
5198   157D B1              OR C
5199   157E C8              RET Z
5200   157F E5              PUSH HL
5201   1580 F7              RST 30H
5202   1581 D5              PUSH DE
5203   1582 C5              PUSH BC
5204   1583 54              LD D,H
5205   1584 5D              LD E,L
5206   1585 23              INC HL
5207   1586 36 00           LD (HL),$00
5208   1588 ED B8           LDDR
5209   158A E5              PUSH HL
5210   158B CD ED 15        CALL SUB_15ED                       ; routine STK-FETCH
5211   158E E1              POP HL
5212   158F E3              EX (SP),HL
5213   1590 A7              AND A
5214   1591 ED 42           SBC HL,BC
5215   1593 09              ADD HL,BC
5216   1594 30 02           JR NC,L_1598
5217   1596 44              LD B,H
5218   1597 4D              LD C,L
5219   1598             
5220   1598             ; L-LENGTH
5221   1598             L_1598:
5222   1598 E3              EX (SP),HL
5223   1599 EB              EX DE,HL
5224   159A 78              LD A,B
5225   159B B1              OR C
5226   159C 28 02           JR Z,L_15A0
5227   159E ED B0           LDIR
5228   15A0             
5229   15A0             ; L-IN-W/S
5230   15A0             L_15A0:
5231   15A0 C1              POP BC
5232   15A1 D1              POP DE
5233   15A2 E1              POP HL
5234   15A3             
5235   15A3             ; L-ENTER
5236   15A3             L_15A3:
5237   15A3 EB              EX DE,HL
5238   15A4 78              LD A,B
5239   15A5 B1              OR C
5240   15A6 C8              RET Z
5241   15A7 D5              PUSH DE
5242   15A8 ED B0           LDIR
5243   15AA E1              POP HL
5244   15AB C9              RET
5245   15AC             
5246   15AC             ; L-ADD$
5247   15AC             L_15AC:
5248   15AC 2B              DEC HL
5249   15AD 2B              DEC HL
5250   15AE 2B              DEC HL
5251   15AF 7E              LD A,(HL)
5252   15B0 E5              PUSH HL
5253   15B1 C5              PUSH BC
5254   15B2 CD C3 15        CALL SUB_15C3
5255   15B5 C1              POP BC
5256   15B6 E1              POP HL
5257   15B7 03              INC BC
5258   15B8 03              INC BC
5259   15B9 03              INC BC
5260   15BA C3 F5 0B        JP SUB_0BF5                         ; routine RECLAIM-2
5261   15BD             
5262   15BD             ; L-NEWS
5263   15BD             L_15BD:
5264   15BD 3E 60           LD A,$60
5265   15BF 2A 12 40        LD HL,($4012)
5266   15C2 AE              XOR (HL)
5267   15C3             
5268   15C3             ; L-STRING
5269   15C3             SUB_15C3:
5270   15C3 F5              PUSH AF
5271   15C4 CD ED 15        CALL SUB_15ED                       ; routine STK-FETCH
5272   15C7 EB              EX DE,HL
5273   15C8 09              ADD HL,BC
5274   15C9 E5              PUSH HL
5275   15CA 03              INC BC
5276   15CB 03              INC BC
5277   15CC 03              INC BC
5278   15CD F7              RST 30H
5279   15CE EB              EX DE,HL
5280   15CF E1              POP HL
5281   15D0 0B              DEC BC
5282   15D1 0B              DEC BC
5283   15D2 C5              PUSH BC
5284   15D3 ED B8           LDDR
5285   15D5 EB              EX DE,HL
5286   15D6 C1              POP BC
5287   15D7 0B              DEC BC
5288   15D8 70              LD (HL),B
5289   15D9 2B              DEC HL
5290   15DA 71              LD (HL),C
5291   15DB F1              POP AF
5292   15DC             
5293   15DC             ; L-FIRST
5294   15DC             SUB_15DC:
5295   15DC F5              PUSH AF
5296   15DD CD BF 16        CALL SUB_16BF
5297   15E0 F1              POP AF
5298   15E1 2B              DEC HL
5299   15E2 77              LD (HL),A
5300   15E3 2A 1A 40        LD HL,($401A)
5301   15E6 22 14 40        LD ($4014),HL
5302   15E9 2B              DEC HL
5303   15EA 36 80           LD (HL),$80
5304   15EC C9              RET
5305   15ED             
5306   15ED             ; --------------------------
5307   15ED             ; THE 'STK-FETCH' SUBROUTINE
5308   15ED             ; --------------------------
5309   15ED             ; For a floating-point number the exponent is in A and the mantissa
5310   15ED             ; is the thirty-two bits EDCB.
5311   15ED             ; For strings, the start of the string is in DE and the length in BC.
5312   15ED             ; A is unused.
5313   15ED             
5314   15ED             ; STK-FETCH
5315   15ED             SUB_15ED:
5316   15ED 2A 1C 40        LD HL,($401C)
5317   15F0 2B              DEC HL
5318   15F1 46              LD B,(HL)
5319   15F2 2B              DEC HL
5320   15F3 4E              LD C,(HL)
5321   15F4 2B              DEC HL
5322   15F5 56              LD D,(HL)
5323   15F6 2B              DEC HL
5324   15F7 5E              LD E,(HL)
5325   15F8 2B              DEC HL
5326   15F9 7E              LD A,(HL)
5327   15FA 22 1C 40        LD ($401C),HL
5328   15FD C9              RET
5329   15FE             
5330   15FE             ; -------------------------
5331   15FE             ; THE 'DIM' COMMAND ROUTINE
5332   15FE             ; -------------------------
5333   15FE             
5334   15FE             ; DIM
5335   15FE             SUB_15FE
5336   15FE CD 11 13        CALL SUB_1311                       ; LOOK-VARS
5337   1601             
5338   1601             ; D-RPORT-C
5339   1601             L_1601:
5340   1601 C2 17 0F        JP NZ,L_0F17                        ; to REPORT-C - Invalid Expression
5341   1604 CD 23 0F        CALL SUB_0F23
5342   1607 20 08           JR NZ,L_1611
5343   1609 CB B1           RES 6,C
5344   160B CD 9C 13        CALL SUB_139C
5345   160E CD 9A 0E        CALL SUB_0E9A                       ; routine CHECK-END
5346   1611             
5347   1611             ; D-RUN
5348   1611             L_1611:
5349   1611 38 08           JR C,L_161B
5350   1613 C5              PUSH BC
5351   1614 CD 84 0B        CALL SUB_0B84
5352   1617 CD F5 0B        CALL SUB_0BF5                       ; routine RECLAIM-2
5353   161A C1              POP BC
5354   161B             
5355   161B             ; D-LETTER
5356   161B             L_161B:
5357   161B CB F9           SET 7,C
5358   161D 06 00           LD B,$00
5359   161F C5              PUSH BC
5360   1620 21 01 00        LD HL,$0001
5361   1623 CB 71           BIT 6,C
5362   1625 20 02           JR NZ,L_1629
5363   1627 2E 05           LD L,$05
5364   1629             
5365   1629             ; D-SIZE
5366   1629             L_1629:
5367   1629 EB              EX DE,HL
5368   162A             
5369   162A             ; D-NO-LOOP
5370   162A             L_162A:
5371   162A E7              RST 20H
5372   162B 26 40           LD H,$40
5373   162D CD D2 14        CALL SUB_14D2
5374   1630 DA 26 14        JP C,L_1426
5375   1633 E1              POP HL
5376   1634 C5              PUSH BC
5377   1635 24              INC H
5378   1636 E5              PUSH HL
5379   1637 60              LD H,B
5380   1638 69              LD L,C
5381   1639 CD FA 14        CALL SUB_14FA
5382   163C EB              EX DE,HL
5383   163D DF              RST 18H
5384   163E FE 1A           CP $1A
5385   1640 28 E8           JR Z,L_162A
5386   1642 FE 11           CP $11
5387   1644 20 BB           JR NZ,L_1601
5388   1646 E7              RST 20H
5389   1647 C1              POP BC
5390   1648 79              LD A,C
5391   1649 68              LD L,B
5392   164A 26 00           LD H,$00
5393   164C 23              INC HL
5394   164D 23              INC HL
5395   164E 29              ADD HL,HL
5396   164F 19              ADD HL,DE
5397   1650 DA AE 10        JP C,L_10AE
5398   1653 D5              PUSH DE
5399   1654 C5              PUSH BC
5400   1655 E5              PUSH HL
5401   1656 44              LD B,H
5402   1657 4D              LD C,L
5403   1658 2A 14 40        LD HL,($4014)
5404   165B 2B              DEC HL
5405   165C CD 30 0B        CALL SUB_0B30
5406   165F 23              INC HL
5407   1660 77              LD (HL),A
5408   1661 C1              POP BC
5409   1662 0B              DEC BC
5410   1663 0B              DEC BC
5411   1664 0B              DEC BC
5412   1665 23              INC HL
5413   1666 71              LD (HL),C
5414   1667 23              INC HL
5415   1668 70              LD (HL),B
5416   1669 F1              POP AF
5417   166A 23              INC HL
5418   166B 77              LD (HL),A
5419   166C 62              LD H,D
5420   166D 6B              LD L,E
5421   166E 1B              DEC DE
5422   166F 36 00           LD (HL),$00
5423   1671 C1              POP BC
5424   1672 ED B8           LDDR
5425   1674             
5426   1674             ; DIM-SIZES
5427   1674             L_1674:
5428   1674 C1              POP BC
5429   1675 70              LD (HL),B
5430   1676 2B              DEC HL
5431   1677 71              LD (HL),C
5432   1678 2B              DEC HL
5433   1679 3D              DEC A
5434   167A 20 F8           JR NZ,L_1674
5435   167C C9              RET
5436   167D             
5437   167D             ; RESERVE
5438   167D             L_167D:
5439   167D 2A 1A 40        LD HL,($401A)                       ; address STKBOT
5440   1680 2B              DEC HL
5441   1681 CD 30 0B        CALL SUB_0B30                       ; routine MAKE-ROOM
5442   1684 23              INC HL
5443   1685 23              INC HL
5444   1686 C1              POP BC
5445   1687 ED 43 14 40     LD ($4014),BC
5446   168B C1              POP BC
5447   168C EB              EX DE,HL
5448   168D 23              INC HL
5449   168E C9              RET
5450   168F             
5451   168F             
5452   168F             ; -------------------------
5453   168F             ; THE 'RUN' COMMAND ROUTINE
5454   168F             ; -------------------------
5455   168F             
5456   168F             ; RUN
5457   168F             SUB_168F:
5458   168F CD 68 10        CALL SUB_1068                       ; GOTO with implied 0
5459   1692             
5460   1692             ; ---------------------------
5461   1692             ; THE 'CLEAR' COMMAND ROUTINE
5462   1692             ; ---------------------------
5463   1692             
5464   1692             ; CLEAR
5465   1692             SUB_1692:
5466   1692 2A 10 40        LD HL,($4010)
5467   1695 36 80           LD (HL),$80
5468   1697 23              INC HL
5469   1698 22 14 40        LD ($4014),HL
5470   169B             
5471   169B             ; X-TEMP
5472   169B             SUB_169B:
5473   169B 2A 14 40        LD HL,($4014)                       ; save E_LINE_lo
5474   169E             
5475   169E             ; set STK-B
5476   169E             SUB_169E:
5477   169E 22 1A 40        LD ($401A),HL                       ; save STKBOT
5478   16A1             
5479   16A1             ; set STK-E
5480   16A1             L_16A1:
5481   16A1 22 1C 40        LD ($401C),HL                       ; save STKEND
5482   16A4 C9              RET
5483   16A5             
5484   16A5             ; -----------------------
5485   16A5             ; THE 'CURSOR-IN' ROUTINE
5486   16A5             ; -----------------------
5487   16A5             
5488   16A5             ; CURSOR-IN
5489   16A5             SUB_16A5:
5490   16A5 2A 14 40        LD HL,($4014)
5491   16A8 36 7F           LD (HL),$7F
5492   16AA 23              INC HL
5493   16AB 36 76           LD (HL),$76
5494   16AD 23              INC HL
5495   16AE FD 36 22 02     LD (IY+$22),$02
5496   16B2 18 EA           JR SUB_169E
5497   16B4             
5498   16B4             ; ------------------------
5499   16B4             ; THE 'SET-MIN' SUBROUTINE
5500   16B4             ; ------------------------
5501   16B4             
5502   16B4             ; SET-MIN
5503   16B4             L_16B4:
5504   16B4 21 5D 40        LD HL,$405D
5505   16B7 22 1F 40        LD ($401F),HL
5506   16BA 2A 1A 40        LD HL,($401A)
5507   16BD 18 E2           JR L_16A1
5508   16BF             
5509   16BF             ; ------------------------------------
5510   16BF             ; THE 'RECLAIM THE END-MARKER' ROUTINE
5511   16BF             ; ------------------------------------
5512   16BF             
5513   16BF             ; REC-V80
5514   16BF             SUB_16BF:
5515   16BF ED 5B 14 40     LD DE,($4014)
5516   16C3 C3 F2 0B        JP SUB_0BF2
5517   16C6             
5518   16C6             ; ----------------------
5519   16C6             ; THE 'ALPHA' SUBROUTINE
5520   16C6             ; ----------------------
5521   16C6             
5522   16C6             ; ALPHA
5523   16C6             SUB_16C6:
5524   16C6 FE 26           CP $26
5525   16C8 18 02           JR L_16CC
5526   16CA             
5527   16CA             ; -------------------------
5528   16CA             ; THE 'ALPHANUM' SUBROUTINE
5529   16CA             ; -------------------------
5530   16CA             
5531   16CA             ; ALPHANUM
5532   16CA             SUB_16CA:
5533   16CA FE 1C           CP $1C
5534   16CC             
5535   16CC             ; ALPHA-2
5536   16CC             L_16CC:
5537   16CC 3F              CCF
5538   16CD D0              RET NC
5539   16CE FE 40           CP $40
5540   16D0 C9              RET
5541   16D1             
5542   16D1             ; ------------------------------------------
5543   16D1             ; THE 'DECIMAL TO FLOATING POINT' SUBROUTINE
5544   16D1             ; ------------------------------------------
5545   16D1             
5546   16D1             ; DEC-TO-FP
5547   16D1             SUB_16D1:
5548   16D1 CD 40 17        CALL SUB_1740
5549   16D4 FE 1B           CP $1B
5550   16D6 20 15           JR NZ,L_16ED
5551   16D8 EF              RST 28H                             ; FP-CALC
5552   16D9 A1              .BYTE $A1                           ; stk-one
5553   16DA C0              .BYTE $C0                           ; st-mem-0
5554   16DB 02              .BYTE $02                           ; delete
5555   16DC 34              .BYTE $34                           ; end-calc
5556   16DD             
5557   16DD             ; NXT-DGT-1
5558   16DD             L_16DD:
5559   16DD E7              RST 20H
5560   16DE CD 0C 17        CALL SUB_170C
5561   16E1 38 0A           JR C,L_16ED
5562   16E3 EF              RST 28H                             ; FP-CALC
5563   16E4 E0              .BYTE $E0                           ; get-mem-0
5564   16E5 A4              .BYTE $A4                           ; stk-ten
5565   16E6 05              .BYTE $05                           ; division
5566   16E7 C0              .BYTE $C0                           ; st-mem-0
5567   16E8 04              .BYTE $04                           ; multiply
5568   16E9 0F              .BYTE $0F                           ; addition
5569   16EA 34              .BYTE $34                           ; end-calc
5570   16EB 18 F0           JR L_16DD
5571   16ED             
5572   16ED             ; E-FORMAT
5573   16ED             L_16ED:
5574   16ED FE 2A           CP $2A
5575   16EF C0              RET NZ
5576   16F0 FD 36 5D FF     LD (IY+$5D),$FF
5577   16F4 E7              RST 20H
5578   16F5 FE 15           CP $15
5579   16F7 28 07           JR Z,L_1700
5580   16F9 FE 16           CP $16
5581   16FB 20 04           JR NZ,L_1701
5582   16FD FD 34 5D        INC (IY+$5D)
5583   1700             
5584   1700             ; SIGN-DONE
5585   1700             L_1700:
5586   1700 E7              RST 20H
5587   1701             
5588   1701             ; ST-E-PART
5589   1701             L_1701:
5590   1701 CD 40 17        CALL SUB_1740
5591   1704 EF              RST 28H                             ; FP-CALC              m, e.
5592   1705 E0              .BYTE $E0                           ; get-mem-0             m, e, (1/0) TRUE/FALSE
5593   1706 00              .BYTE $00                           ; jump-true
5594   1707 02              .BYTE $02                           ; to L1511, E-POSTVE
5595   1708 18              .BYTE $18                           ; neg                   m, -e
5596   1709             ;; E-POSTVE
5597   1709 38              .BYTE $38                           ; e-to-fp               x.
5598   170A 34              .BYTE $34                           ; end-calc              x.
5599   170B C9              RET
5600   170C             
5601   170C             ; --------------------------
5602   170C             ; THE 'STK-DIGIT' SUBROUTINE
5603   170C             ; --------------------------
5604   170C             
5605   170C             ; STK-DIGIT
5606   170C             SUB_170C:
5607   170C FE 1C           CP $1C
5608   170E D8              RET C
5609   170F FE 26           CP $26
5610   1711 3F              CCF
5611   1712 D8              RET C
5612   1713 D6 1C           SUB $1C
5613   1715             
5614   1715             ; ------------------------
5615   1715             ; THE 'STACK-A' SUBROUTINE
5616   1715             ; ------------------------
5617   1715             
5618   1715             ; STACK-A
5619   1715             SUB_1715:
5620   1715 4F              LD C,A
5621   1716 06 00           LD B,$00
5622   1718             
5623   1718             ; -------------------------
5624   1718             ; THE 'STACK-BC' SUBROUTINE
5625   1718             ; -------------------------
5626   1718             
5627   1718             ; STACK-BC
5628   1718             SUB_1718:
5629   1718 FD 21 00 40     LD IY,$4000
5630   171C C5              PUSH BC
5631   171D EF              RST 28H                             ; FP-CALC
5632   171E A0              .BYTE $A0                           ; stk-zero                      0.
5633   171F 34              .BYTE $34                           ; end-calc
5634   1720 C1              POP BC
5635   1721 36 91           LD (HL),$91
5636   1723 78              LD A,B
5637   1724 A7              AND A
5638   1725 20 07           JR NZ,L_172E
5639   1727 77              LD (HL),A
5640   1728 B1              OR C
5641   1729 C8              RET Z
5642   172A 41              LD B,C
5643   172B 4E              LD C,(HL)
5644   172C 36 89           LD (HL),$89
5645   172E             
5646   172E             ; STK-BC-2
5647   172E             L_172E:
5648   172E 35              DEC (HL)
5649   172F CB 21           SLA C
5650   1731 CB 10           RL B
5651   1733 30 F9           JR NC,L_172E
5652   1735 CB 38           SRL B
5653   1737 CB 19           RR C
5654   1739 23              INC HL
5655   173A 70              LD (HL),B
5656   173B 23              INC HL
5657   173C 71              LD (HL),C
5658   173D 2B              DEC HL
5659   173E 2B              DEC HL
5660   173F C9              RET
5661   1740             
5662   1740             ; ------------------------------------------
5663   1740             ; THE 'INTEGER TO FLOATING POINT' SUBROUTINE
5664   1740             ; ------------------------------------------
5665   1740             
5666   1740             ; INT-TO-FP
5667   1740             SUB_1740:
5668   1740 F5              PUSH AF
5669   1741 EF              RST 28H                             ; FP-CALC
5670   1742 A0              .BYTE $A0                           ; stk-zero
5671   1743 34              .BYTE $34                           ; end-calc
5672   1744 F1              POP AF
5673   1745             
5674   1745             ; NXT-DGT-2
5675   1745             L_1745:
5676   1745 CD 0C 17        CALL SUB_170C
5677   1748 D8              RET C
5678   1749 EF              RST 28H                             ; FP-CALC
5679   174A 01              .BYTE $01                           ; exchange
5680   174B A4              .BYTE $A4                           ; stk-ten
5681   174C 04              .BYTE $04                           ; multiply
5682   174D 0F              .BYTE $0F                           ; addition
5683   174E 34              .BYTE $34                           ; end-calc
5684   174F E7              RST 20H
5685   1750 18 F3           JR L_1745
5686   1752             
5687   1752             ; ------------------------------------------------
5688   1752             ; THE 'E-FORMAT TO FLOATING POINT' SUBROUTINE (38)
5689   1752             ; ------------------------------------------------
5690   1752             SUB_1752:
5691   1752 EF              RST 28H                             ; FP-CALC              x, m.
5692   1753 2D              .BYTE $2D                           ; duplicate             x, m, m.
5693   1754 32              .BYTE $32                           ; less-0                x, m, (1/0).
5694   1755 C0              .BYTE $C0                           ; st-mem-0              x, m, (1/0).
5695   1756 02              .BYTE $02                           ; delete                x, m.
5696   1757 27              .BYTE $27                           ; abs                   x, +m.
5697   1758             
5698   1758             ;; E-LOOP
5699   1758 A1              .BYTE $A1                           ; stk-one               x, m,1.
5700   1759 03              .BYTE $03                           ; subtract              x, m-1.
5701   175A 2D              .BYTE $2D                           ; duplicate             x, m-1,m-1.
5702   175B 32              .BYTE $32                           ; less-0                x, m-1, (1/0).
5703   175C 00              .BYTE $00                           ; jump-true             x, m-1.
5704   175D 22              .BYTE $22                           ; to L1587, E-END       x, m-1.
5705   175E             
5706   175E 2D              .BYTE $2D                           ; duplicate             x, m-1, m-1.
5707   175F 30              .BYTE $30                           ; stk-data
5708   1760 33              .BYTE $33                           ; Exponent: $83, Bytes: 1
5709   1761             
5710   1761 40              .BYTE $40                           ; (+00,+00,+00)         x, m-1, m-1, 6.
5711   1762 03              .BYTE $03                           ; subtract              x, m-1, m-7.
5712   1763 2D              .BYTE $2D                           ; duplicate             x, m-1, m-7, m-7.
5713   1764 32              .BYTE $32                           ; less-0                x, m-1, m-7, (1/0).
5714   1765 00              .BYTE $00                           ; jump-true             x, m-1, m-7.
5715   1766 0C              .BYTE $0C                           ; to L157A, E-LOW
5716   1767             
5717   1767             ; but if exponent m is higher than 7 do a bigger chunk.
5718   1767             ; multiplying (or dividing if negative) by 10 million - 1e7.
5719   1767             
5720   1767 01              .BYTE $01                           ; exchange              x, m-7, m-1.
5721   1768 02              .BYTE $02                           ; delete                x, m-7.
5722   1769 01              .BYTE $01                           ; exchange              m-7, x.
5723   176A 30              .BYTE $30                           ; stk-data
5724   176B 80              .BYTE $80                           ; Bytes: 3
5725   176C 48              .BYTE $48                           ; Exponent $98
5726   176D 18 96 80        .BYTE $18,$96,$80                   ; (+00)                 m-7, x, 10,000,000 (=f)
5727   1770 2F              .BYTE $2F                           ; jump
5728   1771 04              .BYTE $04                           ; to L157D, E-CHUNK
5729   1772             
5730   1772             ; ---
5731   1772             
5732   1772             ;; E-LOW
5733   1772 02              .BYTE $02                           ; delete                x, m-1.
5734   1773 01              .BYTE $01                           ; exchange              m-1, x.
5735   1774 A4              .BYTE $A4                           ; stk-ten               m-1, x, 10 (=f).
5736   1775             
5737   1775             ;; E-CHUNK
5738   1775 E0              .BYTE $E0                           ; get-mem-0             m-1, x, f, (1/0)
5739   1776 00              .BYTE $00                           ; jump-true             m-1, x, f
5740   1777 04              .BYTE $04                           ; to L1583, E-DIVSN
5741   1778             
5742   1778 04              .BYTE $04                           ; multiply              m-1, x*f.
5743   1779 2F              .BYTE $2F                           ; jump
5744   177A 02              .BYTE $02                           ; to L1584, E-SWAP
5745   177B             
5746   177B             ; ---
5747   177B             
5748   177B             ;; E-DIVSN
5749   177B 05              .BYTE $05                           ; division              m-1, x/f (= new x).
5750   177C             
5751   177C             ;; E-SWAP
5752   177C 01              .BYTE $01                           ; exchange              x, m-1 (= new m).
5753   177D 2F              .BYTE $2F                           ; jump                  x, m.
5754   177E DA              .BYTE $DA                           ; to L1560, E-LOOP
5755   177F             
5756   177F             ; ---
5757   177F             
5758   177F             ;; E-END
5759   177F 02              .BYTE $02                           ; delete                x. (-1)
5760   1780 34              .BYTE $34                           ; end-calc              x.
5761   1781             
5762   1781 C9              RET
5763   1782             
5764   1782             ; -------------------------------------
5765   1782             ; THE 'FLOATING-POINT TO BC' SUBROUTINE
5766   1782             ; -------------------------------------
5767   1782             
5768   1782             ; FP-TO-BC
5769   1782             SUB_1782:
5770   1782 CD ED 15        CALL SUB_15ED                       ; routine STK-FETCH
5771   1785 A7              AND A
5772   1786 20 05           JR NZ,L_178D
5773   1788 47              LD B,A
5774   1789 4F              LD C,A
5775   178A F5              PUSH AF
5776   178B 18 31           JR L_17BE
5777   178D             
5778   178D             ; FPBC-NZRO
5779   178D             L_178D:
5780   178D 43              LD B,E
5781   178E 59              LD E,C
5782   178F 4A              LD C,D
5783   1790 D6 91           SUB $91
5784   1792 3F              CCF
5785   1793 CB 78           BIT 7,B
5786   1795 F5              PUSH AF
5787   1796 CB F8           SET 7,B
5788   1798 38 24           JR C,L_17BE
5789   179A 3C              INC A
5790   179B ED 44           NEG
5791   179D FE 08           CP $08
5792   179F 38 06           JR C,L_17A7
5793   17A1 59              LD E,C
5794   17A2 48              LD C,B
5795   17A3 06 00           LD B,$00
5796   17A5 D6 08           SUB $08
5797   17A7             
5798   17A7             ; BIG-INT
5799   17A7             L_17A7:
5800   17A7 A7              AND A
5801   17A8 57              LD D,A
5802   17A9 7B              LD A,E
5803   17AA 07              RLCA
5804   17AB 28 07           JR Z,L_17B4
5805   17AD             
5806   17AD             ; FPBC-NORM
5807   17AD             L_17AD:
5808   17AD CB 38           SRL B
5809   17AF CB 19           RR C
5810   17B1 15              DEC D
5811   17B2 20 F9           JR NZ,L_17AD
5812   17B4             
5813   17B4             ; EXP-ZERO
5814   17B4             L_17B4:
5815   17B4 30 08           JR NC,L_17BE
5816   17B6 03              INC BC
5817   17B7 78              LD A,B
5818   17B8 B1              OR C
5819   17B9 20 03           JR NZ,L_17BE
5820   17BB F1              POP AF
5821   17BC 37              SCF
5822   17BD F5              PUSH AF
5823   17BE             
5824   17BE             ; FPBC-END
5825   17BE             L_17BE:
5826   17BE C5              PUSH BC
5827   17BF EF              RST 28H                             ; FP-CALC
5828   17C0 34              .BYTE $34                           ; end-calc
5829   17C1 C1              POP BC
5830   17C2 F1              POP AF
5831   17C3 79              LD A,C
5832   17C4 C9              RET
5833   17C5             
5834   17C5             ; ------------------------------------
5835   17C5             ; THE 'FLOATING-POINT TO A' SUBROUTINE
5836   17C5             ; ------------------------------------
5837   17C5             
5838   17C5             ; FP-TO-A
5839   17C5             SUB_17C5:
5840   17C5 CD 82 17        CALL SUB_1782
5841   17C8 D8              RET C
5842   17C9 F5              PUSH AF
5843   17CA 05              DEC B
5844   17CB 04              INC B
5845   17CC 28 03           JR Z,L_17D1
5846   17CE F1              POP AF
5847   17CF 37              SCF
5848   17D0 C9              RET
5849   17D1             
5850   17D1             ; FP-A-END
5851   17D1             L_17D1:
5852   17D1 F1              POP AF
5853   17D2 C9              RET
5854   17D3             
5855   17D3             ; ----------------------------------------------
5856   17D3             ; THE 'PRINT A FLOATING-POINT NUMBER' SUBROUTINE
5857   17D3             ; ----------------------------------------------
5858   17D3             
5859   17D3             ; PRINT-FP
5860   17D3             L_17D3:
5861   17D3 EF              RST 28H                             ; FP-CALC              x.
5862   17D4 2D              .BYTE $2D                           ; duplicate             x, x.
5863   17D5 32              .BYTE $32                           ; less-0                x, (1/0).
5864   17D6 00              .BYTE $00                           ; jump-true
5865   17D7 0B              .BYTE $0B                           ; to L15EA, PF-NGTVE    x.
5866   17D8             
5867   17D8 2D              .BYTE $2D                           ; duplicate             x, x
5868   17D9 33              .BYTE $33                           ; greater-0             x, (1/0).
5869   17DA 00              .BYTE $00                           ; jump-true
5870   17DB 0D              .BYTE $0D                           ; to L15F0, PF-POSTVE   x.
5871   17DC             
5872   17DC 02              .BYTE $02                           ; delete                .
5873   17DD 34              .BYTE $34                           ; end-calc              .
5874   17DE 3E 1C           LD A,$1C
5875   17E0 D7              RST 10H
5876   17E1 C9              RET
5877   17E2             
5878   17E2             ; PF-NEGTVE
5879   17E2 27              .BYTE $27                           ; abs                   +x.
5880   17E3 34              .BYTE $34                           ; end-calc              x.
5881   17E4 3E 16           LD A,$16
5882   17E6 D7              RST 10H
5883   17E7 EF              RST 28H                             ; FP-CALC              x.
5884   17E8             
5885   17E8             ; PF-POSTVE
5886   17E8 34              .BYTE $34                           ; end-calc              x.
5887   17E9 7E              LD A,(HL)
5888   17EA CD 15 17        CALL SUB_1715
5889   17ED EF              RST 28H                             ; FP-CALC              x, e.
5890   17EE 30              .BYTE $30                           ; stk-data
5891   17EF 78              .BYTE $78                           ; Exponent: $88, Bytes: 2
5892   17F0 00 80           .BYTE $00,$80                       ; (+00,+00)             x, e, 128.5.
5893   17F2 03              .BYTE $03                           ; subtract              x, e -.5.
5894   17F3 30              .BYTE $30                           ; stk-data
5895   17F4 EF              .BYTE $EF                           ; Exponent: $7F, Bytes: 4
5896   17F5 1A 20 9A 85     .BYTE $1A,$20,$9A,$85               ; .30103 (log10 2)
5897   17F9 04              .BYTE $04                           ; multiply              x,
5898   17FA 24              .BYTE $24                           ; int
5899   17FB C1              .BYTE $C1                           ; st-mem-1              x, n.
5900   17FC             
5901   17FC             
5902   17FC 30              .BYTE $30                           ; stk-data
5903   17FD 34              .BYTE $34                           ; Exponent: $84, Bytes: 1
5904   17FE 00              .BYTE $00                           ; (+00,+00,+00)         x, n, 8.
5905   17FF             
5906   17FF 03              .BYTE $03                           ; subtract              x, n-8.
5907   1800 18              .BYTE $18                           ; neg                   x, 8-n.
5908   1801 38              .BYTE $38                           ; e-to-fp               x * (10^n)
5909   1802             
5910   1802 A2              .BYTE $A2                           ; stk-half
5911   1803 0F              .BYTE $0F                           ; addition
5912   1804 24              .BYTE $24                           ; int                   i.
5913   1805 34              .BYTE $34                           ; end-calc
5914   1806 21 6B 40        LD HL,$406B
5915   1809 36 90           LD (HL),$90
5916   180B 06 0A           LD B,$0A
5917   180D             
5918   180D             ; PF-LOOP
5919   180D             L_180D:
5920   180D 23              INC HL
5921   180E E5              PUSH HL
5922   180F C5              PUSH BC
5923   1810 EF              RST 28H                             ; FP-CALC              i.
5924   1811 A4              .BYTE $A4                           ; stk-ten               i, 10.
5925   1812 2E              .BYTE $2E                           ; n-mod-m               i mod 10, i/10
5926   1813 01              .BYTE $01                           ; exchange              i/10, remainder.
5927   1814 34              .BYTE $34                           ; end-calc
5928   1815 CD C5 17        CALL SUB_17C5
5929   1818 F6 90           OR $90
5930   181A C1              POP BC
5931   181B E1              POP HL
5932   181C 77              LD (HL),A
5933   181D 10 EE           DJNZ L_180D
5934   181F 23              INC HL
5935   1820 01 08 00        LD BC,$0008
5936   1823 E5              PUSH HL
5937   1824             
5938   1824             ; PF-NULL
5939   1824             L_1824:
5940   1824 2B              DEC HL
5941   1825 7E              LD A,(HL)
5942   1826 FE 90           CP $90
5943   1828 28 FA           JR Z,L_1824
5944   182A ED 42           SBC HL,BC
5945   182C E5              PUSH HL
5946   182D 7E              LD A,(HL)
5947   182E C6 6B           ADD A,$6B
5948   1830 F5              PUSH AF
5949   1831             
5950   1831             ; PF-RND-LP
5951   1831             L_1831:
5952   1831 F1              POP AF
5953   1832 23              INC HL
5954   1833 7E              LD A,(HL)
5955   1834 CE 00           ADC A,$00
5956   1836 27              DAA
5957   1837 F5              PUSH AF
5958   1838 E6 0F           AND $0F
5959   183A 77              LD (HL),A
5960   183B CB FE           SET 7,(HL)
5961   183D 28 F2           JR Z,L_1831
5962   183F F1              POP AF
5963   1840 E1              POP HL
5964   1841 06 06           LD B,$06
5965   1843             
5966   1843             ; PF-ZERO-6
5967   1843             L_1843:
5968   1843 36 80           LD (HL),$80
5969   1845 2B              DEC HL
5970   1846 10 FB           DJNZ L_1843
5971   1848 EF              RST 28H
5972   1849 02              LD (BC),A
5973   184A E1              POP HL
5974   184B 34              INC (HL)
5975   184C CD C5 17        CALL SUB_17C5
5976   184F 28 02           JR Z,L_1853
5977   1851 ED 44           NEG
5978   1853             
5979   1853             ; PF-POS
5980   1853             L_1853:
5981   1853 5F              LD E,A
5982   1854 1C              INC E
5983   1855 1C              INC E
5984   1856 E1              POP HL
5985   1857             
5986   1857             ; GET-FIRST
5987   1857             L_1857:
5988   1857 2B              DEC HL
5989   1858 1D              DEC E
5990   1859 7E              LD A,(HL)
5991   185A E6 0F           AND $0F
5992   185C 28 F9           JR Z,L_1857
5993   185E 7B              LD A,E
5994   185F D6 05           SUB $05
5995   1861 FE 08           CP $08
5996   1863 F2 7A 18        JP P,L_187A
5997   1866 FE F6           CP $F6
5998   1868 FA 7A 18        JP M,L_187A
5999   186B C6 06           ADD A,$06
6000   186D 28 47           JR Z,L_18B6
6001   186F FA A9 18        JP M,L_18A9
6002   1872 47              LD B,A
6003   1873             
6004   1873             ; PF-NIB-LP
6005   1873             L_1873:
6006   1873 CD C7 18        CALL SUB_18C7
6007   1876 10 FB           DJNZ L_1873
6008   1878 18 3F           JR L_18B9
6009   187A             
6010   187A             ; PF-E-FMT
6011   187A             L_187A:
6012   187A 43              LD B,E
6013   187B CD C7 18        CALL SUB_18C7
6014   187E CD B9 18        CALL L_18B9
6015   1881 3E 2A           LD A,$2A
6016   1883 D7              RST 10H
6017   1884 78              LD A,B
6018   1885 A7              AND A
6019   1886 F2 90 18        JP P,L_1890
6020   1889 ED 44           NEG
6021   188B 47              LD B,A
6022   188C 3E 16           LD A,$16
6023   188E 18 02           JR L_1892
6024   1890             
6025   1890             ; PF-E-POS
6026   1890             L_1890:
6027   1890 3E 15           LD A,$15
6028   1892             
6029   1892             ; PF-E-SIGN
6030   1892             L_1892:
6031   1892 D7              RST 10H
6032   1893 78              LD A,B
6033   1894 06 FF           LD B,$FF
6034   1896             
6035   1896             ; PF-E-TENS
6036   1896             L_1896:
6037   1896 04              INC B
6038   1897 D6 0A           SUB $0A
6039   1899 30 FB           JR NC,L_1896
6040   189B C6 0A           ADD A,$0A
6041   189D 4F              LD C,A
6042   189E 78              LD A,B
6043   189F A7              AND A
6044   18A0 28 03           JR Z,L_18A5
6045   18A2 CD 8C 09        CALL SUB_098C
6046   18A5             
6047   18A5             ; PF-E-LOW
6048   18A5             L_18A5:
6049   18A5 79              LD A,C
6050   18A6 C3 8C 09        JP SUB_098C
6051   18A9             
6052   18A9             ; PF-ZEROS
6053   18A9             L_18A9:
6054   18A9 ED 44           NEG
6055   18AB 47              LD B,A
6056   18AC 3E 1B           LD A,$1B
6057   18AE D7              RST 10H
6058   18AF             L_18AF:
6059   18AF 3E 1C           LD A,$1C
6060   18B1             
6061   18B1             ; PF-ZRO-LP  - ZX81 jumped to line above?
6062   18B1 D7              RST 10H
6063   18B2 10 FB           DJNZ L_18AF
6064   18B4 18 09           JR L_18BF
6065   18B6             
6066   18B6             ; PF-ZERO-1
6067   18B6             L_18B6:
6068   18B6 3E 1C           LD A,$1C
6069   18B8 D7              RST 10H
6070   18B9             
6071   18B9             ; PF-DC-OUT
6072   18B9             L_18B9:
6073   18B9 35              DEC (HL)
6074   18BA 34              INC (HL)
6075   18BB E8              RET PE
6076   18BC 3E 1B           LD A,$1B
6077   18BE D7              RST 10H
6078   18BF             
6079   18BF             ; PF-FRAC-LP
6080   18BF             L_18BF:
6081   18BF 35              DEC (HL)
6082   18C0 34              INC (HL)
6083   18C1 E8              RET PE
6084   18C2 CD C7 18        CALL SUB_18C7
6085   18C5 18 F8           JR L_18BF
6086   18C7             
6087   18C7             ; PF-NIBBLE
6088   18C7             SUB_18C7:
6089   18C7 7E              LD A,(HL)
6090   18C8 E6 0F           AND $0F
6091   18CA CD 8C 09        CALL SUB_098C
6092   18CD 2B              DEC HL
6093   18CE C9              RET
6094   18CF             
6095   18CF             ; -------------------------------
6096   18CF             ; THE 'PREPARE TO ADD' SUBROUTINE
6097   18CF             ; -------------------------------
6098   18CF             
6099   18CF             ; PREP-ADD
6100   18CF             SUB_18CF:
6101   18CF 7E              LD A,(HL)
6102   18D0 36 00           LD (HL),$00
6103   18D2 A7              AND A
6104   18D3 C8              RET Z
6105   18D4 23              INC HL
6106   18D5 CB 7E           BIT 7,(HL)
6107   18D7 CB FE           SET 7,(HL)
6108   18D9 2B              DEC HL
6109   18DA C8              RET Z
6110   18DB C5              PUSH BC
6111   18DC 01 05 00        LD BC,$0005
6112   18DF 09              ADD HL,BC
6113   18E0 41              LD B,C
6114   18E1 4F              LD C,A
6115   18E2 37              SCF
6116   18E3             
6117   18E3             ; NEG-BYTE
6118   18E3             L_18E3:
6119   18E3 2B              DEC HL
6120   18E4 7E              LD A,(HL)
6121   18E5 2F              CPL
6122   18E6 CE 00           ADC A,$00
6123   18E8 77              LD (HL),A
6124   18E9 10 F8           DJNZ L_18E3
6125   18EB 79              LD A,C
6126   18EC C1              POP BC
6127   18ED C9              RET
6128   18EE             
6129   18EE             ; ----------------------------------
6130   18EE             ; THE 'FETCH TWO NUMBERS' SUBROUTINE
6131   18EE             ; ----------------------------------
6132   18EE             
6133   18EE             ; FETCH-TWO
6134   18EE             SUB_18EE:
6135   18EE E5              PUSH HL
6136   18EF F5              PUSH AF
6137   18F0 4E              LD C,(HL)
6138   18F1 23              INC HL
6139   18F2 46              LD B,(HL)
6140   18F3 77              LD (HL),A
6141   18F4 23              INC HL
6142   18F5 79              LD A,C
6143   18F6 4E              LD C,(HL)
6144   18F7 C5              PUSH BC
6145   18F8 23              INC HL
6146   18F9 4E              LD C,(HL)
6147   18FA 23              INC HL
6148   18FB 46              LD B,(HL)
6149   18FC EB              EX DE,HL
6150   18FD 57              LD D,A
6151   18FE 5E              LD E,(HL)
6152   18FF D5              PUSH DE
6153   1900 23              INC HL
6154   1901 56              LD D,(HL)
6155   1902 23              INC HL
6156   1903 5E              LD E,(HL)
6157   1904 D5              PUSH DE
6158   1905 D9              EXX
6159   1906 D1              POP DE
6160   1907 E1              POP HL
6161   1908 C1              POP BC
6162   1909 D9              EXX
6163   190A 23              INC HL
6164   190B 56              LD D,(HL)
6165   190C 23              INC HL
6166   190D 5E              LD E,(HL)
6167   190E F1              POP AF
6168   190F E1              POP HL
6169   1910 C9              RET
6170   1911             
6171   1911             ; -----------------------------
6172   1911             ; THE 'SHIFT ADDEND' SUBROUTINE
6173   1911             ; -----------------------------
6174   1911             
6175   1911             ; SHIFT-FP
6176   1911             SUB_1911:
6177   1911 A7              AND A
6178   1912 C8              RET Z
6179   1913 FE 21           CP $21
6180   1915 30 16           JR NC,L_192D
6181   1917 C5              PUSH BC
6182   1918 47              LD B,A
6183   1919             
6184   1919             ; ONE-SHIFT
6185   1919             L_1919:
6186   1919 D9              EXX
6187   191A CB 2D           SRA L
6188   191C CB 1A           RR D
6189   191E CB 1B           RR E
6190   1920 D9              EXX
6191   1921 CB 1A           RR D
6192   1923 CB 1B           RR E
6193   1925 10 F2           DJNZ L_1919
6194   1927 C1              POP BC
6195   1928 D0              RET NC
6196   1929 CD 38 19        CALL SUB_1938
6197   192C C0              RET NZ
6198   192D             
6199   192D             ; ADDEND-0
6200   192D             L_192D:
6201   192D D9              EXX
6202   192E AF              XOR A
6203   192F             
6204   192F             ; ZEROS-4/5
6205   192F             SUB_192F:
6206   192F 2E 00           LD L,$00
6207   1931 57              LD D,A
6208   1932 5D              LD E,L
6209   1933 D9              EXX
6210   1934 11 00 00        LD DE,$0000
6211   1937 C9              RET
6212   1938             
6213   1938             ; -------------------------
6214   1938             ; THE 'ADD-BACK' SUBROUTINE
6215   1938             ; -------------------------
6216   1938             
6217   1938             ; ADD-BACK
6218   1938             SUB_1938:
6219   1938 1C              INC E
6220   1939 C0              RET NZ
6221   193A 14              INC D
6222   193B C0              RET NZ
6223   193C D9              EXX
6224   193D 1C              INC E
6225   193E 20 01           JR NZ,L_1941
6226   1940 14              INC D
6227   1941             
6228   1941             ; ALL-ADDED
6229   1941             L_1941:
6230   1941 D9              EXX
6231   1942 C9              RET
6232   1943             
6233   1943             ; --------------------------------
6234   1943             ; THE 'SUBTRACTION' OPERATION (03)
6235   1943             ; --------------------------------
6236   1943             
6237   1943             ; subtract
6238   1943             SUB_1943:
6239   1943 1A              LD A,(DE)
6240   1944 A7              AND A
6241   1945 C8              RET Z
6242   1946 13              INC DE
6243   1947 1A              LD A,(DE)
6244   1948 EE 80           XOR $80
6245   194A 12              LD (DE),A
6246   194B 1B              DEC DE
6247   194C             
6248   194C             ; -----------------------------
6249   194C             ; THE 'ADDITION' OPERATION (0F)
6250   194C             ; -----------------------------
6251   194C             
6252   194C             ; addition
6253   194C             SUB_194C:
6254   194C D9              EXX
6255   194D E5              PUSH HL
6256   194E D9              EXX
6257   194F D5              PUSH DE
6258   1950 E5              PUSH HL
6259   1951 CD CF 18        CALL SUB_18CF
6260   1954 47              LD B,A
6261   1955 EB              EX DE,HL
6262   1956 CD CF 18        CALL SUB_18CF
6263   1959 4F              LD C,A
6264   195A B8              CP B
6265   195B 30 03           JR NC,L_1960
6266   195D 78              LD A,B
6267   195E 41              LD B,C
6268   195F EB              EX DE,HL
6269   1960             
6270   1960             ; SHIFT-LEN
6271   1960             L_1960:
6272   1960 F5              PUSH AF
6273   1961 90              SUB B
6274   1962 CD EE 18        CALL SUB_18EE
6275   1965 CD 11 19        CALL SUB_1911
6276   1968 F1              POP AF
6277   1969 E1              POP HL
6278   196A 77              LD (HL),A
6279   196B E5              PUSH HL
6280   196C 68              LD L,B
6281   196D 61              LD H,C
6282   196E 19              ADD HL,DE
6283   196F D9              EXX
6284   1970 EB              EX DE,HL
6285   1971 ED 4A           ADC HL,BC
6286   1973 EB              EX DE,HL
6287   1974 7C              LD A,H
6288   1975 8D              ADC A,L
6289   1976 6F              LD L,A
6290   1977 1F              RRA
6291   1978 AD              XOR L
6292   1979 D9              EXX
6293   197A EB              EX DE,HL
6294   197B E1              POP HL
6295   197C 1F              RRA
6296   197D 30 08           JR NC,L_1987
6297   197F 3E 01           LD A,$01
6298   1981 CD 11 19        CALL SUB_1911
6299   1984 34              INC (HL)
6300   1985 28 23           JR Z,L_19AA
6301   1987             
6302   1987             ; TEST-NEG
6303   1987             L_1987:
6304   1987 D9              EXX
6305   1988 7D              LD A,L
6306   1989 E6 80           AND $80
6307   198B D9              EXX
6308   198C 23              INC HL
6309   198D 77              LD (HL),A
6310   198E 2B              DEC HL
6311   198F 28 1F           JR Z,L_19B0
6312   1991 7B              LD A,E
6313   1992 ED 44           NEG
6314   1994 3F              CCF
6315   1995 5F              LD E,A
6316   1996 7A              LD A,D
6317   1997 2F              CPL
6318   1998 CE 00           ADC A,$00
6319   199A 57              LD D,A
6320   199B D9              EXX
6321   199C 7B              LD A,E
6322   199D 2F              CPL
6323   199E CE 00           ADC A,$00
6324   19A0 5F              LD E,A
6325   19A1 7A              LD A,D
6326   19A2 2F              CPL
6327   19A3 CE 00           ADC A,$00
6328   19A5 30 07           JR NC,L_19AE
6329   19A7 1F              RRA
6330   19A8 D9              EXX
6331   19A9 34              INC (HL)
6332   19AA             
6333   19AA             ; ADD-REP-6
6334   19AA             L_19AA:
6335   19AA CA 77 1A        JP Z,L_1A77
6336   19AD D9              EXX
6337   19AE             
6338   19AE             ; END-COMPL
6339   19AE             L_19AE:
6340   19AE 57              LD D,A
6341   19AF D9              EXX
6342   19B0             
6343   19B0             ; GO-NC-MLT
6344   19B0             L_19B0:
6345   19B0 AF              XOR A
6346   19B1 18 6C           JR L_1A1F
6347   19B3             
6348   19B3             ; ----------------------------------------------
6349   19B3             ; THE 'PREPARE TO MULTIPLY OR DIVIDE' SUBROUTINE
6350   19B3             ; ----------------------------------------------
6351   19B3             
6352   19B3             ; PREP-M/D
6353   19B3             SUB_19B3:
6354   19B3 37              SCF
6355   19B4 35              DEC (HL)
6356   19B5 34              INC (HL)
6357   19B6 C8              RET Z
6358   19B7 23              INC HL
6359   19B8 AE              XOR (HL)
6360   19B9 CB FE           SET 7,(HL)
6361   19BB 2B              DEC HL
6362   19BC C9              RET
6363   19BD             
6364   19BD             ; -----------------------------------
6365   19BD             ; THE 'MULTIPLICATION' OPERATION (04)
6366   19BD             ; -----------------------------------
6367   19BD             
6368   19BD             ; multiply
6369   19BD             SUB_19BD:
6370   19BD AF              XOR A
6371   19BE CD B3 19        CALL SUB_19B3
6372   19C1 D8              RET C
6373   19C2 D9              EXX
6374   19C3 E5              PUSH HL
6375   19C4 D9              EXX
6376   19C5 D5              PUSH DE
6377   19C6 EB              EX DE,HL
6378   19C7 CD B3 19        CALL SUB_19B3
6379   19CA EB              EX DE,HL
6380   19CB 38 5A           JR C,L_1A27
6381   19CD E5              PUSH HL
6382   19CE CD EE 18        CALL SUB_18EE
6383   19D1 78              LD A,B
6384   19D2 A7              AND A
6385   19D3 ED 62           SBC HL,HL
6386   19D5 D9              EXX
6387   19D6 E5              PUSH HL
6388   19D7 ED 62           SBC HL,HL
6389   19D9 D9              EXX
6390   19DA 06 21           LD B,$21
6391   19DC 18 11           JR L_19EF
6392   19DE             
6393   19DE             ; MLT-LOOP
6394   19DE             L_19DE:
6395   19DE 30 05           JR NC,L_19E5
6396   19E0 19              ADD HL,DE
6397   19E1 D9              EXX
6398   19E2 ED 5A           ADC HL,DE
6399   19E4 D9              EXX
6400   19E5             
6401   19E5             ; NO-ADD
6402   19E5             L_19E5:
6403   19E5 D9              EXX
6404   19E6 CB 1C           RR H
6405   19E8 CB 1D           RR L
6406   19EA D9              EXX
6407   19EB CB 1C           RR H
6408   19ED CB 1D           RR L
6409   19EF             
6410   19EF             ; STRT-MLT
6411   19EF             L_19EF:
6412   19EF D9              EXX
6413   19F0 CB 18           RR B
6414   19F2 CB 19           RR C
6415   19F4 D9              EXX
6416   19F5 CB 19           RR C
6417   19F7 1F              RRA
6418   19F8 10 E4           DJNZ L_19DE
6419   19FA EB              EX DE,HL
6420   19FB D9              EXX
6421   19FC EB              EX DE,HL
6422   19FD D9              EXX
6423   19FE C1              POP BC
6424   19FF E1              POP HL
6425   1A00 78              LD A,B
6426   1A01 81              ADD A,C
6427   1A02 20 01           JR NZ,L_1A05
6428   1A04 A7              AND A
6429   1A05             
6430   1A05             ; MAKE-EXPT
6431   1A05             L_1A05:
6432   1A05 3D              DEC A
6433   1A06 3F              CCF
6434   1A07             
6435   1A07             ; DIVN-EXPT
6436   1A07             L_1A07:
6437   1A07 17              RLA
6438   1A08 3F              CCF
6439   1A09 1F              RRA
6440   1A0A F2 10 1A        JP P,L_1A10
6441   1A0D 30 68           JR NC,L_1A77
6442   1A0F A7              AND A
6443   1A10             
6444   1A10             ; OFLW1-CLR
6445   1A10             L_1A10:
6446   1A10 3C              INC A
6447   1A11 20 08           JR NZ,L_1A1B
6448   1A13 38 06           JR C,L_1A1B
6449   1A15 D9              EXX
6450   1A16 CB 7A           BIT 7,D
6451   1A18 D9              EXX
6452   1A19 20 5C           JR NZ,L_1A77
6453   1A1B             
6454   1A1B             ; OFLW2-CLR
6455   1A1B             L_1A1B:
6456   1A1B 77              LD (HL),A
6457   1A1C D9              EXX
6458   1A1D 78              LD A,B
6459   1A1E D9              EXX
6460   1A1F             
6461   1A1F             ; TEST-NORM
6462   1A1F             L_1A1F:
6463   1A1F 30 15           JR NC,L_1A36
6464   1A21 7E              LD A,(HL)
6465   1A22 A7              AND A
6466   1A23             
6467   1A23             ; NEAR-ZERO
6468   1A23             L_1A23:
6469   1A23 3E 80           LD A,$80
6470   1A25 28 01           JR Z,L_1A28
6471   1A27             
6472   1A27             ; ZERO-RSLT
6473   1A27             L_1A27:
6474   1A27 AF              XOR A
6475   1A28             
6476   1A28             ; SKIP-ZERO
6477   1A28             L_1A28:
6478   1A28 D9              EXX
6479   1A29 A2              AND D
6480   1A2A CD 2F 19        CALL SUB_192F
6481   1A2D 07              RLCA
6482   1A2E 77              LD (HL),A
6483   1A2F 38 2E           JR C,L_1A5F
6484   1A31 23              INC HL
6485   1A32 77              LD (HL),A
6486   1A33 2B              DEC HL
6487   1A34 18 29           JR L_1A5F
6488   1A36             
6489   1A36             ; NORMALIZE
6490   1A36             L_1A36:
6491   1A36 06 20           LD B,$20
6492   1A38             
6493   1A38             ; SHIFT-ONE
6494   1A38             L_1A38:
6495   1A38 D9              EXX
6496   1A39 CB 7A           BIT 7,D
6497   1A3B D9              EXX
6498   1A3C 20 12           JR NZ,L_1A50
6499   1A3E 07              RLCA
6500   1A3F CB 13           RL E
6501   1A41 CB 12           RL D
6502   1A43 D9              EXX
6503   1A44 CB 13           RL E
6504   1A46 CB 12           RL D
6505   1A48 D9              EXX
6506   1A49 35              DEC (HL)
6507   1A4A 28 D7           JR Z,L_1A23
6508   1A4C 10 EA           DJNZ L_1A38
6509   1A4E 18 D7           JR L_1A27
6510   1A50             
6511   1A50             ; NORML-NOW
6512   1A50             L_1A50:
6513   1A50 17              RLA
6514   1A51 30 0C           JR NC,L_1A5F
6515   1A53 CD 38 19        CALL SUB_1938
6516   1A56 20 07           JR NZ,L_1A5F
6517   1A58 D9              EXX
6518   1A59 16 80           LD D,$80
6519   1A5B D9              EXX
6520   1A5C 34              INC (HL)
6521   1A5D 28 18           JR Z,L_1A77
6522   1A5F             
6523   1A5F             ; OFLOW-CLR
6524   1A5F             L_1A5F:
6525   1A5F E5              PUSH HL
6526   1A60 23              INC HL
6527   1A61 D9              EXX
6528   1A62 D5              PUSH DE
6529   1A63 D9              EXX
6530   1A64 C1              POP BC
6531   1A65 78              LD A,B
6532   1A66 17              RLA
6533   1A67 CB 16           RL (HL)
6534   1A69 1F              RRA
6535   1A6A 77              LD (HL),A
6536   1A6B 23              INC HL
6537   1A6C 71              LD (HL),C
6538   1A6D 23              INC HL
6539   1A6E 72              LD (HL),D
6540   1A6F 23              INC HL
6541   1A70 73              LD (HL),E
6542   1A71 E1              POP HL
6543   1A72 D1              POP DE
6544   1A73 D9              EXX
6545   1A74 E1              POP HL
6546   1A75 D9              EXX
6547   1A76 C9              RET
6548   1A77             
6549   1A77             ; REPORT-6
6550   1A77             L_1A77:
6551   1A77 CF              RST 08H                             ; ERROR-1
6552   1A78 05              .BYTE $05                           ; OV arithmetic OVerflow.
6553   1A79             
6554   1A79             ; -----------------------------
6555   1A79             ; THE 'DIVISION' OPERATION (05)
6556   1A79             ; -----------------------------
6557   1A79             
6558   1A79             ; division
6559   1A79             SUB_1A79:
6560   1A79 EB              EX DE,HL
6561   1A7A AF              XOR A
6562   1A7B CD B3 19        CALL SUB_19B3
6563   1A7E 38 F7           JR C,L_1A77
6564   1A80 EB              EX DE,HL
6565   1A81 CD B3 19        CALL SUB_19B3
6566   1A84 D8              RET C
6567   1A85 D9              EXX
6568   1A86 E5              PUSH HL
6569   1A87 D9              EXX
6570   1A88 D5              PUSH DE
6571   1A89 E5              PUSH HL
6572   1A8A CD EE 18        CALL SUB_18EE
6573   1A8D D9              EXX
6574   1A8E E5              PUSH HL
6575   1A8F 60              LD H,B
6576   1A90 69              LD L,C
6577   1A91 D9              EXX
6578   1A92 61              LD H,C
6579   1A93 68              LD L,B
6580   1A94 AF              XOR A
6581   1A95 06 DF           LD B,$DF
6582   1A97 18 10           JR L_1AA9
6583   1A99             
6584   1A99             ; DIV-LOOP
6585   1A99             L_1A99:
6586   1A99 17              RLA
6587   1A9A CB 11           RL C
6588   1A9C D9              EXX
6589   1A9D CB 11           RL C
6590   1A9F CB 10           RL B
6591   1AA1 D9              EXX
6592   1AA2             
6593   1AA2             ; div-34th
6594   1AA2             L_1AA2:
6595   1AA2 29              ADD HL,HL
6596   1AA3 D9              EXX
6597   1AA4 ED 6A           ADC HL,HL
6598   1AA6 D9              EXX
6599   1AA7 38 10           JR C,L_1AB9
6600   1AA9             
6601   1AA9             ; DIV-START
6602   1AA9             L_1AA9:
6603   1AA9 ED 52           SBC HL,DE
6604   1AAB D9              EXX
6605   1AAC ED 52           SBC HL,DE
6606   1AAE D9              EXX
6607   1AAF 30 0F           JR NC,L_1AC0
6608   1AB1 19              ADD HL,DE
6609   1AB2 D9              EXX
6610   1AB3 ED 5A           ADC HL,DE
6611   1AB5 D9              EXX
6612   1AB6 A7              AND A
6613   1AB7 18 08           JR L_1AC1
6614   1AB9             
6615   1AB9             ; SUBN-ONLY
6616   1AB9             L_1AB9:
6617   1AB9 A7              AND A
6618   1ABA ED 52           SBC HL,DE
6619   1ABC D9              EXX
6620   1ABD ED 52           SBC HL,DE
6621   1ABF D9              EXX
6622   1AC0             
6623   1AC0             ; NO-RSTORE
6624   1AC0             L_1AC0:
6625   1AC0 37              SCF
6626   1AC1             
6627   1AC1             ; COUNT-ONE
6628   1AC1             L_1AC1:
6629   1AC1 04              INC B
6630   1AC2 FA 99 1A        JP M,L_1A99
6631   1AC5 F5              PUSH AF
6632   1AC6 28 DA           JR Z,L_1AA2                         ; fix to ZX81 jumps to div-34th not DIV-START
6633   1AC8 5F              LD E,A
6634   1AC9 51              LD D,C
6635   1ACA D9              EXX
6636   1ACB 59              LD E,C
6637   1ACC 50              LD D,B
6638   1ACD F1              POP AF
6639   1ACE CB 18           RR B
6640   1AD0 F1              POP AF
6641   1AD1 CB 18           RR B
6642   1AD3 D9              EXX
6643   1AD4 C1              POP BC
6644   1AD5 E1              POP HL
6645   1AD6 78              LD A,B
6646   1AD7 91              SUB C
6647   1AD8 C3 07 1A        JP L_1A07
6648   1ADB             
6649   1ADB             ; -----------------------------------------------------
6650   1ADB             ; THE 'INTEGER TRUNCATION TOWARDS ZERO' SUBROUTINE (36)
6651   1ADB             ; -----------------------------------------------------
6652   1ADB             
6653   1ADB             ; truncate
6654   1ADB             SUB_1ADB:
6655   1ADB 7E              LD A,(HL)
6656   1ADC FE 81           CP $81
6657   1ADE 30 06           JR NC,L_1AE6
6658   1AE0 36 00           LD (HL),$00
6659   1AE2 3E 20           LD A,$20
6660   1AE4 18 05           JR L_1AEB
6661   1AE6             
6662   1AE6             ; T-GR-ZERO
6663   1AE6             L_1AE6:
6664   1AE6 D6 A0           SUB $A0
6665   1AE8 F0              RET P
6666   1AE9 ED 44           NEG
6667   1AEB             
6668   1AEB             ; NIL-BYTES
6669   1AEB             L_1AEB:
6670   1AEB D5              PUSH DE
6671   1AEC EB              EX DE,HL
6672   1AED 2B              DEC HL
6673   1AEE 47              LD B,A
6674   1AEF CB 38           SRL B
6675   1AF1 CB 38           SRL B
6676   1AF3 CB 38           SRL B
6677   1AF5 28 05           JR Z,L_1AFC
6678   1AF7             
6679   1AF7             ; BYTE-ZERO
6680   1AF7             L_1AF7:
6681   1AF7 36 00           LD (HL),$00
6682   1AF9 2B              DEC HL
6683   1AFA 10 FB           DJNZ L_1AF7
6684   1AFC             
6685   1AFC             ; BITS-ZERO
6686   1AFC             L_1AFC:
6687   1AFC E6 07           AND $07
6688   1AFE 28 09           JR Z,L_1B09
6689   1B00 47              LD B,A
6690   1B01 3E FF           LD A,$FF
6691   1B03             
6692   1B03             ; LESS-MASK
6693   1B03             L_1B03:
6694   1B03 CB 27           SLA A
6695   1B05 10 FC           DJNZ L_1B03
6696   1B07 A6              AND (HL)
6697   1B08 77              LD (HL),A
6698   1B09             
6699   1B09             ; IX-END
6700   1B09             L_1B09:
6701   1B09 EB              EX DE,HL
6702   1B0A D1              POP DE
6703   1B0B C9              RET
6704   1B0C             
6705   1B0C             ;********************************
6706   1B0C             ;**  FLOATING-POINT CALCULATOR **
6707   1B0C             ;********************************
6708   1B0C             
6709   1B0C             ; ------------------------
6710   1B0C             ; THE 'TABLE OF CONSTANTS'
6711   1B0C             ; ------------------------
6712   1B0C             L_1B0C:
6713   1B0C             ; stk-zero                                                 00 00 00 00 00
6714   1B0C 00              .BYTE $00                           ; Bytes: 1
6715   1B0D B0              .BYTE $B0                           ; Exponent $00
6716   1B0E 00              .BYTE $00                           ; (+00,+00,+00)
6717   1B0F             
6718   1B0F             ; stk-one                                                  81 00 00 00 00
6719   1B0F 31              .BYTE $31                           ; Exponent $81, Bytes: 1
6720   1B10 00              .BYTE $00                           ; (+00,+00,+00)
6721   1B11             
6722   1B11             
6723   1B11             ; stk-half                                                 80 00 00 00 00
6724   1B11 30              .BYTE $30                           ; Exponent: $80, Bytes: 1
6725   1B12 00              .BYTE $00                           ; (+00,+00,+00)
6726   1B13             
6727   1B13             
6728   1B13             ; stk-pi/2                                                 81 49 0F DA A2
6729   1B13 F1              .BYTE $F1                           ; Exponent: $81, Bytes: 4
6730   1B14 49 0F DA A2     .BYTE $49,$0F,$DA,$A2
6731   1B18             
6732   1B18             ; stk-ten                                                  84 20 00 00 00
6733   1B18 34              .BYTE $34                           ; Exponent: $84, Bytes: 1
6734   1B19 20              .BYTE $20                           ; (+00,+00,+00)
6735   1B1A             
6736   1B1A             ; ------------------------
6737   1B1A             ; THE 'TABLE OF ADDRESSES'
6738   1B1A             ; ------------------------
6739   1B1A             L_1B1A:
6740   1B1A 1E 1E           .WORD SUB_1E1E                      ; $00 - jump-true
6741   1B1C 67 1C           .WORD SUB_1C67                      ; $01 - exchange
6742   1B1E DA 1B           .WORD SUB_1BDA                      ; $02 - delete
6743   1B20 43 19           .WORD SUB_1943                      ; $03 - subtract
6744   1B22 BD 19           .WORD SUB_19BD                      ; $04 - multiply
6745   1B24 79 1A           .WORD SUB_1A79                      ; $05 - division
6746   1B26 D1 1F           .WORD SUB_1FD1                      ; $06 - to-power
6747   1B28 E2 1C           .WORD SUB_1CE2                      ; $07 - or
6748   1B2A E8 1C           .WORD SUB_1CE8                      ; $08 - no-&-no
6749   1B2C F8 1C           .WORD SUB_1CF8                      ; $09 - no-l-eql
6750   1B2E F8 1C           .WORD SUB_1CF8                      ; $0A - no-gr-eql
6751   1B30 F8 1C           .WORD SUB_1CF8                      ; $0B - nos-neql
6752   1B32 F8 1C           .WORD SUB_1CF8                      ; $0C - no-grtr
6753   1B34 F8 1C           .WORD SUB_1CF8                      ; $0D - no-less
6754   1B36 F8 1C           .WORD SUB_1CF8                      ; $0E - nos-eql
6755   1B38 4C 19           .WORD SUB_194C                      ; $0F - addition
6756   1B3A ED 1C           .WORD SUB_1CED                      ; $10 - str-&-no
6757   1B3C F8 1C           .WORD SUB_1CF8                      ; $11 - str-l-eql
6758   1B3E F8 1C           .WORD SUB_1CF8                      ; $12 - str-gr-eql
6759   1B40 F8 1C           .WORD SUB_1CF8                      ; $13 - strs-neql
6760   1B42 F8 1C           .WORD SUB_1CF8                      ; $14 - str-grtr
6761   1B44 F8 1C           .WORD SUB_1CF8                      ; $15 - str-less
6762   1B46 F8 1C           .WORD SUB_1CF8                      ; $16 - strs-eql
6763   1B48 57 1D           .WORD SUB_1D57                      ; $17 - strs-add
6764   1B4A 95 1C           .WORD SUB_1C95                      ; $18 - neg
6765   1B4C F5 1D           .WORD SUB_1DF5                      ; $19 - code
6766   1B4E 93 1D           .WORD SUB_1D93                      ; $1A - val
6767   1B50 00 1E           .WORD SUB_1E00                      ; $1B - len
6768   1B52 38 1F           .WORD SUB_1F38                      ; $1C - sin
6769   1B54 2D 1F           .WORD SUB_1F2D                      ; $1D - cos
6770   1B56 5D 1F           .WORD SUB_1F5D                      ; $1E - tan
6771   1B58 B3 1F           .WORD SUB_1FB3                      ; $1F - asn
6772   1B5A C3 1F           .WORD SUB_1FC3                      ; $20 - acs
6773   1B5C 65 1F           .WORD SUB_1F65                      ; $21 - atn
6774   1B5E 98 1E           .WORD SUB_1E98                      ; $22 - ln
6775   1B60 4A 1E           .WORD SUB_1E4A                      ; $23 - exp
6776   1B62 35 1E           .WORD SUB_1E35                      ; $24 - int
6777   1B64 CA 1F           .WORD SUB_1FCA                      ; $25 - sqr
6778   1B66 A4 1C           .WORD SUB_1CA4                      ; $26 - sgn
6779   1B68 9F 1C           .WORD SUB_1C9F                      ; $27 - abs
6780   1B6A B3 1C           .WORD SUB_1CB3                      ; $28 - peek
6781   1B6C BA 1C           .WORD SUB_1CBA                      ; $29 - usr-no
6782   1B6E C4 1D           .WORD SUB_1DC4                      ; $2A - str$
6783   1B70 84 1D           .WORD SUB_1D84                      ; $2B - chrs
6784   1B72 CA 1C           .WORD SUB_1CCA                      ; $2C - not
6785   1B74 ED 1B           .WORD SUB_1BED                      ; $2D - duplicate
6786   1B76 26 1E           .WORD SUB_1E26                      ; $2E - n-mod-m
6787   1B78 12 1E           .WORD SUB_1E12                      ; $2F - jump
6788   1B7A F3 1B           .WORD SUB_1BF3                      ; $30 - stk-data
6789   1B7C 06 1E           .WORD SUB_1E06                      ; $31 - dec-jr-nz
6790   1B7E D0 1C           .WORD SUB_1CD0                      ; $32 - less-0
6791   1B80 C3 1C           .WORD SUB_1CC3                      ; $33 - greater-0
6792   1B82 2B 00           .WORD SUB_END_CALC                      ; $34 - end-calc
6793   1B84 07 1F           .WORD SUB_1F07                      ; $35 - get-argt
6794   1B86 DB 1A           .WORD SUB_1ADB                      ; $36 - truncate
6795   1B88 DB 1B           .WORD SUB_1BDB                      ; $37 - fp-calc-2
6796   1B8A 52 17           .WORD SUB_1752                      ; $38 - e-to-fp
6797   1B8C 74 1C           .WORD SUB_1C74                      ; $39 - series-xx    $80 - $9F.
6798   1B8E 39 1C           .WORD SUB_1C39                      ; $3A - stk-const-xx $A0 - $BF.
6799   1B90 58 1C           .WORD SUB_1C58                      ; $3B - st-mem-xx    $C0 - $DF.
6800   1B92 2D 1C           .WORD SUB_1C2D                      ; $3C - get-mem-xx   $E0 - $FF.
6801   1B94             
6802   1B94             ; -------------------------------
6803   1B94             ; THE 'FLOATING POINT CALCULATOR'
6804   1B94             ; -------------------------------
6805   1B94             
6806   1B94             ; CALCULATE
6807   1B94             L_1B94:
6808   1B94 CD 7A 1D        CALL SUB_1D7A
6809   1B97             
6810   1B97             ; GEN-ENT-1
6811   1B97             SUB_1B97:
6812   1B97 78              LD A,B
6813   1B98 32 1E 40        LD ($401E),A
6814   1B9B             
6815   1B9B             ; GEN-ENT-2
6816   1B9B             SUB_1B9B:
6817   1B9B D9              EXX
6818   1B9C E3              EX (SP),HL
6819   1B9D D9              EXX
6820   1B9E             
6821   1B9E             ; RE-ENTRY
6822   1B9E             L_1B9E:
6823   1B9E ED 53 1C 40     LD ($401C),DE
6824   1BA2 D9              EXX
6825   1BA3 7E              LD A,(HL)
6826   1BA4 23              INC HL
6827   1BA5             
6828   1BA5             ; SCAN-ENT
6829   1BA5             L_1BA5:
6830   1BA5 E5              PUSH HL
6831   1BA6 A7              AND A
6832   1BA7 F2 B9 1B        JP P,L_1BB9
6833   1BAA 57              LD D,A
6834   1BAB E6 60           AND $60
6835   1BAD 0F              RRCA
6836   1BAE 0F              RRCA
6837   1BAF 0F              RRCA
6838   1BB0 0F              RRCA
6839   1BB1 C6 72           ADD A,$72
6840   1BB3 6F              LD L,A
6841   1BB4 7A              LD A,D
6842   1BB5 E6 1F           AND $1F
6843   1BB7 18 0E           JR L_1BC7
6844   1BB9             
6845   1BB9             ; FIRST-3D
6846   1BB9             L_1BB9:
6847   1BB9 FE 18           CP $18
6848   1BBB 30 08           JR NC,L_1BC5
6849   1BBD D9              EXX
6850   1BBE 01 FB FF        LD BC,$FFFB
6851   1BC1 54              LD D,H
6852   1BC2 5D              LD E,L
6853   1BC3 09              ADD HL,BC
6854   1BC4 D9              EXX
6855   1BC5             
6856   1BC5             ; DOUBLE-A
6857   1BC5             L_1BC5:
6858   1BC5 07              RLCA
6859   1BC6 6F              LD L,A
6860   1BC7             
6861   1BC7             ; ENT-TABLE
6862   1BC7             L_1BC7:
6863   1BC7 11 1A 1B        LD DE,L_1B1A
6864   1BCA 26 00           LD H,$00
6865   1BCC 19              ADD HL,DE
6866   1BCD 5E              LD E,(HL)
6867   1BCE 23              INC HL
6868   1BCF 56              LD D,(HL)
6869   1BD0 21 9E 1B        LD HL,L_1B9E
6870   1BD3 E3              EX (SP),HL
6871   1BD4 D5              PUSH DE
6872   1BD5 D9              EXX
6873   1BD6 ED 4B 1D 40     LD BC,($401D)
6874   1BDA             
6875   1BDA             ; -----------------------
6876   1BDA             ; THE 'DELETE' SUBROUTINE
6877   1BDA             ; -----------------------
6878   1BDA             
6879   1BDA             ; delete
6880   1BDA             SUB_1BDA:
6881   1BDA C9              RET
6882   1BDB             
6883   1BDB             ; ---------------------------------
6884   1BDB             ; THE 'SINGLE OPERATION' SUBROUTINE
6885   1BDB             ; ---------------------------------
6886   1BDB             
6887   1BDB             ; fp-calc-2
6888   1BDB             SUB_1BDB:
6889   1BDB F1              POP AF
6890   1BDC 3A 1E 40        LD A,($401E)
6891   1BDF D9              EXX
6892   1BE0 18 C3           JR L_1BA5
6893   1BE2             
6894   1BE2             ; ------------------------------
6895   1BE2             ; THE 'TEST 5 SPACES' SUBROUTINE
6896   1BE2             ; ------------------------------
6897   1BE2             
6898   1BE2             ; TEST-5-SP
6899   1BE2             SUB_1BE2:
6900   1BE2 D5              PUSH DE
6901   1BE3 E5              PUSH HL
6902   1BE4 01 05 00        LD BC,$0005
6903   1BE7 CD A0 10        CALL SUB_10A0
6904   1BEA             SUB_1BEA:
6905   1BEA E1              POP HL
6906   1BEB D1              POP DE
6907   1BEC C9              RET
6908   1BED             
6909   1BED             ; ---------------------------------------------
6910   1BED             ; THE 'MOVE A FLOATING POINT NUMBER' SUBROUTINE
6911   1BED             ; ---------------------------------------------
6912   1BED             
6913   1BED             ; MOVE-FP
6914   1BED             SUB_1BED:
6915   1BED CD E2 1B        CALL SUB_1BE2
6916   1BF0 ED B0           LDIR
6917   1BF2 C9              RET
6918   1BF3             
6919   1BF3             ; -------------------------------
6920   1BF3             ; THE 'STACK LITERALS' SUBROUTINE
6921   1BF3             ; -------------------------------
6922   1BF3             
6923   1BF3             ; stk-data
6924   1BF3             SUB_1BF3:
6925   1BF3 62              LD H,D
6926   1BF4 6B              LD L,E
6927   1BF5             
6928   1BF5             ; STK-CONST
6929   1BF5             SUB_1BF5:
6930   1BF5 CD E2 1B        CALL SUB_1BE2
6931   1BF8 D9              EXX
6932   1BF9 E5              PUSH HL
6933   1BFA D9              EXX
6934   1BFB E3              EX (SP),HL
6935   1BFC C5              PUSH BC
6936   1BFD 7E              LD A,(HL)
6937   1BFE E6 C0           AND $C0
6938   1C00 07              RLCA
6939   1C01 07              RLCA
6940   1C02 4F              LD C,A
6941   1C03 0C              INC C
6942   1C04 7E              LD A,(HL)
6943   1C05 E6 3F           AND $3F
6944   1C07 20 02           JR NZ,L_1C0B
6945   1C09 23              INC HL
6946   1C0A 7E              LD A,(HL)
6947   1C0B             
6948   1C0B             ; FORM-EXP
6949   1C0B             L_1C0B:
6950   1C0B C6 50           ADD A,$50
6951   1C0D 12              LD (DE),A
6952   1C0E 3E 05           LD A,$05
6953   1C10 91              SUB C
6954   1C11 23              INC HL
6955   1C12 13              INC DE
6956   1C13 06 00           LD B,$00
6957   1C15 ED B0           LDIR
6958   1C17 C1              POP BC
6959   1C18 E3              EX (SP),HL
6960   1C19 D9              EXX
6961   1C1A E1              POP HL
6962   1C1B D9              EXX
6963   1C1C 47              LD B,A
6964   1C1D AF              XOR A
6965   1C1E             
6966   1C1E             ; STK-ZEROS
6967   1C1E             L_1C1E:
6968   1C1E 05              DEC B
6969   1C1F C8              RET Z
6970   1C20 12              LD (DE),A
6971   1C21 13              INC DE
6972   1C22 18 FA           JR L_1C1E
6973   1C24             
6974   1C24             ; --------------------------------
6975   1C24             ; THE 'MEMORY LOCATION' SUBROUTINE
6976   1C24             ; --------------------------------
6977   1C24             
6978   1C24             ; LOC-MEM (which came after SKIP-NEXT on the ZX81?)
6979   1C24             SUB_1C24:
6980   1C24 4F              LD C,A
6981   1C25 07              RLCA
6982   1C26 07              RLCA
6983   1C27 81              ADD A,C
6984   1C28 4F              LD C,A
6985   1C29 06 00           LD B,$00
6986   1C2B 09              ADD HL,BC
6987   1C2C C9              RET
6988   1C2D             
6989   1C2D             ; -------------------------------------
6990   1C2D             ; THE 'GET FROM MEMORY AREA' SUBROUTINE
6991   1C2D             ; -------------------------------------
6992   1C2D             
6993   1C2D             ; get-mem-xx
6994   1C2D             SUB_1C2D:
6995   1C2D D5              PUSH DE
6996   1C2E 2A 1F 40        LD HL,($401F)
6997   1C31 CD 24 1C        CALL SUB_1C24
6998   1C34 CD ED 1B        CALL SUB_1BED
6999   1C37 E1              POP HL
7000   1C38 C9              RET
7001   1C39             
7002   1C39             ; ---------------------------------
7003   1C39             ; THE 'STACK A CONSTANT' SUBROUTINE
7004   1C39             ; ---------------------------------
7005   1C39             
7006   1C39             ; stk-const-xx
7007   1C39             SUB_1C39:
7008   1C39 62              LD H,D
7009   1C3A 6B              LD L,E
7010   1C3B D9              EXX
7011   1C3C E5              PUSH HL
7012   1C3D 21 0C 1B        LD HL,L_1B0C
7013   1C40 D9              EXX
7014   1C41             
7015   1C41             ; SKIP-CONS (ZX81 was a call rather than drop through)
7016   1C41 A7              AND A
7017   1C42             
7018   1C42             ; SKIP-NEXT (ZX81 version is RET Z)
7019   1C42 28 0D           JR Z,L_1C51
7020   1C44             
7021   1C44             L_1C44:
7022   1C44 F5              PUSH AF
7023   1C45 D5              PUSH DE
7024   1C46 11 00 00        LD DE,$0000
7025   1C49 CD F5 1B        CALL SUB_1BF5
7026   1C4C D1              POP DE
7027   1C4D F1              POP AF
7028   1C4E 3D              DEC A
7029   1C4F 20 F3           JR NZ,L_1C44
7030   1C51             L_1C51:
7031   1C51 CD F5 1B        CALL SUB_1BF5
7032   1C54 D9              EXX
7033   1C55 E1              POP HL
7034   1C56 D9              EXX
7035   1C57 C9              RET
7036   1C58             
7037   1C58             ; ---------------------------------------
7038   1C58             ; THE 'STORE IN A MEMORY AREA' SUBROUTINE
7039   1C58             ; ---------------------------------------
7040   1C58             
7041   1C58             ; st-mem-xx
7042   1C58             SUB_1C58:
7043   1C58 E5              PUSH HL
7044   1C59 EB              EX DE,HL
7045   1C5A 2A 1F 40        LD HL,($401F)
7046   1C5D CD 24 1C        CALL SUB_1C24
7047   1C60 EB              EX DE,HL
7048   1C61 CD ED 1B        CALL SUB_1BED
7049   1C64 EB              EX DE,HL
7050   1C65 E1              POP HL
7051   1C66 C9              RET
7052   1C67             
7053   1C67             ; -------------------------
7054   1C67             ; THE 'EXCHANGE' SUBROUTINE
7055   1C67             ; -------------------------
7056   1C67             
7057   1C67             ; exchange
7058   1C67             SUB_1C67:
7059   1C67 06 05           LD B,$05
7060   1C69             
7061   1C69             ; SWAP-BYTE
7062   1C69             L_1C69:
7063   1C69 1A              LD A,(DE)
7064   1C6A 4E              LD C,(HL)
7065   1C6B EB              EX DE,HL
7066   1C6C 12              LD (DE),A
7067   1C6D 71              LD (HL),C
7068   1C6E 23              INC HL
7069   1C6F 13              INC DE
7070   1C70 10 F7           DJNZ L_1C69
7071   1C72 EB              EX DE,HL
7072   1C73 C9              RET
7073   1C74             
7074   1C74             ; ---------------------------------
7075   1C74             ; THE 'SERIES GENERATOR' SUBROUTINE
7076   1C74             ; ---------------------------------
7077   1C74             
7078   1C74             ; series-xx
7079   1C74             SUB_1C74:
7080   1C74 47              LD B,A
7081   1C75 CD 97 1B        CALL SUB_1B97
7082   1C78 2D              .BYTE $2D                           ; duplicate       x,x
7083   1C79 0F              .BYTE $0F                           ; addition        x+x
7084   1C7A C0              .BYTE $C0                           ; st-mem-0        x+x
7085   1C7B 02              .BYTE $02                           ; delete          .
7086   1C7C A0              .BYTE $A0                           ; stk-zero        0
7087   1C7D C2              .BYTE $C2                           ; st-mem-2        0
7088   1C7E             ;; G-LOOP
7089   1C7E 2D              .BYTE $2D                           ; duplicate       v,v.
7090   1C7F E0              .BYTE $E0                           ; get-mem-0       v,v,x+2
7091   1C80 04              .BYTE $04                           ; multiply        v,v*x+2
7092   1C81 E2              .BYTE $E2                           ; get-mem-2       v,v*x+2,v
7093   1C82 C1              .BYTE $C1                           ; st-mem-1
7094   1C83 03              .BYTE $03                           ; subtract
7095   1C84 34              .BYTE $34                           ; end-calc
7096   1C85             
7097   1C85 CD F3 1B        CALL SUB_1BF3
7098   1C88 CD 9B 1B        CALL SUB_1B9B
7099   1C8B             
7100   1C8B 0F              .BYTE $0F                           ; addition
7101   1C8C 01              .BYTE $01                           ; exchange
7102   1C8D C2              .BYTE $C2                           ; st-mem-2
7103   1C8E 02              .BYTE $02                           ; delete
7104   1C8F 31              .BYTE $31                           ; dec-jr-nz
7105   1C90 EE              .BYTE $EE                           ; back to L1A89, G-LOOP
7106   1C91 E1              .BYTE $E1                           ; get-mem-1
7107   1C92 03              .BYTE $03                           ; subtract
7108   1C93 34              .BYTE $34                           ; end-calc
7109   1C94 C9              RET
7110   1C95             
7111   1C95             ; -----------------------
7112   1C95             ; Handle unary minus (18)
7113   1C95             ; -----------------------
7114   1C95             
7115   1C95             ; negate
7116   1C95             SUB_1C95:
7117   1C95 7E              LD A,(HL)
7118   1C96 A7              AND A
7119   1C97 C8              RET Z
7120   1C98 23              INC HL
7121   1C99 7E              LD A,(HL)
7122   1C9A EE 80           XOR $80
7123   1C9C 77              LD (HL),A
7124   1C9D 2B              DEC HL
7125   1C9E C9              RET
7126   1C9F             
7127   1C9F             ; -----------------------
7128   1C9F             ; Absolute magnitude (27)
7129   1C9F             ; -----------------------
7130   1C9F             
7131   1C9F             ; abs
7132   1C9F             SUB_1C9F:
7133   1C9F 23              INC HL
7134   1CA0 CB BE           RES 7,(HL)
7135   1CA2 2B              DEC HL
7136   1CA3 C9              RET
7137   1CA4             
7138   1CA4             ; -----------
7139   1CA4             ; Signum (26)
7140   1CA4             ; -----------
7141   1CA4             
7142   1CA4             ; sgn
7143   1CA4             SUB_1CA4:
7144   1CA4 23              INC HL
7145   1CA5 7E              LD A,(HL)
7146   1CA6 2B              DEC HL
7147   1CA7 35              DEC (HL)
7148   1CA8 34              INC (HL)
7149   1CA9 37              SCF
7150   1CAA C4 D5 1C        CALL NZ,SUB_1CD5
7151   1CAD 23              INC HL
7152   1CAE 07              RLCA
7153   1CAF CB 1E           RR (HL)
7154   1CB1 2B              DEC HL
7155   1CB2 C9              RET
7156   1CB3             
7157   1CB3             ; -------------------------
7158   1CB3             ; Handle PEEK function (28)
7159   1CB3             ; -------------------------
7160   1CB3             
7161   1CB3             ; peek
7162   1CB3             SUB_1CB3:
7163   1CB3 CD 88 10        CALL SUB_1088
7164   1CB6 0A              LD A,(BC)
7165   1CB7 C3 15 17        JP SUB_1715
7166   1CBA             
7167   1CBA             ; ---------------
7168   1CBA             ; USR number (29)
7169   1CBA             ; ---------------
7170   1CBA             
7171   1CBA             ; usr-no
7172   1CBA             SUB_1CBA:
7173   1CBA CD 88 10        CALL SUB_1088
7174   1CBD 21 18 17        LD HL,SUB_1718
7175   1CC0 E5              PUSH HL
7176   1CC1 C5              PUSH BC
7177   1CC2 C9              RET
7178   1CC3             
7179   1CC3             ; -----------------------
7180   1CC3             ; Greater than zero ($33)
7181   1CC3             ; -----------------------
7182   1CC3             
7183   1CC3             ; greater-0
7184   1CC3             SUB_1CC3:
7185   1CC3 7E              LD A,(HL)
7186   1CC4 A7              AND A
7187   1CC5 C8              RET Z
7188   1CC6 3E FF           LD A,$FF
7189   1CC8 18 07           JR L_1CD1
7190   1CCA             
7191   1CCA             
7192   1CCA             ; -------------------------
7193   1CCA             ; Handle NOT operator ($2C)
7194   1CCA             ; -------------------------
7195   1CCA             
7196   1CCA             ; not
7197   1CCA             SUB_1CCA:
7198   1CCA 7E              LD A,(HL)
7199   1CCB ED 44           NEG
7200   1CCD 3F              CCF
7201   1CCE 18 05           JR SUB_1CD5
7202   1CD0             
7203   1CD0             
7204   1CD0             ; -------------------
7205   1CD0             ; Less than zero (32)
7206   1CD0             ; -------------------
7207   1CD0             
7208   1CD0             ; less-0
7209   1CD0             SUB_1CD0:
7210   1CD0 AF              XOR A
7211   1CD1             
7212   1CD1             ; SIGN-TO-C
7213   1CD1             L_1CD1:
7214   1CD1 23              INC HL
7215   1CD2 AE              XOR (HL)
7216   1CD3 2B              DEC HL
7217   1CD4 07              RLCA
7218   1CD5             
7219   1CD5             ; -----------
7220   1CD5             ; Zero or one
7221   1CD5             ; -----------
7222   1CD5             
7223   1CD5             ; FP-0/1
7224   1CD5             SUB_1CD5:
7225   1CD5 E5              PUSH HL
7226   1CD6 06 05           LD B,$05
7227   1CD8             
7228   1CD8             ; FP-loop
7229   1CD8             L_1CD8:
7230   1CD8 36 00           LD (HL),$00
7231   1CDA 23              INC HL
7232   1CDB 10 FB           DJNZ L_1CD8
7233   1CDD E1              POP HL
7234   1CDE D0              RET NC
7235   1CDF 36 81           LD (HL),$81
7236   1CE1 C9              RET
7237   1CE2             
7238   1CE2             
7239   1CE2             ; -----------------------
7240   1CE2             ; Handle OR operator (07)
7241   1CE2             ; -----------------------
7242   1CE2             
7243   1CE2             ; or
7244   1CE2             SUB_1CE2:
7245   1CE2 1A              LD A,(DE)
7246   1CE3 A7              AND A
7247   1CE4 C8              RET Z
7248   1CE5 37              SCF
7249   1CE6 18 ED           JR SUB_1CD5
7250   1CE8             
7251   1CE8             
7252   1CE8             ; -----------------------------
7253   1CE8             ; Handle number AND number (08)
7254   1CE8             ; -----------------------------
7255   1CE8             
7256   1CE8             ; no-&-no
7257   1CE8             SUB_1CE8:
7258   1CE8 1A              LD A,(DE)
7259   1CE9 A7              AND A
7260   1CEA C0              RET NZ
7261   1CEB 18 E8           JR SUB_1CD5
7262   1CED             
7263   1CED             ; -----------------------------
7264   1CED             ; Handle string AND number (10)
7265   1CED             ; -----------------------------
7266   1CED             
7267   1CED             ; str-&-no
7268   1CED             SUB_1CED:
7269   1CED 1A              LD A,(DE)
7270   1CEE A7              AND A
7271   1CEF C0              RET NZ
7272   1CF0 D5              PUSH DE
7273   1CF1 1B              DEC DE
7274   1CF2 AF              XOR A
7275   1CF3 12              LD (DE),A
7276   1CF4 1B              DEC DE
7277   1CF5 12              LD (DE),A
7278   1CF6 D1              POP DE
7279   1CF7 C9              RET
7280   1CF8             
7281   1CF8             ; -------------------------------------
7282   1CF8             ; Perform comparison ($09-$0E, $11-$16)
7283   1CF8             ; -------------------------------------
7284   1CF8             
7285   1CF8             ; no-l-eql,etc.
7286   1CF8             SUB_1CF8:
7287   1CF8 78              LD A,B
7288   1CF9 D6 08           SUB $08
7289   1CFB CB 57           BIT 2,A
7290   1CFD 20 01           JR NZ,L_1D00
7291   1CFF 3D              DEC A
7292   1D00             
7293   1D00             ; EX-OR-NOT
7294   1D00             L_1D00:
7295   1D00 0F              RRCA
7296   1D01 30 08           JR NC,L_1D0B
7297   1D03 F5              PUSH AF
7298   1D04 E5              PUSH HL
7299   1D05 CD 67 1C        CALL SUB_1C67
7300   1D08 D1              POP DE
7301   1D09 EB              EX DE,HL
7302   1D0A F1              POP AF
7303   1D0B             
7304   1D0B             ; NU-OR-STR
7305   1D0B             L_1D0B:
7306   1D0B CB 57           BIT 2,A
7307   1D0D 20 07           JR NZ,L_1D16
7308   1D0F 0F              RRCA
7309   1D10 F5              PUSH AF
7310   1D11 CD 43 19        CALL SUB_1943
7311   1D14 18 33           JR L_1D49
7312   1D16             
7313   1D16             ; STRINGS
7314   1D16             L_1D16:
7315   1D16 0F              RRCA
7316   1D17 F5              PUSH AF
7317   1D18 CD ED 15        CALL SUB_15ED                       ; routine STK-FETCH
7318   1D1B D5              PUSH DE
7319   1D1C C5              PUSH BC
7320   1D1D CD ED 15        CALL SUB_15ED                       ; routine STK-FETCH
7321   1D20 E1              POP HL
7322   1D21             
7323   1D21             ; BYTE-COMP
7324   1D21             L_1D21:
7325   1D21 7C              LD A,H
7326   1D22 B5              OR L
7327   1D23 E3              EX (SP),HL
7328   1D24 78              LD A,B
7329   1D25 20 0B           JR NZ,L_1D32
7330   1D27 B1              OR C
7331   1D28             
7332   1D28             ; SECND-LOW
7333   1D28             L_1D28:
7334   1D28 C1              POP BC
7335   1D29 28 04           JR Z,L_1D2F
7336   1D2B F1              POP AF
7337   1D2C 3F              CCF
7338   1D2D 18 16           JR L_1D45
7339   1D2F             
7340   1D2F             ; BOTH-NULL
7341   1D2F             L_1D2F:
7342   1D2F F1              POP AF
7343   1D30 18 13           JR L_1D45
7344   1D32             
7345   1D32             ; SEC-PLUS
7346   1D32             L_1D32:
7347   1D32 B1              OR C
7348   1D33 28 0D           JR Z,L_1D42
7349   1D35 1A              LD A,(DE)
7350   1D36 96              SUB (HL)
7351   1D37 38 09           JR C,L_1D42
7352   1D39 20 ED           JR NZ,L_1D28
7353   1D3B 0B              DEC BC
7354   1D3C 13              INC DE
7355   1D3D 23              INC HL
7356   1D3E E3              EX (SP),HL
7357   1D3F 2B              DEC HL
7358   1D40 18 DF           JR L_1D21
7359   1D42             
7360   1D42             ; FRST-LESS
7361   1D42             L_1D42:
7362   1D42 C1              POP BC
7363   1D43 F1              POP AF
7364   1D44 A7              AND A
7365   1D45             
7366   1D45             ; STR-TEST
7367   1D45             L_1D45:
7368   1D45 F5              PUSH AF
7369   1D46 EF              RST 28H                             ; FP-CALC
7370   1D47 A0              .BYTE $A0                           ; stk-zero      an initial false value.
7371   1D48 34              .BYTE $34                           ; end-calc
7372   1D49             
7373   1D49             ; END-TESTS
7374   1D49             L_1D49:
7375   1D49 F1              POP AF
7376   1D4A F5              PUSH AF
7377   1D4B DC CA 1C        CALL C,SUB_1CCA
7378   1D4E CD C3 1C        CALL SUB_1CC3
7379   1D51 F1              POP AF
7380   1D52 0F              RRCA
7381   1D53 D4 CA 1C        CALL NC,SUB_1CCA
7382   1D56 C9              RET
7383   1D57             
7384   1D57             ; -------------------------
7385   1D57             ; String concatenation ($17)
7386   1D57             ; -------------------------
7387   1D57             
7388   1D57             ; strs-add
7389   1D57             SUB_1D57:
7390   1D57 CD ED 15        CALL SUB_15ED                       ; routine STK-FETCH
7391   1D5A D5              PUSH DE
7392   1D5B C5              PUSH BC
7393   1D5C CD ED 15        CALL SUB_15ED                       ; routine STK-FETCH
7394   1D5F E1              POP HL
7395   1D60 E5              PUSH HL
7396   1D61 D5              PUSH DE
7397   1D62 C5              PUSH BC
7398   1D63 09              ADD HL,BC
7399   1D64 44              LD B,H
7400   1D65 4D              LD C,L
7401   1D66 F7              RST 30H
7402   1D67 CD B8 14        CALL SUB_14B8
7403   1D6A C1              POP BC
7404   1D6B E1              POP HL
7405   1D6C 78              LD A,B
7406   1D6D B1              OR C
7407   1D6E 28 02           JR Z,L_1D72
7408   1D70 ED B0           LDIR
7409   1D72             
7410   1D72             ; OTHER-STR
7411   1D72             L_1D72:
7412   1D72 C1              POP BC
7413   1D73 E1              POP HL
7414   1D74 78              LD A,B
7415   1D75 B1              OR C
7416   1D76 28 02           JR Z,SUB_1D7A
7417   1D78 ED B0           LDIR
7418   1D7A             
7419   1D7A             ; --------------------
7420   1D7A             ; Check stack pointers
7421   1D7A             ; --------------------
7422   1D7A             
7423   1D7A             ; STK-PNTRS
7424   1D7A             SUB_1D7A:
7425   1D7A 2A 1C 40        LD HL,($401C)
7426   1D7D 11 FB FF        LD DE,$FFFB
7427   1D80 E5              PUSH HL
7428   1D81 19              ADD HL,DE
7429   1D82 D1              POP DE
7430   1D83 C9              RET
7431   1D84             
7432   1D84             ; ----------------
7433   1D84             ; Handle CHR$ (2B)
7434   1D84             ; ----------------
7435   1D84             
7436   1D84             ; chrs
7437   1D84             SUB_1D84:
7438   1D84 CD 83 10        CALL SUB_1083                       ; modified from ZX81 to inline REPORT-Bd
7439   1D87 F5              PUSH AF
7440   1D88 01 01 00        LD BC,$0001
7441   1D8B F7              RST 30H
7442   1D8C F1              POP AF
7443   1D8D 12              LD (DE),A
7444   1D8E CD B8 14        CALL SUB_14B8
7445   1D91 EB              EX DE,HL
7446   1D92 C9              RET
7447   1D93             
7448   1D93             ; ----------------
7449   1D93             ; Handle VAL ($1A)
7450   1D93             ; ----------------
7451   1D93             
7452   1D93             ; val
7453   1D93             SUB_1D93:
7454   1D93 2A 16 40        LD HL,($4016)                       ; CH.ADD - Address of next character to interpret
7455   1D96 E5              PUSH HL
7456   1D97 CD ED 15        CALL SUB_15ED                       ; routine STK-FETCH
7457   1D9A D5              PUSH DE
7458   1D9B 03              INC BC
7459   1D9C F7              RST 30H
7460   1D9D E1              POP HL
7461   1D9E ED 53 16 40     LD ($4016),DE                       ; CH.ADD
7462   1DA2 D5              PUSH DE
7463   1DA3 ED B0           LDIR
7464   1DA5 EB              EX DE,HL
7465   1DA6 2B              DEC HL
7466   1DA7 36 76           LD (HL),$76
7467   1DA9 FD CB 01 BE     RES 7,(IY+$01)
7468   1DAD CD 0F 0F        CALL SUB_0F0F
7469   1DB0 CD 9F 0E        CALL L_0E9F
7470   1DB3 E1              POP HL
7471   1DB4 22 16 40        LD ($4016),HL                       ; CH.ADD
7472   1DB7 FD CB 01 FE     SET 7,(IY+$01)
7473   1DBB CD 4A 11        CALL SUB_114A                       ; routine SCANNING
7474   1DBE E1              POP HL
7475   1DBF 22 16 40        LD ($4016),HL                       ; CH.ADD
7476   1DC2 18 B6           JR SUB_1D7A
7477   1DC4             
7478   1DC4             ; ----------------
7479   1DC4             ; Handle STR$ (2A)
7480   1DC4             ; ----------------
7481   1DC4             
7482   1DC4             ; str$
7483   1DC4             SUB_1DC4:
7484   1DC4 01 01 00        LD BC,$0001
7485   1DC7 F7              RST 30H
7486   1DC8 36 76           LD (HL),$76
7487   1DCA 2A 39 40        LD HL,($4039)
7488   1DCD E5              PUSH HL
7489   1DCE 2E FF           LD L,$FF
7490   1DD0 22 39 40        LD ($4039),HL
7491   1DD3 2A 0E 40        LD HL,($400E)
7492   1DD6 E5              PUSH HL
7493   1DD7 ED 53 0E 40     LD ($400E),DE
7494   1DDB D5              PUSH DE
7495   1DDC CD D3 17        CALL L_17D3
7496   1DDF D1              POP DE
7497   1DE0 2A 0E 40        LD HL,($400E)
7498   1DE3 A7              AND A
7499   1DE4 ED 52           SBC HL,DE
7500   1DE6 44              LD B,H
7501   1DE7 4D              LD C,L
7502   1DE8 E1              POP HL
7503   1DE9 22 0E 40        LD ($400E),HL
7504   1DEC E1              POP HL
7505   1DED 22 39 40        LD ($4039),HL
7506   1DF0 CD B8 14        CALL SUB_14B8
7507   1DF3 EB              EX DE,HL
7508   1DF4 C9              RET
7509   1DF5             
7510   1DF5             ; ------------------------
7511   1DF5             ; THE 'CODE' FUNCTION (19)
7512   1DF5             ; ------------------------
7513   1DF5             
7514   1DF5             ; code
7515   1DF5             SUB_1DF5:
7516   1DF5 CD ED 15        CALL SUB_15ED                       ; routine STK-FETCH
7517   1DF8 78              LD A,B
7518   1DF9 B1              OR C
7519   1DFA 28 01           JR Z,L_1DFD
7520   1DFC 1A              LD A,(DE)
7521   1DFD             
7522   1DFD             ; STK-CODE
7523   1DFD             L_1DFD:
7524   1DFD C3 15 17        JP SUB_1715
7525   1E00             
7526   1E00             ; -------------------------
7527   1E00             ; THE 'LEN' SUBROUTINE (1B)
7528   1E00             ; -------------------------
7529   1E00             
7530   1E00             ; len
7531   1E00             SUB_1E00:
7532   1E00 CD ED 15        CALL SUB_15ED                       ; routine STK-FETCH
7533   1E03 C3 18 17        JP SUB_1718
7534   1E06             
7535   1E06             ; ------------------------------------------
7536   1E06             ; THE 'DECREASE THE COUNTER' SUBROUTINE (31)
7537   1E06             ; ------------------------------------------
7538   1E06             
7539   1E06             ; dec-jr-nz
7540   1E06             SUB_1E06:
7541   1E06 D9              EXX
7542   1E07 E5              PUSH HL
7543   1E08 21 1E 40        LD HL,$401E
7544   1E0B 35              DEC (HL)
7545   1E0C E1              POP HL
7546   1E0D 20 04           JR NZ,L_1E13
7547   1E0F 23              INC HL
7548   1E10 D9              EXX
7549   1E11 C9              RET
7550   1E12             
7551   1E12             ; --------------------------
7552   1E12             ; THE 'JUMP' SUBROUTINE (2F)
7553   1E12             ; --------------------------
7554   1E12             
7555   1E12             ; jump
7556   1E12             SUB_1E12:
7557   1E12             L_1E12:
7558   1E12 D9              EXX
7559   1E13             
7560   1E13             ; JUMP-2
7561   1E13             L_1E13:
7562   1E13 5E              LD E,(HL)
7563   1E14 AF              XOR A
7564   1E15 CB 7B           BIT 7,E
7565   1E17 28 01           JR Z,L_1E1A
7566   1E19 2F              CPL
7567   1E1A             
7568   1E1A             ; JUMP-3
7569   1E1A             L_1E1A:
7570   1E1A 57              LD D,A
7571   1E1B 19              ADD HL,DE
7572   1E1C D9              EXX
7573   1E1D C9              RET
7574   1E1E             
7575   1E1E             ; ----------------------------------
7576   1E1E             ; THE 'JUMP ON TRUE' SUBROUTINE (00)
7577   1E1E             ; ----------------------------------
7578   1E1E             
7579   1E1E             ; jump-true
7580   1E1E             SUB_1E1E:
7581   1E1E 1A              LD A,(DE)
7582   1E1F A7              AND A
7583   1E20 20 F0           JR NZ,L_1E12
7584   1E22 D9              EXX
7585   1E23 23              INC HL
7586   1E24 D9              EXX
7587   1E25 C9              RET
7588   1E26             
7589   1E26             ; -----------------------------
7590   1E26             ; THE 'MODULUS' SUBROUTINE (2E)
7591   1E26             ; -----------------------------
7592   1E26             
7593   1E26             ; n-mod-m
7594   1E26             SUB_1E26:
7595   1E26 EF              RST 28H                             ; FP_CALC
7596   1E27 C0              .BYTE $C0                           ; st-mem-0          17, 3.
7597   1E28 02              .BYTE $02                           ; delete            17.
7598   1E29 2D              .BYTE $2D                           ; duplicate         17, 17.
7599   1E2A E0              .BYTE $E0                           ; get-mem-0         17, 17, 3.
7600   1E2B 05              .BYTE $05                           ; division          17, 17/3.
7601   1E2C 24              .BYTE $24                           ; int               17, 5.
7602   1E2D E0              .BYTE $E0                           ; get-mem-0         17, 5, 3.
7603   1E2E 01              .BYTE $01                           ; exchange          17, 3, 5.
7604   1E2F C0              .BYTE $C0                           ; st-mem-0          17, 3, 5.
7605   1E30 04              .BYTE $04                           ; multiply          17, 15.
7606   1E31 03              .BYTE $03                           ; subtract          2.
7607   1E32 E0              .BYTE $E0                           ; get-mem-0         2, 5.
7608   1E33 34              .BYTE $34                           ; end-calc          2, 5.
7609   1E34 C9              RET
7610   1E35             
7611   1E35             ; ---------------------------
7612   1E35             ; THE 'INTEGER' FUNCTION (24)
7613   1E35             ; ---------------------------
7614   1E35             
7615   1E35             ; int
7616   1E35             SUB_1E35:
7617   1E35 EF              RST 28H                             ; FP-CALC              x.    (= 3.4 or -3.4).
7618   1E36 2D              .BYTE $2D                           ; duplicate             x, x.
7619   1E37 32              .BYTE $32                           ; less-0                x, (1/0)
7620   1E38 00              .BYTE $00                           ; jump-true             x, (1/0)
7621   1E39 04              .BYTE $04                           ; to L1C46, X-NEG
7622   1E3A             
7623   1E3A 36              .BYTE $36                           ; truncate              trunc 3.4 = 3.
7624   1E3B 34              .BYTE $34                           ; end-calc              3.
7625   1E3C C9              RET
7626   1E3D             
7627   1E3D             ; X-NEG
7628   1E3D 2D              .BYTE $2D                           ; duplicate             -3.4, -3.4.
7629   1E3E 36              .BYTE $36                           ; truncate              -3.4, -3.
7630   1E3F C0              .BYTE $C0                           ; st-mem-0              -3.4, -3.
7631   1E40 03              .BYTE $03                           ; subtract              -.4
7632   1E41 E0              .BYTE $E0                           ; get-mem-0             -.4, -3.
7633   1E42 01              .BYTE $01                           ; exchange              -3, -.4.
7634   1E43 2C              .BYTE $2C                           ; not                   -3, (0).
7635   1E44 00              .BYTE $00                           ; jump-true             -3.
7636   1E45 03              .BYTE $03                           ; to L1C59, EXIT        -3.
7637   1E46             
7638   1E46 A1              .BYTE $A1                           ; stk-one               -3, 1.
7639   1E47 03              .BYTE $03                           ; subtract              -4.
7640   1E48             
7641   1E48             ;; EXIT
7642   1E48 34              .BYTE $34                           ; end-calc              -4.
7643   1E49 C9              RET
7644   1E4A             
7645   1E4A             ; ----------------
7646   1E4A             ; Exponential (23)
7647   1E4A             ; ----------------
7648   1E4A             ; EXP
7649   1E4A             SUB_1E4A:
7650   1E4A             L_1E4A:
7651   1E4A EF              RST 28H
7652   1E4B 30              .BYTE $30                           ; stk-data
7653   1E4C F1              .BYTE $F1                           ; Exponent: $81, Bytes: 4
7654   1E4D 38 AA 3B 29     .BYTE $38,$AA,$3B,$29
7655   1E51 04              .BYTE $04                           ; multiply
7656   1E52 2D              .BYTE $2D                           ; duplicate
7657   1E53 24              .BYTE $24                           ; int
7658   1E54 C3              .BYTE $C3                           ; st-mem-3
7659   1E55 03              .BYTE $03                           ; subtract
7660   1E56 2D              .BYTE $2D                           ; duplicate
7661   1E57 0F              .BYTE $0F                           ; addition
7662   1E58 A1              .BYTE $A1                           ; stk-one
7663   1E59 03              .BYTE $03                           ; subtract
7664   1E5A 88              .BYTE $88                           ; series-08
7665   1E5B 13              .BYTE $13                           ; Exponent: $63, Bytes: 1
7666   1E5C 36              .BYTE $36                           ; (+00,+00,+00)
7667   1E5D 58              .BYTE $58                           ; Exponent: $68, Bytes: 2
7668   1E5E 65 66           .BYTE $65,$66                       ; (+00,+00)
7669   1E60 9D              .BYTE $9D                           ; Exponent: $6D, Bytes: 3
7670   1E61 78 65 40        .BYTE $78,$65,$40                   ; (+00)
7671   1E64 A2              .BYTE $A2                           ; Exponent: $72, Bytes: 3
7672   1E65 60 32 C9        .BYTE $60,$32,$C9                   ; (+00)
7673   1E68 E7              .BYTE $E7                           ; Exponent: $77, Bytes: 4
7674   1E69 21 F7 AF 24     .BYTE $21,$F7,$AF,$24
7675   1E6D EB              .BYTE $EB                           ; Exponent: $7B, Bytes: 4
7676   1E6E 2F B0 B0 14     .BYTE $2F,$B0,$B0,$14
7677   1E72 EE              .BYTE $EE                           ; Exponent: $7E, Bytes: 4
7678   1E73 7E BB 94 58     .BYTE $7E,$BB,$94,$58
7679   1E77 F1              .BYTE $F1                           ; Exponent: $81, Bytes: 4
7680   1E78 3A 7E F8 CF     .BYTE $3A,$7E,$F8,$CF
7681   1E7C E3              .BYTE $E3                           ; get-mem-3
7682   1E7D 34              .BYTE $34                           ; end-calc
7683   1E7E             
7684   1E7E CD C5 17        CALL SUB_17C5
7685   1E81 20 07           JR NZ,L_1E8A
7686   1E83 38 03           JR C,L_1E88
7687   1E85 86              ADD A,(HL)
7688   1E86 30 09           JR NC,L_1E91
7689   1E88             
7690   1E88             ; REPORT-6b
7691   1E88             L_1E88:
7692   1E88 CF              RST 08H                             ; ERROR-1
7693   1E89 05              .BYTE $05                           ; OV arithmetic OVerflow
7694   1E8A             
7695   1E8A             ; N-NEGTV
7696   1E8A             L_1E8A:
7697   1E8A 38 07           JR C,L_1E93
7698   1E8C 96              SUB (HL)
7699   1E8D 30 04           JR NC,L_1E93
7700   1E8F ED 44           NEG
7701   1E91             
7702   1E91             ; RESULT-OK
7703   1E91             L_1E91:
7704   1E91 77              LD (HL),A
7705   1E92 C9              RET
7706   1E93             
7707   1E93             ; RSLT-ZERO
7708   1E93             L_1E93:
7709   1E93 EF              RST 28H                             ; FP-CALC
7710   1E94 02              .BYTE $02                           ; delete
7711   1E95 A0              .BYTE $A0                           ; stk-zero
7712   1E96 34              .BYTE $34                           ; end-calc
7713   1E97 C9              RET
7714   1E98             
7715   1E98             
7716   1E98             ; -------------------------------------
7717   1E98             ; THE 'NATURAL LOGARITHM' FUNCTION (22)
7718   1E98             ; -------------------------------------
7719   1E98             
7720   1E98             ; ln
7721   1E98             SUB_1E98:
7722   1E98 EF              RST 28H                             ; FP-CALC
7723   1E99 2D              .BYTE $2D                           ; duplicate
7724   1E9A 33              .BYTE $33                           ; greater-0
7725   1E9B 00              .BYTE $00                           ; jump-true
7726   1E9C 04              .BYTE $04                           ; to L1CB1, VALID
7727   1E9D 34              .BYTE $34                           ; end-calc
7728   1E9E             
7729   1E9E             ; REPORT-Ab
7730   1E9E CF              RST 08H                             ; ERROR-1
7731   1E9F 09              .BYTE $09                           ; AG invalid ArGument
7732   1EA0             
7733   1EA0             ; VALID
7734   1EA0 A0              .BYTE $A0                           ; stk-zero              Note. not
7735   1EA1 02              .BYTE $02                           ; delete                necessary.
7736   1EA2 34              .BYTE $34                           ; end-calc
7737   1EA3 7E              LD A,(HL)
7738   1EA4 36 80           LD (HL),$80
7739   1EA6 CD 15 17        CALL SUB_1715
7740   1EA9 EF              RST 28H                             ; FP-CALC
7741   1EAA 30              .BYTE $30                           ; stk-data
7742   1EAB 38              .BYTE $38                           ; Exponent: $88, Bytes: 1
7743   1EAC 00              .BYTE $00                           ; (+00,+00,+00)
7744   1EAD 03              .BYTE $03                           ; subtract
7745   1EAE 01              .BYTE $01                           ; exchange
7746   1EAF 2D              .BYTE $2D                           ; duplicate
7747   1EB0 30              .BYTE $30                           ; stk-data
7748   1EB1 F0              .BYTE $F0                           ; Exponent: $80, Bytes: 4
7749   1EB2 4C CC CC CD     .BYTE $4C,$CC,$CC,$CD
7750   1EB6 03              .BYTE $03                           ; subtract
7751   1EB7 33              .BYTE $33                           ; greater-0
7752   1EB8 00              .BYTE $00                           ; jump-true
7753   1EB9 08              .BYTE $08                           ; to L1CD2, GRE.8
7754   1EBA             
7755   1EBA 01              .BYTE $01                           ; exchange
7756   1EBB A1              .BYTE $A1                           ; stk-one
7757   1EBC 03              .BYTE $03                           ; subtract
7758   1EBD 01              .BYTE $01                           ; exchange
7759   1EBE 34              .BYTE $34                           ; end-calc
7760   1EBF 34              INC (HL)
7761   1EC0             
7762   1EC0 EF              RST 28H                             ; FP-CALC
7763   1EC1             
7764   1EC1             ;; GRE.8
7765   1EC1 01              .BYTE $01                           ; exchange
7766   1EC2 30              .BYTE $30                           ; stk-data
7767   1EC3 F0              .BYTE $F0                           ; Exponent: $80, Bytes: 4
7768   1EC4 31 72 17 F8     .BYTE $31,$72,$17,$F8
7769   1EC8 04              .BYTE $04                           ; multiply
7770   1EC9 01              .BYTE $01                           ; exchange
7771   1ECA A2              .BYTE $A2                           ; stk-half
7772   1ECB 03              .BYTE $03                           ; subtract
7773   1ECC A2              .BYTE $A2                           ; stk-half
7774   1ECD 03              .BYTE $03                           ; subtract
7775   1ECE 2D              .BYTE $2D                           ; duplicate
7776   1ECF 30              .BYTE $30                           ; stk-data
7777   1ED0 32              .BYTE $32                           ; Exponent: $82, Bytes: 1
7778   1ED1 20              .BYTE $20                           ; (+00,+00,+00)
7779   1ED2 04              .BYTE $04                           ; multiply
7780   1ED3 A2              .BYTE $A2                           ; stk-half
7781   1ED4 03              .BYTE $03                           ; subtract
7782   1ED5 8C              .BYTE $8C                           ; series-0C
7783   1ED6 11              .BYTE $11                           ; Exponent: $61, Bytes: 1
7784   1ED7 AC              .BYTE $AC                           ; (+00,+00,+00)
7785   1ED8 14              .BYTE $14                           ; Exponent: $64, Bytes: 1
7786   1ED9 09              .BYTE $09                           ; (+00,+00,+00)
7787   1EDA 56              .BYTE $56                           ; Exponent: $66, Bytes: 2
7788   1EDB DA A5           .BYTE $DA,$A5                       ; (+00,+00)
7789   1EDD 59              .BYTE $59                           ; Exponent: $69, Bytes: 2
7790   1EDE 30 C5           .BYTE $30,$C5                       ; (+00,+00)
7791   1EE0 5C              .BYTE $5C                           ; Exponent: $6C, Bytes: 2
7792   1EE1 90 AA           .BYTE $90,$AA                       ; (+00,+00)
7793   1EE3 9E              .BYTE $9E                           ; Exponent: $6E, Bytes: 3
7794   1EE4 70 6F 61        .BYTE $70,$6F,$61                   ; (+00)
7795   1EE7 A1              .BYTE $A1                           ; Exponent: $71, Bytes: 3
7796   1EE8 CB DA 96        .BYTE $CB,$DA,$96                   ; (+00)
7797   1EEB A4              .BYTE $A4                           ; Exponent: $74, Bytes: 3
7798   1EEC 31 9F B4        .BYTE $31,$9F,$B4                   ; (+00)
7799   1EEF E7              .BYTE $E7                           ; Exponent: $77, Bytes: 4
7800   1EF0 A0 FE 5C FC     .BYTE $A0,$FE,$5C,$FC
7801   1EF4 EA              .BYTE $EA                           ; Exponent: $7A, Bytes: 4
7802   1EF5 1B 43 CA 36     .BYTE $1B,$43,$CA,$36
7803   1EF9 ED              .BYTE $ED                           ; Exponent: $7D, Bytes: 4
7804   1EFA A7 9C 7E 5E     .BYTE $A7,$9C,$7E,$5E
7805   1EFE F0              .BYTE $F0                           ; Exponent: $80, Bytes: 4
7806   1EFF 6E 23 80 93     .BYTE $6E,$23,$80,$93
7807   1F03 04              .BYTE $04                           ; multiply
7808   1F04 0F              .BYTE $0F                           ; addition
7809   1F05 34              .BYTE $34                           ; end-calc
7810   1F06 C9              RET
7811   1F07             
7812   1F07             
7813   1F07             ; -----------------------------
7814   1F07             ; THE 'TRIGONOMETRIC' FUNCTIONS
7815   1F07             ; -----------------------------
7816   1F07             
7817   1F07             ;----- --------------------------------
7818   1F07             ; THE 'REDUCE ARGUMENT' SUBROUTINE (35)
7819   1F07             ; -------------------------------------
7820   1F07             
7821   1F07             ; get-argt
7822   1F07             SUB_1F07:
7823   1F07 EF              RST 28H                             ; FP-CALC         X.
7824   1F08 30              .BYTE $30                           ; stk-data
7825   1F09 EE              .BYTE $EE                           ; Exponent: $7E,
7826   1F0A                                                     ; Bytes: 4
7827   1F0A 22 F9 83 6E     .BYTE $22,$F9,$83,$6E               ;  X, 1/(2*PI)
7828   1F0E 04              .BYTE $04                           ; multiply         X/(2*PI) = fraction
7829   1F0F             
7830   1F0F 2D              .BYTE $2D                           ; duplicate
7831   1F10 A2              .BYTE $A2                           ; stk-half
7832   1F11 0F              .BYTE $0F                           ; addition
7833   1F12 24              .BYTE $24                           ; int
7834   1F13             
7835   1F13 03              .BYTE $03                           ; subtract         now range -.5 to .5
7836   1F14             
7837   1F14 2D              .BYTE $2D                           ; duplicate
7838   1F15 0F              .BYTE $0F                           ; addition         now range -1 to 1.
7839   1F16 2D              .BYTE $2D                           ; duplicate
7840   1F17 0F              .BYTE $0F                           ; addition         now range -2 to 2.
7841   1F18             
7842   1F18 2D              .BYTE $2D                           ; duplicate        Y, Y.
7843   1F19 27              .BYTE $27                           ; abs              Y, abs(Y).    range 1 to 2
7844   1F1A A1              .BYTE $A1                           ; stk-one          Y, abs(Y), 1.
7845   1F1B 03              .BYTE $03                           ; subtract         Y, abs(Y)-1.  range 0 to 1
7846   1F1C 2D              .BYTE $2D                           ; duplicate        Y, Z, Z.
7847   1F1D 33              .BYTE $33                           ; greater-0        Y, Z, (1/0).
7848   1F1E             
7849   1F1E C0              .BYTE $C0                           ; st-mem-0         store as possible sign for cosine function.
7850   1F1F             
7851   1F1F 00              .BYTE $00                           ; jump-true
7852   1F20 04              .BYTE $04                           ; to L1D35, ZPLUS  with quadrants II and III
7853   1F21             
7854   1F21 02              .BYTE $02                           ; delete          Y    delete test value.
7855   1F22 34              .BYTE $34                           ; end-calc        Y.
7856   1F23             
7857   1F23 C9              RET
7858   1F24             
7859   1F24             ; ZPLUS
7860   1F24 A1              .BYTE $A1                           ; stk-one         Y, Z, 1
7861   1F25 03              .BYTE $03                           ; subtract        Y, Z-1.       Q3 = 0 to -1
7862   1F26 01              .BYTE $01                           ; exchange        Z-1, Y.
7863   1F27 32              .BYTE $32                           ; less-0          Z-1, (1/0).
7864   1F28 00              .BYTE $00                           ; jump-true       Z-1.
7865   1F29 02              .BYTE $02                           ; to L1D3C, YNEG
7866   1F2A 18              .BYTE $18                           ; negate          range +1 to 0
7867   1F2B             ;; YNEG
7868   1F2B 34              .BYTE $34                           ; end-calc        quadrants II and III correct.
7869   1F2C C9              RET
7870   1F2D             
7871   1F2D             
7872   1F2D             ; --------------------------
7873   1F2D             ; THE 'COSINE' FUNCTION (1D)
7874   1F2D             ; --------------------------
7875   1F2D             
7876   1F2D             ; cos
7877   1F2D             SUB_1F2D:
7878   1F2D EF              RST 28H                             ; FP-CALC              angle in radians.
7879   1F2E 35              .BYTE $35                           ; get-argt              X       reduce -1 to +1
7880   1F2F 27              .BYTE $27                           ; abs                   ABS X   0 to 1
7881   1F30 A1              .BYTE $A1                           ; stk-one               ABS X, 1.
7882   1F31 03              .BYTE $03                           ; subtract              now opposite angle
7883   1F32                                                     ;                       though negative sign.
7884   1F32 E0              .BYTE $E0                           ; get-mem-0             fetch sign indicator.
7885   1F33 00              .BYTE $00                           ; jump-true
7886   1F34 06              .BYTE $06                           ; fwd to L1D4B, C-ENT
7887   1F35                                                     ; forward to common code if in QII or QIII
7888   1F35 18              .BYTE $18                           ; negate                else make positive.
7889   1F36 2F              .BYTE $2F                           ; jump
7890   1F37 03              .BYTE $03                           ; fwd to L1D4B, C-ENT
7891   1F38                                                     ; with quadrants QI and QIV
7892   1F38             
7893   1F38             ; ------------------------
7894   1F38             ; THE 'SINE' FUNCTION (1C)
7895   1F38             ; ------------------------
7896   1F38             
7897   1F38             ; sin
7898   1F38             SUB_1F38:
7899   1F38 EF              RST 28H                             ; FP-CALC      angle in radians
7900   1F39 35              .BYTE $35                           ; get-argt      reduce - sign now correct.
7901   1F3A             
7902   1F3A             ;; C-ENT
7903   1F3A 2D              .BYTE $2D                           ; duplicate
7904   1F3B 2D              .BYTE $2D                           ; duplicate
7905   1F3C 04              .BYTE $04                           ; multiply
7906   1F3D 2D              .BYTE $2D                           ; duplicate
7907   1F3E 0F              .BYTE $0F                           ; addition
7908   1F3F A1              .BYTE $A1                           ; stk-one
7909   1F40 03              .BYTE $03                           ; subtract
7910   1F41             
7911   1F41 86              .BYTE $86                           ; series-06
7912   1F42 14              .BYTE $14                           ; Exponent: $64, Bytes: 1
7913   1F43 E6              .BYTE $E6                           ; (+00,+00,+00)
7914   1F44 5C              .BYTE $5C                           ; Exponent: $6C, Bytes: 2
7915   1F45 1F 0B           .BYTE $1F,$0B                       ; (+00,+00)
7916   1F47 A3              .BYTE $A3                           ; Exponent: $73, Bytes: 3
7917   1F48 8F 38 EE        .BYTE $8F,$38,$EE                   ; (+00)
7918   1F4B E9              .BYTE $E9                           ; Exponent: $79, Bytes: 4
7919   1F4C 15 63 BB 23     .BYTE $15,$63,$BB,$23
7920   1F50 EE              .BYTE $EE                           ; Exponent: $7E, Bytes: 4
7921   1F51 92 0D CD ED     .BYTE $92,$0D,$CD,$ED
7922   1F55 F1              .BYTE $F1                           ; Exponent: $81, Bytes: 4
7923   1F56 23 5D 1B EA     .BYTE $23,$5D,$1B,$EA
7924   1F5A             
7925   1F5A 04              .BYTE $04                           ; multiply
7926   1F5B 34              .BYTE $34                           ; end-calc
7927   1F5C C9              RET
7928   1F5D             
7929   1F5D             ; ---------------------------
7930   1F5D             ; THE 'TANGENT' FUNCTION (1E)
7931   1F5D             ; ---------------------------
7932   1F5D             
7933   1F5D             ;; tan
7934   1F5D             SUB_1F5D:
7935   1F5D EF              RST 28H                             ; FP-CALC          x.
7936   1F5E 2D              .BYTE $2D                           ; duplicate         x, x.
7937   1F5F 1C              .BYTE $1C                           ; sin               x, sin x.
7938   1F60 01              .BYTE $01                           ; exchange          sin x, x.
7939   1F61 1D              .BYTE $1D                           ; cos               sin x, cos x.
7940   1F62 05              .BYTE $05                           ; division          sin x/cos x (= tan x).
7941   1F63 34              .BYTE $34                           ; end-calc          tan x.
7942   1F64 C9              RET
7943   1F65             
7944   1F65             ; --------------------------
7945   1F65             ; THE 'ARCTAN' FUNCTION (21)
7946   1F65             ; --------------------------
7947   1F65             
7948   1F65             ; atn
7949   1F65             SUB_1F65:
7950   1F65 7E              LD A,(HL)
7951   1F66 FE 81           CP $81
7952   1F68 38 0E           JR C,L_1F78
7953   1F6A EF              RST 28H                             ; FP-CALC      X.
7954   1F6B A1              .BYTE $A1                           ; stk-one
7955   1F6C 18              .BYTE $18                           ; negate
7956   1F6D 01              .BYTE $01                           ; exchange
7957   1F6E 05              .BYTE $05                           ; division
7958   1F6F 2D              .BYTE $2D                           ; duplicate
7959   1F70 32              .BYTE $32                           ; less-0
7960   1F71 A3              .BYTE $A3                           ; stk-pi/2
7961   1F72 01              .BYTE $01                           ; exchange
7962   1F73 00              .BYTE $00                           ; jump-true
7963   1F74 06              .BYTE $06                           ; to L1D8B, CASES
7964   1F75             
7965   1F75 18              .BYTE $18                           ; negate
7966   1F76 2F              .BYTE $2F                           ; jump
7967   1F77 03              .BYTE $03                           ; to L1D8B, CASES
7968   1F78             
7969   1F78             L_1F78:
7970   1F78             ; SMALL
7971   1F78 EF              RST 28H                             ; FP-CALC
7972   1F79 A0              .BYTE $A0                           ; stk-zero
7973   1F7A             
7974   1F7A             ;; CASES
7975   1F7A 01              .BYTE $01                           ; exchange
7976   1F7B 2D              .BYTE $2D                           ; duplicate
7977   1F7C 2D              .BYTE $2D                           ; duplicate
7978   1F7D 04              .BYTE $04                           ; multiply
7979   1F7E 2D              .BYTE $2D                           ; duplicate
7980   1F7F 0F              .BYTE $0F                           ; addition
7981   1F80 A1              .BYTE $A1                           ; stk-one
7982   1F81 03              .BYTE $03                           ; subtract
7983   1F82             
7984   1F82 8C              .BYTE $8C                           ; series-0C
7985   1F83 10              .BYTE $10                           ; Exponent: $60, Bytes: 1
7986   1F84 B2              .BYTE $B2                           ; (+00,+00,+00)
7987   1F85 13              .BYTE $13                           ; Exponent: $63, Bytes: 1
7988   1F86 0E              .BYTE $0E                           ; (+00,+00,+00)
7989   1F87 55              .BYTE $55                           ; Exponent: $65, Bytes: 2
7990   1F88 E4 8D           .BYTE $E4,$8D                       ; (+00,+00)
7991   1F8A 58              .BYTE $58                           ; Exponent: $68, Bytes: 2
7992   1F8B 39 BC           .BYTE $39,$BC                       ; (+00,+00)
7993   1F8D 5B              .BYTE $5B                           ; Exponent: $6B, Bytes: 2
7994   1F8E 98 FD           .BYTE $98,$FD                       ; (+00,+00)
7995   1F90 9E              .BYTE $9E                           ; Exponent: $6E, Bytes: 3
7996   1F91 00 36 75        .BYTE $00,$36,$75                   ; (+00)
7997   1F94 A0              .BYTE $A0                           ; Exponent: $70, Bytes: 3
7998   1F95 DB E8 B4        .BYTE $DB,$E8,$B4                   ; (+00)
7999   1F98 63              .BYTE $63                           ; Exponent: $73, Bytes: 2
8000   1F99 42 C4           .BYTE $42,$C4                       ; (+00,+00)
8001   1F9B E6              .BYTE $E6                           ; Exponent: $76, Bytes: 4
8002   1F9C B5 09 36 BE     .BYTE $B5,$09,$36,$BE
8003   1FA0 E9              .BYTE $E9                           ; Exponent: $79, Bytes: 4
8004   1FA1 36 73 1B 5D     .BYTE $36,$73,$1B,$5D
8005   1FA5 EC              .BYTE $EC                           ; Exponent: $7C, Bytes: 4
8006   1FA6 D8 DE 63 BE     .BYTE $D8,$DE,$63,$BE
8007   1FAA F0              .BYTE $F0                           ; Exponent: $80, Bytes: 4
8008   1FAB 61 A1 B3 0C     .BYTE $61,$A1,$B3,$0C
8009   1FAF             
8010   1FAF 04              .BYTE $04                           ; multiply
8011   1FB0 0F              .BYTE $0F                           ; addition
8012   1FB1 34              .BYTE $34                           ; end-calc
8013   1FB2 C9              RET
8014   1FB3             
8015   1FB3             ; --------------------------
8016   1FB3             ; THE 'ARCSIN' FUNCTION (1F)
8017   1FB3             ; --------------------------
8018   1FB3             ;; asn
8019   1FB3             SUB_1FB3:
8020   1FB3 EF              RST 28H                             ; FP-CALC      x.
8021   1FB4 2D              .BYTE $2D                           ; duplicate     x, x.
8022   1FB5 2D              .BYTE $2D                           ; duplicate     x, x, x.
8023   1FB6 04              .BYTE $04                           ; multiply      x, x*x.
8024   1FB7 A1              .BYTE $A1                           ; stk-one       x, x*x, 1.
8025   1FB8 03              .BYTE $03                           ; subtract      x, x*x-1.
8026   1FB9 18              .BYTE $18                           ; negate        x, 1-x*x.
8027   1FBA 25              .BYTE $25                           ; sqr           x, sqr(1-x*x) = y.
8028   1FBB A1              .BYTE $A1                           ; stk-one       x, y, 1.
8029   1FBC 0F              .BYTE $0F                           ; addition      x, y+1.
8030   1FBD 05              .BYTE $05                           ; division      x/y+1.
8031   1FBE 21              .BYTE $21                           ; atn           a/2     (half the angle)
8032   1FBF 2D              .BYTE $2D                           ; duplicate     a/2, a/2.
8033   1FC0 0F              .BYTE $0F                           ; addition      a.
8034   1FC1 34              .BYTE $34                           ; end-calc      a.
8035   1FC2 C9              RET
8036   1FC3             
8037   1FC3             ; --------------------------
8038   1FC3             ; THE 'ARCCOS' FUNCTION (20)
8039   1FC3             ; --------------------------
8040   1FC3             
8041   1FC3             ;; acs
8042   1FC3             SUB_1FC3:
8043   1FC3 EF              RST 28H                             ; FP-CALC      x.
8044   1FC4 1F              .BYTE $1F                           ; asn           asn(x).
8045   1FC5 A3              .BYTE $A3                           ; stk-pi/2      asn(x), pi/2.
8046   1FC6 03              .BYTE $03                           ; subtract      asn(x) - pi/2.
8047   1FC7 18              .BYTE $18                           ; negate        pi/2 - asn(x) = acs(x).
8048   1FC8 34              .BYTE $34                           ; end-calc      acs(x)
8049   1FC9 C9              RET
8050   1FCA             
8051   1FCA             ; -------------------------------
8052   1FCA             ; THE 'SQUARE ROOT' FUNCTION (25)
8053   1FCA             ; -------------------------------
8054   1FCA             
8055   1FCA             ; sqr
8056   1FCA             SUB_1FCA:
8057   1FCA EF              RST 28H                             ; FP-CALC              x.
8058   1FCB 2D              .BYTE $2D                           ; duplicate             x, x.
8059   1FCC 2C              .BYTE $2C                           ; not                   x, 1/0
8060   1FCD 00              .BYTE $00                           ; jump-true             x, (1/0).
8061   1FCE 1E              .BYTE $1E                           ; to L1DFD, LAST        exit if argument zero
8062   1FCF A2              .BYTE $A2                           ; stk-half              x, .5.
8063   1FD0 34              .BYTE $34                           ; end-calc              x, .5.
8064   1FD1             
8065   1FD1             ; -----------------------------------
8066   1FD1             ; THE 'EXPONENTIATION' OPERATION (06)
8067   1FD1             ; -----------------------------------
8068   1FD1             
8069   1FD1             ; to-power
8070   1FD1             SUB_1FD1:
8071   1FD1 EF              RST 28H                             ; FP-CALC              X,Y.
8072   1FD2 01              .BYTE $01                           ; exchange              Y,X.
8073   1FD3 2D              .BYTE $2D                           ; duplicate             Y,X,X.
8074   1FD4 2C              .BYTE $2C                           ; not                   Y,X,(1/0).
8075   1FD5 00              .BYTE $00                           ; jump-true
8076   1FD6 07              .BYTE $07                           ; forward to L1DEE, XISO if X is zero.
8077   1FD7             
8078   1FD7             ;   else X is non-zero. function 'ln' will catch a negative value of X.
8079   1FD7             
8080   1FD7 22              .BYTE $22                           ; ln                    Y, LN X.
8081   1FD8 04              .BYTE $04                           ; multiply              Y * LN X
8082   1FD9 34              .BYTE $34                           ; end-calc
8083   1FDA C3 4A 1E        JP L_1E4A
8084   1FDD             
8085   1FDD             ; XISO
8086   1FDD 02              .BYTE $02                           ; delete                Y.
8087   1FDE 2D              .BYTE $2D                           ; duplicate             Y, Y.
8088   1FDF 2C              .BYTE $2C                           ; not                   Y, (1/0).
8089   1FE0 00              .BYTE $00                           ; jump-true
8090   1FE1 09              .BYTE $09                           ; forward to L1DFB, ONE if Y is zero.
8091   1FE2 A0              .BYTE $A0                           ; stk-zero              Y, 0.
8092   1FE3 01              .BYTE $01                           ; exchange              0, Y.
8093   1FE4 33              .BYTE $33                           ; greater-0             0, (1/0).
8094   1FE5 00              .BYTE $00                           ; jump-true             0
8095   1FE6 06              .BYTE $06                           ; to L1DFD, LAST        if Y was any positive number.
8096   1FE7 A1              .BYTE $A1                           ; stk-one               0, 1.
8097   1FE8 01              .BYTE $01                           ; exchange              1, 0.
8098   1FE9 05              .BYTE $05                           ; division              1/0    >> error
8099   1FEA             ; ONE
8100   1FEA 02              .BYTE $02                           ; delete                .
8101   1FEB A1              .BYTE $A1                           ; stk-one               1.
8102   1FEC             
8103   1FEC             ; LAST
8104   1FEC 34              .BYTE $34                           ; end-calc              last value 1 or 0.
8105   1FED C9              RET
8106   1FEE             
8107   1FEE             ; ---------------------
8108   1FEE             ; THE 'SPARE LOCATIONS'
8109   1FEE             ; ---------------------
8110   1FEE             
8111   1FEE             ; SPARE
8112   1FEE 00              NOP
8113   1FEF 00              NOP
8114   1FF0 00              NOP
8115   1FF1 00              NOP
8116   1FF2 00              NOP
8117   1FF3 00              NOP
8118   1FF4 00              NOP
8119   1FF5 00              NOP
8120   1FF6 00              NOP
8121   1FF7 00              NOP
8122   1FF8 00              NOP
8123   1FF9 00              NOP
8124   1FFA 00              NOP
8125   1FFB 00              NOP
8126   1FFC 00              NOP
8127   1FFD 00              NOP
8128   1FFE 00              NOP
8129   1FFF 00              NOP
8130   2000             
8131   2000             .ORG $2000
8132   2000             
8133   2000             ; video RAM is here
8134   2000             
8135   2000 FF FF FF FF .FILL $0800, $FF
8135   2004 FF FF FF FF 
8135   2008 FF FF FF FF 
8135   200C FF FF FF FF 
8135   2010 FF FF FF FF 
8135   2014 FF FF FF FF 
8135   2018 FF FF FF FF 
8135   201C FF FF FF FF 
8135   2020 FF FF FF FF 
8135   2024 FF FF FF FF 
8135   2028 FF FF FF FF 
8135   202C FF FF FF FF 
8135   2030 FF FF FF FF 
8135   2034 FF FF FF FF 
8135   2038 FF FF FF FF 
8135   203C FF FF FF FF 
8135   2040 FF FF FF FF 
8135   2044 FF FF FF FF 
8135   2048 FF FF FF FF 
8135   204C FF FF FF FF 
8135   2050 FF FF FF FF 
8135   2054 FF FF FF FF 
8135   2058 FF FF FF FF 
8135   205C FF FF FF FF 
8135   2060 FF FF FF FF 
8135   2064 FF FF FF FF 
8135   2068 FF FF FF FF 
8135   206C FF FF FF FF 
8135   2070 FF FF FF FF 
8135   2074 FF FF FF FF 
8135   2078 FF FF FF FF 
8135   207C FF FF FF FF 
8135   2080 FF FF FF FF 
8135   2084 FF FF FF FF 
8135   2088 FF FF FF FF 
8135   208C FF FF FF FF 
8135   2090 FF FF FF FF 
8135   2094 FF FF FF FF 
8135   2098 FF FF FF FF 
8135   209C FF FF FF FF 
8135   20A0 FF FF FF FF 
8135   20A4 FF FF FF FF 
8135   20A8 FF FF FF FF 
8135   20AC FF FF FF FF 
8135   20B0 FF FF FF FF 
8135   20B4 FF FF FF FF 
8135   20B8 FF FF FF FF 
8135   20BC FF FF FF FF 
8135   20C0 FF FF FF FF 
8135   20C4 FF FF FF FF 
8135   20C8 FF FF FF FF 
8135   20CC FF FF FF FF 
8135   20D0 FF FF FF FF 
8135   20D4 FF FF FF FF 
8135   20D8 FF FF FF FF 
8135   20DC FF FF FF FF 
8135   20E0 FF FF FF FF 
8135   20E4 FF FF FF FF 
8135   20E8 FF FF FF FF 
8135   20EC FF FF FF FF 
8135   20F0 FF FF FF FF 
8135   20F4 FF FF FF FF 
8135   20F8 FF FF FF FF 
8135   20FC FF FF FF FF 
8135   2100 FF FF FF FF 
8135   2104 FF FF FF FF 
8135   2108 FF FF FF FF 
8135   210C FF FF FF FF 
8135   2110 FF FF FF FF 
8135   2114 FF FF FF FF 
8135   2118 FF FF FF FF 
8135   211C FF FF FF FF 
8135   2120 FF FF FF FF 
8135   2124 FF FF FF FF 
8135   2128 FF FF FF FF 
8135   212C FF FF FF FF 
8135   2130 FF FF FF FF 
8135   2134 FF FF FF FF 
8135   2138 FF FF FF FF 
8135   213C FF FF FF FF 
8135   2140 FF FF FF FF 
8135   2144 FF FF FF FF 
8135   2148 FF FF FF FF 
8135   214C FF FF FF FF 
8135   2150 FF FF FF FF 
8135   2154 FF FF FF FF 
8135   2158 FF FF FF FF 
8135   215C FF FF FF FF 
8135   2160 FF FF FF FF 
8135   2164 FF FF FF FF 
8135   2168 FF FF FF FF 
8135   216C FF FF FF FF 
8135   2170 FF FF FF FF 
8135   2174 FF FF FF FF 
8135   2178 FF FF FF FF 
8135   217C FF FF FF FF 
8135   2180 FF FF FF FF 
8135   2184 FF FF FF FF 
8135   2188 FF FF FF FF 
8135   218C FF FF FF FF 
8135   2190 FF FF FF FF 
8135   2194 FF FF FF FF 
8135   2198 FF FF FF FF 
8135   219C FF FF FF FF 
8135   21A0 FF FF FF FF 
8135   21A4 FF FF FF FF 
8135   21A8 FF FF FF FF 
8135   21AC FF FF FF FF 
8135   21B0 FF FF FF FF 
8135   21B4 FF FF FF FF 
8135   21B8 FF FF FF FF 
8135   21BC FF FF FF FF 
8135   21C0 FF FF FF FF 
8135   21C4 FF FF FF FF 
8135   21C8 FF FF FF FF 
8135   21CC FF FF FF FF 
8135   21D0 FF FF FF FF 
8135   21D4 FF FF FF FF 
8135   21D8 FF FF FF FF 
8135   21DC FF FF FF FF 
8135   21E0 FF FF FF FF 
8135   21E4 FF FF FF FF 
8135   21E8 FF FF FF FF 
8135   21EC FF FF FF FF 
8135   21F0 FF FF FF FF 
8135   21F4 FF FF FF FF 
8135   21F8 FF FF FF FF 
8135   21FC FF FF FF FF 
8135   2200 FF FF FF FF 
8135   2204 FF FF FF FF 
8135   2208 FF FF FF FF 
8135   220C FF FF FF FF 
8135   2210 FF FF FF FF 
8135   2214 FF FF FF FF 
8135   2218 FF FF FF FF 
8135   221C FF FF FF FF 
8135   2220 FF FF FF FF 
8135   2224 FF FF FF FF 
8135   2228 FF FF FF FF 
8135   222C FF FF FF FF 
8135   2230 FF FF FF FF 
8135   2234 FF FF FF FF 
8135   2238 FF FF FF FF 
8135   223C FF FF FF FF 
8135   2240 FF FF FF FF 
8135   2244 FF FF FF FF 
8135   2248 FF FF FF FF 
8135   224C FF FF FF FF 
8135   2250 FF FF FF FF 
8135   2254 FF FF FF FF 
8135   2258 FF FF FF FF 
8135   225C FF FF FF FF 
8135   2260 FF FF FF FF 
8135   2264 FF FF FF FF 
8135   2268 FF FF FF FF 
8135   226C FF FF FF FF 
8135   2270 FF FF FF FF 
8135   2274 FF FF FF FF 
8135   2278 FF FF FF FF 
8135   227C FF FF FF FF 
8135   2280 FF FF FF FF 
8135   2284 FF FF FF FF 
8135   2288 FF FF FF FF 
8135   228C FF FF FF FF 
8135   2290 FF FF FF FF 
8135   2294 FF FF FF FF 
8135   2298 FF FF FF FF 
8135   229C FF FF FF FF 
8135   22A0 FF FF FF FF 
8135   22A4 FF FF FF FF 
8135   22A8 FF FF FF FF 
8135   22AC FF FF FF FF 
8135   22B0 FF FF FF FF 
8135   22B4 FF FF FF FF 
8135   22B8 FF FF FF FF 
8135   22BC FF FF FF FF 
8135   22C0 FF FF FF FF 
8135   22C4 FF FF FF FF 
8135   22C8 FF FF FF FF 
8135   22CC FF FF FF FF 
8135   22D0 FF FF FF FF 
8135   22D4 FF FF FF FF 
8135   22D8 FF FF FF FF 
8135   22DC FF FF FF FF 
8135   22E0 FF FF FF FF 
8135   22E4 FF FF FF FF 
8135   22E8 FF FF FF FF 
8135   22EC FF FF FF FF 
8135   22F0 FF FF FF FF 
8135   22F4 FF FF FF FF 
8135   22F8 FF FF FF FF 
8135   22FC FF FF FF FF 
8135   2300 FF FF FF FF 
8135   2304 FF FF FF FF 
8135   2308 FF FF FF FF 
8135   230C FF FF FF FF 
8135   2310 FF FF FF FF 
8135   2314 FF FF FF FF 
8135   2318 FF FF FF FF 
8135   231C FF FF FF FF 
8135   2320 FF FF FF FF 
8135   2324 FF FF FF FF 
8135   2328 FF FF FF FF 
8135   232C FF FF FF FF 
8135   2330 FF FF FF FF 
8135   2334 FF FF FF FF 
8135   2338 FF FF FF FF 
8135   233C FF FF FF FF 
8135   2340 FF FF FF FF 
8135   2344 FF FF FF FF 
8135   2348 FF FF FF FF 
8135   234C FF FF FF FF 
8135   2350 FF FF FF FF 
8135   2354 FF FF FF FF 
8135   2358 FF FF FF FF 
8135   235C FF FF FF FF 
8135   2360 FF FF FF FF 
8135   2364 FF FF FF FF 
8135   2368 FF FF FF FF 
8135   236C FF FF FF FF 
8135   2370 FF FF FF FF 
8135   2374 FF FF FF FF 
8135   2378 FF FF FF FF 
8135   237C FF FF FF FF 
8135   2380 FF FF FF FF 
8135   2384 FF FF FF FF 
8135   2388 FF FF FF FF 
8135   238C FF FF FF FF 
8135   2390 FF FF FF FF 
8135   2394 FF FF FF FF 
8135   2398 FF FF FF FF 
8135   239C FF FF FF FF 
8135   23A0 FF FF FF FF 
8135   23A4 FF FF FF FF 
8135   23A8 FF FF FF FF 
8135   23AC FF FF FF FF 
8135   23B0 FF FF FF FF 
8135   23B4 FF FF FF FF 
8135   23B8 FF FF FF FF 
8135   23BC FF FF FF FF 
8135   23C0 FF FF FF FF 
8135   23C4 FF FF FF FF 
8135   23C8 FF FF FF FF 
8135   23CC FF FF FF FF 
8135   23D0 FF FF FF FF 
8135   23D4 FF FF FF FF 
8135   23D8 FF FF FF FF 
8135   23DC FF FF FF FF 
8135   23E0 FF FF FF FF 
8135   23E4 FF FF FF FF 
8135   23E8 FF FF FF FF 
8135   23EC FF FF FF FF 
8135   23F0 FF FF FF FF 
8135   23F4 FF FF FF FF 
8135   23F8 FF FF FF FF 
8135   23FC FF FF FF FF 
8135   2400 FF FF FF FF 
8135   2404 FF FF FF FF 
8135   2408 FF FF FF FF 
8135   240C FF FF FF FF 
8135   2410 FF FF FF FF 
8135   2414 FF FF FF FF 
8135   2418 FF FF FF FF 
8135   241C FF FF FF FF 
8135   2420 FF FF FF FF 
8135   2424 FF FF FF FF 
8135   2428 FF FF FF FF 
8135   242C FF FF FF FF 
8135   2430 FF FF FF FF 
8135   2434 FF FF FF FF 
8135   2438 FF FF FF FF 
8135   243C FF FF FF FF 
8135   2440 FF FF FF FF 
8135   2444 FF FF FF FF 
8135   2448 FF FF FF FF 
8135   244C FF FF FF FF 
8135   2450 FF FF FF FF 
8135   2454 FF FF FF FF 
8135   2458 FF FF FF FF 
8135   245C FF FF FF FF 
8135   2460 FF FF FF FF 
8135   2464 FF FF FF FF 
8135   2468 FF FF FF FF 
8135   246C FF FF FF FF 
8135   2470 FF FF FF FF 
8135   2474 FF FF FF FF 
8135   2478 FF FF FF FF 
8135   247C FF FF FF FF 
8135   2480 FF FF FF FF 
8135   2484 FF FF FF FF 
8135   2488 FF FF FF FF 
8135   248C FF FF FF FF 
8135   2490 FF FF FF FF 
8135   2494 FF FF FF FF 
8135   2498 FF FF FF FF 
8135   249C FF FF FF FF 
8135   24A0 FF FF FF FF 
8135   24A4 FF FF FF FF 
8135   24A8 FF FF FF FF 
8135   24AC FF FF FF FF 
8135   24B0 FF FF FF FF 
8135   24B4 FF FF FF FF 
8135   24B8 FF FF FF FF 
8135   24BC FF FF FF FF 
8135   24C0 FF FF FF FF 
8135   24C4 FF FF FF FF 
8135   24C8 FF FF FF FF 
8135   24CC FF FF FF FF 
8135   24D0 FF FF FF FF 
8135   24D4 FF FF FF FF 
8135   24D8 FF FF FF FF 
8135   24DC FF FF FF FF 
8135   24E0 FF FF FF FF 
8135   24E4 FF FF FF FF 
8135   24E8 FF FF FF FF 
8135   24EC FF FF FF FF 
8135   24F0 FF FF FF FF 
8135   24F4 FF FF FF FF 
8135   24F8 FF FF FF FF 
8135   24FC FF FF FF FF 
8135   2500 FF FF FF FF 
8135   2504 FF FF FF FF 
8135   2508 FF FF FF FF 
8135   250C FF FF FF FF 
8135   2510 FF FF FF FF 
8135   2514 FF FF FF FF 
8135   2518 FF FF FF FF 
8135   251C FF FF FF FF 
8135   2520 FF FF FF FF 
8135   2524 FF FF FF FF 
8135   2528 FF FF FF FF 
8135   252C FF FF FF FF 
8135   2530 FF FF FF FF 
8135   2534 FF FF FF FF 
8135   2538 FF FF FF FF 
8135   253C FF FF FF FF 
8135   2540 FF FF FF FF 
8135   2544 FF FF FF FF 
8135   2548 FF FF FF FF 
8135   254C FF FF FF FF 
8135   2550 FF FF FF FF 
8135   2554 FF FF FF FF 
8135   2558 FF FF FF FF 
8135   255C FF FF FF FF 
8135   2560 FF FF FF FF 
8135   2564 FF FF FF FF 
8135   2568 FF FF FF FF 
8135   256C FF FF FF FF 
8135   2570 FF FF FF FF 
8135   2574 FF FF FF FF 
8135   2578 FF FF FF FF 
8135   257C FF FF FF FF 
8135   2580 FF FF FF FF 
8135   2584 FF FF FF FF 
8135   2588 FF FF FF FF 
8135   258C FF FF FF FF 
8135   2590 FF FF FF FF 
8135   2594 FF FF FF FF 
8135   2598 FF FF FF FF 
8135   259C FF FF FF FF 
8135   25A0 FF FF FF FF 
8135   25A4 FF FF FF FF 
8135   25A8 FF FF FF FF 
8135   25AC FF FF FF FF 
8135   25B0 FF FF FF FF 
8135   25B4 FF FF FF FF 
8135   25B8 FF FF FF FF 
8135   25BC FF FF FF FF 
8135   25C0 FF FF FF FF 
8135   25C4 FF FF FF FF 
8135   25C8 FF FF FF FF 
8135   25CC FF FF FF FF 
8135   25D0 FF FF FF FF 
8135   25D4 FF FF FF FF 
8135   25D8 FF FF FF FF 
8135   25DC FF FF FF FF 
8135   25E0 FF FF FF FF 
8135   25E4 FF FF FF FF 
8135   25E8 FF FF FF FF 
8135   25EC FF FF FF FF 
8135   25F0 FF FF FF FF 
8135   25F4 FF FF FF FF 
8135   25F8 FF FF FF FF 
8135   25FC FF FF FF FF 
8135   2600 FF FF FF FF 
8135   2604 FF FF FF FF 
8135   2608 FF FF FF FF 
8135   260C FF FF FF FF 
8135   2610 FF FF FF FF 
8135   2614 FF FF FF FF 
8135   2618 FF FF FF FF 
8135   261C FF FF FF FF 
8135   2620 FF FF FF FF 
8135   2624 FF FF FF FF 
8135   2628 FF FF FF FF 
8135   262C FF FF FF FF 
8135   2630 FF FF FF FF 
8135   2634 FF FF FF FF 
8135   2638 FF FF FF FF 
8135   263C FF FF FF FF 
8135   2640 FF FF FF FF 
8135   2644 FF FF FF FF 
8135   2648 FF FF FF FF 
8135   264C FF FF FF FF 
8135   2650 FF FF FF FF 
8135   2654 FF FF FF FF 
8135   2658 FF FF FF FF 
8135   265C FF FF FF FF 
8135   2660 FF FF FF FF 
8135   2664 FF FF FF FF 
8135   2668 FF FF FF FF 
8135   266C FF FF FF FF 
8135   2670 FF FF FF FF 
8135   2674 FF FF FF FF 
8135   2678 FF FF FF FF 
8135   267C FF FF FF FF 
8135   2680 FF FF FF FF 
8135   2684 FF FF FF FF 
8135   2688 FF FF FF FF 
8135   268C FF FF FF FF 
8135   2690 FF FF FF FF 
8135   2694 FF FF FF FF 
8135   2698 FF FF FF FF 
8135   269C FF FF FF FF 
8135   26A0 FF FF FF FF 
8135   26A4 FF FF FF FF 
8135   26A8 FF FF FF FF 
8135   26AC FF FF FF FF 
8135   26B0 FF FF FF FF 
8135   26B4 FF FF FF FF 
8135   26B8 FF FF FF FF 
8135   26BC FF FF FF FF 
8135   26C0 FF FF FF FF 
8135   26C4 FF FF FF FF 
8135   26C8 FF FF FF FF 
8135   26CC FF FF FF FF 
8135   26D0 FF FF FF FF 
8135   26D4 FF FF FF FF 
8135   26D8 FF FF FF FF 
8135   26DC FF FF FF FF 
8135   26E0 FF FF FF FF 
8135   26E4 FF FF FF FF 
8135   26E8 FF FF FF FF 
8135   26EC FF FF FF FF 
8135   26F0 FF FF FF FF 
8135   26F4 FF FF FF FF 
8135   26F8 FF FF FF FF 
8135   26FC FF FF FF FF 
8135   2700 FF FF FF FF 
8135   2704 FF FF FF FF 
8135   2708 FF FF FF FF 
8135   270C FF FF FF FF 
8135   2710 FF FF FF FF 
8135   2714 FF FF FF FF 
8135   2718 FF FF FF FF 
8135   271C FF FF FF FF 
8135   2720 FF FF FF FF 
8135   2724 FF FF FF FF 
8135   2728 FF FF FF FF 
8135   272C FF FF FF FF 
8135   2730 FF FF FF FF 
8135   2734 FF FF FF FF 
8135   2738 FF FF FF FF 
8135   273C FF FF FF FF 
8135   2740 FF FF FF FF 
8135   2744 FF FF FF FF 
8135   2748 FF FF FF FF 
8135   274C FF FF FF FF 
8135   2750 FF FF FF FF 
8135   2754 FF FF FF FF 
8135   2758 FF FF FF FF 
8135   275C FF FF FF FF 
8135   2760 FF FF FF FF 
8135   2764 FF FF FF FF 
8135   2768 FF FF FF FF 
8135   276C FF FF FF FF 
8135   2770 FF FF FF FF 
8135   2774 FF FF FF FF 
8135   2778 FF FF FF FF 
8135   277C FF FF FF FF 
8135   2780 FF FF FF FF 
8135   2784 FF FF FF FF 
8135   2788 FF FF FF FF 
8135   278C FF FF FF FF 
8135   2790 FF FF FF FF 
8135   2794 FF FF FF FF 
8135   2798 FF FF FF FF 
8135   279C FF FF FF FF 
8135   27A0 FF FF FF FF 
8135   27A4 FF FF FF FF 
8135   27A8 FF FF FF FF 
8135   27AC FF FF FF FF 
8135   27B0 FF FF FF FF 
8135   27B4 FF FF FF FF 
8135   27B8 FF FF FF FF 
8135   27BC FF FF FF FF 
8135   27C0 FF FF FF FF 
8135   27C4 FF FF FF FF 
8135   27C8 FF FF FF FF 
8135   27CC FF FF FF FF 
8135   27D0 FF FF FF FF 
8135   27D4 FF FF FF FF 
8135   27D8 FF FF FF FF 
8135   27DC FF FF FF FF 
8135   27E0 FF FF FF FF 
8135   27E4 FF FF FF FF 
8135   27E8 FF FF FF FF 
8135   27EC FF FF FF FF 
8135   27F0 FF FF FF FF 
8135   27F4 FF FF FF FF 
8135   27F8 FF FF FF FF 
8135   27FC FF FF FF FF 
8136   2800             
8137   2800             .ORG $2800
8138   2800             .INCLUDE "Font.asm"
0001+  2800             ;##############################################################################
0002+  2800             ; Character defines
0003+  2800             __          .EQU $00
0004+  2800             _SPACE      .EQU $00
0005+  2800             _SNOW       .EQU $08
0006+  2800             _DASH       .EQU $16
0007+  2800             _DOT        .EQU $1B
0008+  2800             _0 	        .EQU $1C
0009+  2800             _1 	        .EQU $1D
0010+  2800             _2 	        .EQU $1E
0011+  2800             _3 	        .EQU $1F
0012+  2800             _4 	        .EQU $20
0013+  2800             _5 	        .EQU $21
0014+  2800             _6 	        .EQU $22
0015+  2800             _7 	        .EQU $23
0016+  2800             _8 	        .EQU $24
0017+  2800             _9 	        .EQU $25
0018+  2800             _A 	        .EQU $26
0019+  2800             _B 	        .EQU $27
0020+  2800             _C 	        .EQU $28
0021+  2800             _D 	        .EQU $29
0022+  2800             _E 	        .EQU $2A
0023+  2800             _F 	        .EQU $2B
0024+  2800             _G 	        .EQU $2C
0025+  2800             _H 	        .EQU $2D
0026+  2800             _I 	        .EQU $2E
0027+  2800             _J 	        .EQU $2F
0028+  2800             _K 	        .EQU $30
0029+  2800             _L 	        .EQU $31
0030+  2800             _M 	        .EQU $32
0031+  2800             _N 	        .EQU $33
0032+  2800             _O 	        .EQU $34
0033+  2800             _P 	        .EQU $35
0034+  2800             _Q 	        .EQU $36
0035+  2800             _R 	        .EQU $37
0036+  2800             _S 	        .EQU $38
0037+  2800             _T 	        .EQU $39
0038+  2800             _U 	        .EQU $3A
0039+  2800             _V 	        .EQU $3B
0040+  2800             _W 	        .EQU $3C
0041+  2800             _X 	        .EQU $3D
0042+  2800             _Y 	        .EQU $3E
0043+  2800             _Z 	        .EQU $3F
0044+  2800             _NEW_LINE   .EQU $76
0045+  2800             
0046+  2800             ;##############################################################################
0047+  2800             ; Lamdba 8300 character set
0048+  2800             
0049+  2800             FONT:
0050+  2800             ; Character $00
0051+  2800 00          	.BYTE %00000000                        ; ........
0052+  2801 00          	.BYTE %00000000                        ; ........
0053+  2802 00          	.BYTE %00000000                        ; ........
0054+  2803 00          	.BYTE %00000000                        ; ........
0055+  2804 00          	.BYTE %00000000                        ; ........
0056+  2805 00          	.BYTE %00000000                        ; ........
0057+  2806 00          	.BYTE %00000000                        ; ........
0058+  2807 00          	.BYTE %00000000                        ; ........
0059+  2808             
0060+  2808             ; Character $01
0061+  2808 F0          	.BYTE %11110000                        ; OOOO....
0062+  2809 F0          	.BYTE %11110000                        ; OOOO....
0063+  280A F0          	.BYTE %11110000                        ; OOOO....
0064+  280B F0          	.BYTE %11110000                        ; OOOO....
0065+  280C 00          	.BYTE %00000000                        ; ........
0066+  280D 00          	.BYTE %00000000                        ; ........
0067+  280E 00          	.BYTE %00000000                        ; ........
0068+  280F 00          	.BYTE %00000000                        ; ........
0069+  2810             
0070+  2810             ; Character $02
0071+  2810 0F          	.BYTE %00001111                        ; ....OOOO
0072+  2811 0F          	.BYTE %00001111                        ; ....OOOO
0073+  2812 0F          	.BYTE %00001111                        ; ....OOOO
0074+  2813 0F          	.BYTE %00001111                        ; ....OOOO
0075+  2814 00          	.BYTE %00000000                        ; ........
0076+  2815 00          	.BYTE %00000000                        ; ........
0077+  2816 00          	.BYTE %00000000                        ; ........
0078+  2817 00          	.BYTE %00000000                        ; ........
0079+  2818             
0080+  2818             ; Character $03
0081+  2818 FF          	.BYTE %11111111                        ; OOOOOOOO
0082+  2819 FF          	.BYTE %11111111                        ; OOOOOOOO
0083+  281A FF          	.BYTE %11111111                        ; OOOOOOOO
0084+  281B FF          	.BYTE %11111111                        ; OOOOOOOO
0085+  281C 00          	.BYTE %00000000                        ; ........
0086+  281D 00          	.BYTE %00000000                        ; ........
0087+  281E 00          	.BYTE %00000000                        ; ........
0088+  281F 00          	.BYTE %00000000                        ; ........
0089+  2820             
0090+  2820             ; Character $04
0091+  2820 00          	.BYTE %00000000                        ; ........
0092+  2821 00          	.BYTE %00000000                        ; ........
0093+  2822 00          	.BYTE %00000000                        ; ........
0094+  2823 00          	.BYTE %00000000                        ; ........
0095+  2824 F0          	.BYTE %11110000                        ; OOOO....
0096+  2825 F0          	.BYTE %11110000                        ; OOOO....
0097+  2826 F0          	.BYTE %11110000                        ; OOOO....
0098+  2827 F0          	.BYTE %11110000                        ; OOOO....
0099+  2828             
0100+  2828             ; Character $05
0101+  2828 F0          	.BYTE %11110000                        ; OOOO....
0102+  2829 F0          	.BYTE %11110000                        ; OOOO....
0103+  282A F0          	.BYTE %11110000                        ; OOOO....
0104+  282B F0          	.BYTE %11110000                        ; OOOO....
0105+  282C F0          	.BYTE %11110000                        ; OOOO....
0106+  282D F0          	.BYTE %11110000                        ; OOOO....
0107+  282E F0          	.BYTE %11110000                        ; OOOO....
0108+  282F F0          	.BYTE %11110000                        ; OOOO....
0109+  2830             
0110+  2830             ; Character $06
0111+  2830 0F          	.BYTE %00001111                        ; ....OOOO
0112+  2831 0F          	.BYTE %00001111                        ; ....OOOO
0113+  2832 0F          	.BYTE %00001111                        ; ....OOOO
0114+  2833 0F          	.BYTE %00001111                        ; ....OOOO
0115+  2834 F0          	.BYTE %11110000                        ; OOOO....
0116+  2835 F0          	.BYTE %11110000                        ; OOOO....
0117+  2836 F0          	.BYTE %11110000                        ; OOOO....
0118+  2837 F0          	.BYTE %11110000                        ; OOOO....
0119+  2838             
0120+  2838             ; Character $07
0121+  2838 FF          	.BYTE %11111111                        ; OOOOOOOO
0122+  2839 FF          	.BYTE %11111111                        ; OOOOOOOO
0123+  283A FF          	.BYTE %11111111                        ; OOOOOOOO
0124+  283B FF          	.BYTE %11111111                        ; OOOOOOOO
0125+  283C F0          	.BYTE %11110000                        ; OOOO....
0126+  283D F0          	.BYTE %11110000                        ; OOOO....
0127+  283E F0          	.BYTE %11110000                        ; OOOO....
0128+  283F F0          	.BYTE %11110000                        ; OOOO....
0129+  2840             
0130+  2840             ; Character $08
0131+  2840 DB          	.BYTE %11011011                        ; OO.OO.OO
0132+  2841 FF          	.BYTE %11111111                        ; OOOOOOOO
0133+  2842 DB          	.BYTE %11011011                        ; OO.OO.OO
0134+  2843 18          	.BYTE %00011000                        ; ...OO...
0135+  2844 18          	.BYTE %00011000                        ; ...OO...
0136+  2845 DB          	.BYTE %11011011                        ; OO.OO.OO
0137+  2846 FF          	.BYTE %11111111                        ; OOOOOOOO
0138+  2847 DB          	.BYTE %11011011                        ; OO.OO.OO
0139+  2848             
0140+  2848             ; Character $09
0141+  2848 FF          	.BYTE %11111111                        ; OOOOOOOO
0142+  2849 FE          	.BYTE %11111110                        ; OOOOOOO.
0143+  284A FC          	.BYTE %11111100                        ; OOOOOO..
0144+  284B F8          	.BYTE %11111000                        ; OOOOO...
0145+  284C F0          	.BYTE %11110000                        ; OOOO....
0146+  284D E0          	.BYTE %11100000                        ; OOO.....
0147+  284E C0          	.BYTE %11000000                        ; OO......
0148+  284F 80          	.BYTE %10000000                        ; O.......
0149+  2850             
0150+  2850             ; Character $0A
0151+  2850 FF          	.BYTE %11111111                        ; OOOOOOOO
0152+  2851 7F          	.BYTE %01111111                        ; .OOOOOOO
0153+  2852 3F          	.BYTE %00111111                        ; ..OOOOOO
0154+  2853 1F          	.BYTE %00011111                        ; ...OOOOO
0155+  2854 0F          	.BYTE %00001111                        ; ....OOOO
0156+  2855 07          	.BYTE %00000111                        ; .....OOO
0157+  2856 03          	.BYTE %00000011                        ; ......OO
0158+  2857 01          	.BYTE %00000001                        ; .......O
0159+  2858             
0160+  2858             ; Character $0B
0161+  2858 00          	.BYTE %00000000                        ; ........
0162+  2859 24          	.BYTE %00100100                        ; ..O..O..
0163+  285A 24          	.BYTE %00100100                        ; ..O..O..
0164+  285B 00          	.BYTE %00000000                        ; ........
0165+  285C 00          	.BYTE %00000000                        ; ........
0166+  285D 00          	.BYTE %00000000                        ; ........
0167+  285E 00          	.BYTE %00000000                        ; ........
0168+  285F 00          	.BYTE %00000000                        ; ........
0169+  2860             
0170+  2860             ; Character $0C
0171+  2860 C3          	.BYTE %11000011                        ; OO....OO
0172+  2861 24          	.BYTE %00100100                        ; ..O..O..
0173+  2862 18          	.BYTE %00011000                        ; ...OO...
0174+  2863 3C          	.BYTE %00111100                        ; ..OOOO..
0175+  2864 5A          	.BYTE %01011010                        ; .O.OO.O.
0176+  2865 42          	.BYTE %01000010                        ; .O....O.
0177+  2866 81          	.BYTE %10000001                        ; O......O
0178+  2867 81          	.BYTE %10000001                        ; O......O
0179+  2868             
0180+  2868             ; Character $0D
0181+  2868 00          	.BYTE %00000000                        ; ........
0182+  2869 08          	.BYTE %00001000                        ; ....O...
0183+  286A 3E          	.BYTE %00111110                        ; ..OOOOO.
0184+  286B 28          	.BYTE %00101000                        ; ..O.O...
0185+  286C 3E          	.BYTE %00111110                        ; ..OOOOO.
0186+  286D 0A          	.BYTE %00001010                        ; ....O.O.
0187+  286E 3E          	.BYTE %00111110                        ; ..OOOOO.
0188+  286F 08          	.BYTE %00001000                        ; ....O...
0189+  2870             
0190+  2870             ; Character $0E
0191+  2870 81          	.BYTE %10000001                        ; O......O
0192+  2871 C3          	.BYTE %11000011                        ; OO....OO
0193+  2872 E7          	.BYTE %11100111                        ; OOO..OOO
0194+  2873 FF          	.BYTE %11111111                        ; OOOOOOOO
0195+  2874 FF          	.BYTE %11111111                        ; OOOOOOOO
0196+  2875 99          	.BYTE %10011001                        ; O..OO..O
0197+  2876 24          	.BYTE %00100100                        ; ..O..O..
0198+  2877 C3          	.BYTE %11000011                        ; OO....OO
0199+  2878             
0200+  2878             ; Character $0F
0201+  2878 00          	.BYTE %00000000                        ; ........
0202+  2879 3C          	.BYTE %00111100                        ; ..OOOO..
0203+  287A 42          	.BYTE %01000010                        ; .O....O.
0204+  287B 81          	.BYTE %10000001                        ; O......O
0205+  287C A5          	.BYTE %10100101                        ; O.O..O.O
0206+  287D 81          	.BYTE %10000001                        ; O......O
0207+  287E DB          	.BYTE %11011011                        ; OO.OO.OO
0208+  287F A5          	.BYTE %10100101                        ; O.O..O.O
0209+  2880             
0210+  2880             ; Character $10
0211+  2880 00          	.BYTE %00000000                        ; ........
0212+  2881 04          	.BYTE %00000100                        ; .....O..
0213+  2882 08          	.BYTE %00001000                        ; ....O...
0214+  2883 08          	.BYTE %00001000                        ; ....O...
0215+  2884 08          	.BYTE %00001000                        ; ....O...
0216+  2885 08          	.BYTE %00001000                        ; ....O...
0217+  2886 04          	.BYTE %00000100                        ; .....O..
0218+  2887 00          	.BYTE %00000000                        ; ........
0219+  2888             
0220+  2888             ; Character $11
0221+  2888 00          	.BYTE %00000000                        ; ........
0222+  2889 20          	.BYTE %00100000                        ; ..O.....
0223+  288A 10          	.BYTE %00010000                        ; ...O....
0224+  288B 10          	.BYTE %00010000                        ; ...O....
0225+  288C 10          	.BYTE %00010000                        ; ...O....
0226+  288D 10          	.BYTE %00010000                        ; ...O....
0227+  288E 20          	.BYTE %00100000                        ; ..O.....
0228+  288F 00          	.BYTE %00000000                        ; ........
0229+  2890             
0230+  2890             ; Character $12
0231+  2890 00          	.BYTE %00000000                        ; ........
0232+  2891 00          	.BYTE %00000000                        ; ........
0233+  2892 10          	.BYTE %00010000                        ; ...O....
0234+  2893 08          	.BYTE %00001000                        ; ....O...
0235+  2894 04          	.BYTE %00000100                        ; .....O..
0236+  2895 08          	.BYTE %00001000                        ; ....O...
0237+  2896 10          	.BYTE %00010000                        ; ...O....
0238+  2897 00          	.BYTE %00000000                        ; ........
0239+  2898             
0240+  2898             ; Character $13
0241+  2898 00          	.BYTE %00000000                        ; ........
0242+  2899 00          	.BYTE %00000000                        ; ........
0243+  289A 04          	.BYTE %00000100                        ; .....O..
0244+  289B 08          	.BYTE %00001000                        ; ....O...
0245+  289C 10          	.BYTE %00010000                        ; ...O....
0246+  289D 08          	.BYTE %00001000                        ; ....O...
0247+  289E 04          	.BYTE %00000100                        ; .....O..
0248+  289F 00          	.BYTE %00000000                        ; ........
0249+  28A0             
0250+  28A0             ; Character $14
0251+  28A0 00          	.BYTE %00000000                        ; ........
0252+  28A1 00          	.BYTE %00000000                        ; ........
0253+  28A2 00          	.BYTE %00000000                        ; ........
0254+  28A3 3E          	.BYTE %00111110                        ; ..OOOOO.
0255+  28A4 00          	.BYTE %00000000                        ; ........
0256+  28A5 3E          	.BYTE %00111110                        ; ..OOOOO.
0257+  28A6 00          	.BYTE %00000000                        ; ........
0258+  28A7 00          	.BYTE %00000000                        ; ........
0259+  28A8             
0260+  28A8             ; Character $15
0261+  28A8 00          	.BYTE %00000000                        ; ........
0262+  28A9 00          	.BYTE %00000000                        ; ........
0263+  28AA 08          	.BYTE %00001000                        ; ....O...
0264+  28AB 08          	.BYTE %00001000                        ; ....O...
0265+  28AC 3E          	.BYTE %00111110                        ; ..OOOOO.
0266+  28AD 08          	.BYTE %00001000                        ; ....O...
0267+  28AE 08          	.BYTE %00001000                        ; ....O...
0268+  28AF 00          	.BYTE %00000000                        ; ........
0269+  28B0             
0270+  28B0             ; Character $16
0271+  28B0 00          	.BYTE %00000000                        ; ........
0272+  28B1 00          	.BYTE %00000000                        ; ........
0273+  28B2 00          	.BYTE %00000000                        ; ........
0274+  28B3 00          	.BYTE %00000000                        ; ........
0275+  28B4 3E          	.BYTE %00111110                        ; ..OOOOO.
0276+  28B5 00          	.BYTE %00000000                        ; ........
0277+  28B6 00          	.BYTE %00000000                        ; ........
0278+  28B7 00          	.BYTE %00000000                        ; ........
0279+  28B8             
0280+  28B8             ; Character $17
0281+  28B8 00          	.BYTE %00000000                        ; ........
0282+  28B9 00          	.BYTE %00000000                        ; ........
0283+  28BA 14          	.BYTE %00010100                        ; ...O.O..
0284+  28BB 08          	.BYTE %00001000                        ; ....O...
0285+  28BC 3E          	.BYTE %00111110                        ; ..OOOOO.
0286+  28BD 08          	.BYTE %00001000                        ; ....O...
0287+  28BE 14          	.BYTE %00010100                        ; ...O.O..
0288+  28BF 00          	.BYTE %00000000                        ; ........
0289+  28C0             
0290+  28C0             ; Character $18
0291+  28C0 00          	.BYTE %00000000                        ; ........
0292+  28C1 00          	.BYTE %00000000                        ; ........
0293+  28C2 02          	.BYTE %00000010                        ; ......O.
0294+  28C3 04          	.BYTE %00000100                        ; .....O..
0295+  28C4 08          	.BYTE %00001000                        ; ....O...
0296+  28C5 10          	.BYTE %00010000                        ; ...O....
0297+  28C6 20          	.BYTE %00100000                        ; ..O.....
0298+  28C7 00          	.BYTE %00000000                        ; ........
0299+  28C8             
0300+  28C8             ; Character $19
0301+  28C8 00          	.BYTE %00000000                        ; ........
0302+  28C9 00          	.BYTE %00000000                        ; ........
0303+  28CA 10          	.BYTE %00010000                        ; ...O....
0304+  28CB 00          	.BYTE %00000000                        ; ........
0305+  28CC 00          	.BYTE %00000000                        ; ........
0306+  28CD 10          	.BYTE %00010000                        ; ...O....
0307+  28CE 10          	.BYTE %00010000                        ; ...O....
0308+  28CF 20          	.BYTE %00100000                        ; ..O.....
0309+  28D0             
0310+  28D0             ; Character $1A
0311+  28D0 00          	.BYTE %00000000                        ; ........
0312+  28D1 00          	.BYTE %00000000                        ; ........
0313+  28D2 00          	.BYTE %00000000                        ; ........
0314+  28D3 00          	.BYTE %00000000                        ; ........
0315+  28D4 00          	.BYTE %00000000                        ; ........
0316+  28D5 08          	.BYTE %00001000                        ; ....O...
0317+  28D6 08          	.BYTE %00001000                        ; ....O...
0318+  28D7 10          	.BYTE %00010000                        ; ...O....
0319+  28D8             
0320+  28D8             ; Character $1B
0321+  28D8 00          	.BYTE %00000000                        ; ........
0322+  28D9 00          	.BYTE %00000000                        ; ........
0323+  28DA 00          	.BYTE %00000000                        ; ........
0324+  28DB 00          	.BYTE %00000000                        ; ........
0325+  28DC 00          	.BYTE %00000000                        ; ........
0326+  28DD 18          	.BYTE %00011000                        ; ...OO...
0327+  28DE 18          	.BYTE %00011000                        ; ...OO...
0328+  28DF 00          	.BYTE %00000000                        ; ........
0329+  28E0             
0330+  28E0             ; Character $1C
0331+  28E0 00          	.BYTE %00000000                        ; ........
0332+  28E1 3C          	.BYTE %00111100                        ; ..OOOO..
0333+  28E2 46          	.BYTE %01000110                        ; .O...OO.
0334+  28E3 4A          	.BYTE %01001010                        ; .O..O.O.
0335+  28E4 52          	.BYTE %01010010                        ; .O.O..O.
0336+  28E5 62          	.BYTE %01100010                        ; .OO...O.
0337+  28E6 3C          	.BYTE %00111100                        ; ..OOOO..
0338+  28E7 00          	.BYTE %00000000                        ; ........
0339+  28E8             
0340+  28E8             ; Character $1D
0341+  28E8 00          	.BYTE %00000000                        ; ........
0342+  28E9 18          	.BYTE %00011000                        ; ...OO...
0343+  28EA 28          	.BYTE %00101000                        ; ..O.O...
0344+  28EB 08          	.BYTE %00001000                        ; ....O...
0345+  28EC 08          	.BYTE %00001000                        ; ....O...
0346+  28ED 08          	.BYTE %00001000                        ; ....O...
0347+  28EE 3E          	.BYTE %00111110                        ; ..OOOOO.
0348+  28EF 00          	.BYTE %00000000                        ; ........
0349+  28F0             
0350+  28F0             ; Character $1E
0351+  28F0 00          	.BYTE %00000000                        ; ........
0352+  28F1 3C          	.BYTE %00111100                        ; ..OOOO..
0353+  28F2 42          	.BYTE %01000010                        ; .O....O.
0354+  28F3 02          	.BYTE %00000010                        ; ......O.
0355+  28F4 3C          	.BYTE %00111100                        ; ..OOOO..
0356+  28F5 40          	.BYTE %01000000                        ; .O......
0357+  28F6 7E          	.BYTE %01111110                        ; .OOOOOO.
0358+  28F7 00          	.BYTE %00000000                        ; ........
0359+  28F8             
0360+  28F8             ; Character $1F
0361+  28F8 00          	.BYTE %00000000                        ; ........
0362+  28F9 3C          	.BYTE %00111100                        ; ..OOOO..
0363+  28FA 42          	.BYTE %01000010                        ; .O....O.
0364+  28FB 0C          	.BYTE %00001100                        ; ....OO..
0365+  28FC 02          	.BYTE %00000010                        ; ......O.
0366+  28FD 42          	.BYTE %01000010                        ; .O....O.
0367+  28FE 3C          	.BYTE %00111100                        ; ..OOOO..
0368+  28FF 00          	.BYTE %00000000                        ; ........
0369+  2900             
0370+  2900             ; Character $20
0371+  2900 00          	.BYTE %00000000                        ; ........
0372+  2901 08          	.BYTE %00001000                        ; ....O...
0373+  2902 18          	.BYTE %00011000                        ; ...OO...
0374+  2903 28          	.BYTE %00101000                        ; ..O.O...
0375+  2904 48          	.BYTE %01001000                        ; .O..O...
0376+  2905 7E          	.BYTE %01111110                        ; .OOOOOO.
0377+  2906 08          	.BYTE %00001000                        ; ....O...
0378+  2907 00          	.BYTE %00000000                        ; ........
0379+  2908             
0380+  2908             ; Character $21
0381+  2908 00          	.BYTE %00000000                        ; ........
0382+  2909 7E          	.BYTE %01111110                        ; .OOOOOO.
0383+  290A 40          	.BYTE %01000000                        ; .O......
0384+  290B 7C          	.BYTE %01111100                        ; .OOOOO..
0385+  290C 02          	.BYTE %00000010                        ; ......O.
0386+  290D 42          	.BYTE %01000010                        ; .O....O.
0387+  290E 3C          	.BYTE %00111100                        ; ..OOOO..
0388+  290F 00          	.BYTE %00000000                        ; ........
0389+  2910             
0390+  2910             ; Character $22
0391+  2910 00          	.BYTE %00000000                        ; ........
0392+  2911 3C          	.BYTE %00111100                        ; ..OOOO..
0393+  2912 40          	.BYTE %01000000                        ; .O......
0394+  2913 7C          	.BYTE %01111100                        ; .OOOOO..
0395+  2914 42          	.BYTE %01000010                        ; .O....O.
0396+  2915 42          	.BYTE %01000010                        ; .O....O.
0397+  2916 3C          	.BYTE %00111100                        ; ..OOOO..
0398+  2917 00          	.BYTE %00000000                        ; ........
0399+  2918             
0400+  2918             ; Character $23
0401+  2918 00          	.BYTE %00000000                        ; ........
0402+  2919 7E          	.BYTE %01111110                        ; .OOOOOO.
0403+  291A 02          	.BYTE %00000010                        ; ......O.
0404+  291B 04          	.BYTE %00000100                        ; .....O..
0405+  291C 08          	.BYTE %00001000                        ; ....O...
0406+  291D 10          	.BYTE %00010000                        ; ...O....
0407+  291E 10          	.BYTE %00010000                        ; ...O....
0408+  291F 00          	.BYTE %00000000                        ; ........
0409+  2920             
0410+  2920             ; Character $24
0411+  2920 00          	.BYTE %00000000                        ; ........
0412+  2921 3C          	.BYTE %00111100                        ; ..OOOO..
0413+  2922 42          	.BYTE %01000010                        ; .O....O.
0414+  2923 3C          	.BYTE %00111100                        ; ..OOOO..
0415+  2924 42          	.BYTE %01000010                        ; .O....O.
0416+  2925 42          	.BYTE %01000010                        ; .O....O.
0417+  2926 3C          	.BYTE %00111100                        ; ..OOOO..
0418+  2927 00          	.BYTE %00000000                        ; ........
0419+  2928             
0420+  2928             ; Character $25
0421+  2928 00          	.BYTE %00000000                        ; ........
0422+  2929 3C          	.BYTE %00111100                        ; ..OOOO..
0423+  292A 42          	.BYTE %01000010                        ; .O....O.
0424+  292B 42          	.BYTE %01000010                        ; .O....O.
0425+  292C 3E          	.BYTE %00111110                        ; ..OOOOO.
0426+  292D 02          	.BYTE %00000010                        ; ......O.
0427+  292E 3C          	.BYTE %00111100                        ; ..OOOO..
0428+  292F 00          	.BYTE %00000000                        ; ........
0429+  2930             
0430+  2930             ; Character $26
0431+  2930 00          	.BYTE %00000000                        ; ........
0432+  2931 3C          	.BYTE %00111100                        ; ..OOOO..
0433+  2932 42          	.BYTE %01000010                        ; .O....O.
0434+  2933 42          	.BYTE %01000010                        ; .O....O.
0435+  2934 7E          	.BYTE %01111110                        ; .OOOOOO.
0436+  2935 42          	.BYTE %01000010                        ; .O....O.
0437+  2936 42          	.BYTE %01000010                        ; .O....O.
0438+  2937 00          	.BYTE %00000000                        ; ........
0439+  2938             
0440+  2938             ; Character $27
0441+  2938 00          	.BYTE %00000000                        ; ........
0442+  2939 7C          	.BYTE %01111100                        ; .OOOOO..
0443+  293A 42          	.BYTE %01000010                        ; .O....O.
0444+  293B 7C          	.BYTE %01111100                        ; .OOOOO..
0445+  293C 42          	.BYTE %01000010                        ; .O....O.
0446+  293D 42          	.BYTE %01000010                        ; .O....O.
0447+  293E 7C          	.BYTE %01111100                        ; .OOOOO..
0448+  293F 00          	.BYTE %00000000                        ; ........
0449+  2940             
0450+  2940             ; Character $28
0451+  2940 00          	.BYTE %00000000                        ; ........
0452+  2941 3C          	.BYTE %00111100                        ; ..OOOO..
0453+  2942 42          	.BYTE %01000010                        ; .O....O.
0454+  2943 40          	.BYTE %01000000                        ; .O......
0455+  2944 40          	.BYTE %01000000                        ; .O......
0456+  2945 42          	.BYTE %01000010                        ; .O....O.
0457+  2946 3C          	.BYTE %00111100                        ; ..OOOO..
0458+  2947 00          	.BYTE %00000000                        ; ........
0459+  2948             
0460+  2948             ; Character $29
0461+  2948 00          	.BYTE %00000000                        ; ........
0462+  2949 78          	.BYTE %01111000                        ; .OOOO...
0463+  294A 44          	.BYTE %01000100                        ; .O...O..
0464+  294B 42          	.BYTE %01000010                        ; .O....O.
0465+  294C 42          	.BYTE %01000010                        ; .O....O.
0466+  294D 44          	.BYTE %01000100                        ; .O...O..
0467+  294E 78          	.BYTE %01111000                        ; .OOOO...
0468+  294F 00          	.BYTE %00000000                        ; ........
0469+  2950             
0470+  2950             ; Character $2A
0471+  2950 00          	.BYTE %00000000                        ; ........
0472+  2951 7E          	.BYTE %01111110                        ; .OOOOOO.
0473+  2952 40          	.BYTE %01000000                        ; .O......
0474+  2953 7C          	.BYTE %01111100                        ; .OOOOO..
0475+  2954 40          	.BYTE %01000000                        ; .O......
0476+  2955 40          	.BYTE %01000000                        ; .O......
0477+  2956 7E          	.BYTE %01111110                        ; .OOOOOO.
0478+  2957 00          	.BYTE %00000000                        ; ........
0479+  2958             
0480+  2958             ; Character $2B
0481+  2958 00          	.BYTE %00000000                        ; ........
0482+  2959 7E          	.BYTE %01111110                        ; .OOOOOO.
0483+  295A 40          	.BYTE %01000000                        ; .O......
0484+  295B 7C          	.BYTE %01111100                        ; .OOOOO..
0485+  295C 40          	.BYTE %01000000                        ; .O......
0486+  295D 40          	.BYTE %01000000                        ; .O......
0487+  295E 40          	.BYTE %01000000                        ; .O......
0488+  295F 00          	.BYTE %00000000                        ; ........
0489+  2960             
0490+  2960             ; Character $2C
0491+  2960 00          	.BYTE %00000000                        ; ........
0492+  2961 3C          	.BYTE %00111100                        ; ..OOOO..
0493+  2962 42          	.BYTE %01000010                        ; .O....O.
0494+  2963 40          	.BYTE %01000000                        ; .O......
0495+  2964 4E          	.BYTE %01001110                        ; .O..OOO.
0496+  2965 42          	.BYTE %01000010                        ; .O....O.
0497+  2966 3C          	.BYTE %00111100                        ; ..OOOO..
0498+  2967 00          	.BYTE %00000000                        ; ........
0499+  2968             
0500+  2968             ; Character $2D
0501+  2968 00          	.BYTE %00000000                        ; ........
0502+  2969 42          	.BYTE %01000010                        ; .O....O.
0503+  296A 42          	.BYTE %01000010                        ; .O....O.
0504+  296B 7E          	.BYTE %01111110                        ; .OOOOOO.
0505+  296C 42          	.BYTE %01000010                        ; .O....O.
0506+  296D 42          	.BYTE %01000010                        ; .O....O.
0507+  296E 42          	.BYTE %01000010                        ; .O....O.
0508+  296F 00          	.BYTE %00000000                        ; ........
0509+  2970             
0510+  2970             ; Character $2E
0511+  2970 00          	.BYTE %00000000                        ; ........
0512+  2971 3E          	.BYTE %00111110                        ; ..OOOOO.
0513+  2972 08          	.BYTE %00001000                        ; ....O...
0514+  2973 08          	.BYTE %00001000                        ; ....O...
0515+  2974 08          	.BYTE %00001000                        ; ....O...
0516+  2975 08          	.BYTE %00001000                        ; ....O...
0517+  2976 3E          	.BYTE %00111110                        ; ..OOOOO.
0518+  2977 00          	.BYTE %00000000                        ; ........
0519+  2978             
0520+  2978             ; Character $2F
0521+  2978 00          	.BYTE %00000000                        ; ........
0522+  2979 02          	.BYTE %00000010                        ; ......O.
0523+  297A 02          	.BYTE %00000010                        ; ......O.
0524+  297B 02          	.BYTE %00000010                        ; ......O.
0525+  297C 42          	.BYTE %01000010                        ; .O....O.
0526+  297D 42          	.BYTE %01000010                        ; .O....O.
0527+  297E 3C          	.BYTE %00111100                        ; ..OOOO..
0528+  297F 00          	.BYTE %00000000                        ; ........
0529+  2980             
0530+  2980             ; Character $30
0531+  2980 00          	.BYTE %00000000                        ; ........
0532+  2981 44          	.BYTE %01000100                        ; .O...O..
0533+  2982 48          	.BYTE %01001000                        ; .O..O...
0534+  2983 70          	.BYTE %01110000                        ; .OOO....
0535+  2984 48          	.BYTE %01001000                        ; .O..O...
0536+  2985 44          	.BYTE %01000100                        ; .O...O..
0537+  2986 42          	.BYTE %01000010                        ; .O....O.
0538+  2987 00          	.BYTE %00000000                        ; ........
0539+  2988             
0540+  2988             ; Character $31
0541+  2988 00          	.BYTE %00000000                        ; ........
0542+  2989 40          	.BYTE %01000000                        ; .O......
0543+  298A 40          	.BYTE %01000000                        ; .O......
0544+  298B 40          	.BYTE %01000000                        ; .O......
0545+  298C 40          	.BYTE %01000000                        ; .O......
0546+  298D 40          	.BYTE %01000000                        ; .O......
0547+  298E 7E          	.BYTE %01111110                        ; .OOOOOO.
0548+  298F 00          	.BYTE %00000000                        ; ........
0549+  2990             
0550+  2990             ; Character $32
0551+  2990 00          	.BYTE %00000000                        ; ........
0552+  2991 42          	.BYTE %01000010                        ; .O....O.
0553+  2992 66          	.BYTE %01100110                        ; .OO..OO.
0554+  2993 5A          	.BYTE %01011010                        ; .O.OO.O.
0555+  2994 42          	.BYTE %01000010                        ; .O....O.
0556+  2995 42          	.BYTE %01000010                        ; .O....O.
0557+  2996 42          	.BYTE %01000010                        ; .O....O.
0558+  2997 00          	.BYTE %00000000                        ; ........
0559+  2998             
0560+  2998             ; Character $33
0561+  2998 00          	.BYTE %00000000                        ; ........
0562+  2999 42          	.BYTE %01000010                        ; .O....O.
0563+  299A 62          	.BYTE %01100010                        ; .OO...O.
0564+  299B 52          	.BYTE %01010010                        ; .O.O..O.
0565+  299C 4A          	.BYTE %01001010                        ; .O..O.O.
0566+  299D 46          	.BYTE %01000110                        ; .O...OO.
0567+  299E 42          	.BYTE %01000010                        ; .O....O.
0568+  299F 00          	.BYTE %00000000                        ; ........
0569+  29A0             
0570+  29A0             ; Character $34
0571+  29A0 00          	.BYTE %00000000                        ; ........
0572+  29A1 3C          	.BYTE %00111100                        ; ..OOOO..
0573+  29A2 42          	.BYTE %01000010                        ; .O....O.
0574+  29A3 42          	.BYTE %01000010                        ; .O....O.
0575+  29A4 42          	.BYTE %01000010                        ; .O....O.
0576+  29A5 42          	.BYTE %01000010                        ; .O....O.
0577+  29A6 3C          	.BYTE %00111100                        ; ..OOOO..
0578+  29A7 00          	.BYTE %00000000                        ; ........
0579+  29A8             
0580+  29A8             ; Character $35
0581+  29A8 00          	.BYTE %00000000                        ; ........
0582+  29A9 7C          	.BYTE %01111100                        ; .OOOOO..
0583+  29AA 42          	.BYTE %01000010                        ; .O....O.
0584+  29AB 42          	.BYTE %01000010                        ; .O....O.
0585+  29AC 7C          	.BYTE %01111100                        ; .OOOOO..
0586+  29AD 40          	.BYTE %01000000                        ; .O......
0587+  29AE 40          	.BYTE %01000000                        ; .O......
0588+  29AF 00          	.BYTE %00000000                        ; ........
0589+  29B0             
0590+  29B0             ; Character $36
0591+  29B0 00          	.BYTE %00000000                        ; ........
0592+  29B1 3C          	.BYTE %00111100                        ; ..OOOO..
0593+  29B2 42          	.BYTE %01000010                        ; .O....O.
0594+  29B3 42          	.BYTE %01000010                        ; .O....O.
0595+  29B4 52          	.BYTE %01010010                        ; .O.O..O.
0596+  29B5 4A          	.BYTE %01001010                        ; .O..O.O.
0597+  29B6 3C          	.BYTE %00111100                        ; ..OOOO..
0598+  29B7 00          	.BYTE %00000000                        ; ........
0599+  29B8             
0600+  29B8             ; Character $37
0601+  29B8 00          	.BYTE %00000000                        ; ........
0602+  29B9 7C          	.BYTE %01111100                        ; .OOOOO..
0603+  29BA 42          	.BYTE %01000010                        ; .O....O.
0604+  29BB 42          	.BYTE %01000010                        ; .O....O.
0605+  29BC 7C          	.BYTE %01111100                        ; .OOOOO..
0606+  29BD 44          	.BYTE %01000100                        ; .O...O..
0607+  29BE 42          	.BYTE %01000010                        ; .O....O.
0608+  29BF 00          	.BYTE %00000000                        ; ........
0609+  29C0             
0610+  29C0             ; Character $38
0611+  29C0 00          	.BYTE %00000000                        ; ........
0612+  29C1 3C          	.BYTE %00111100                        ; ..OOOO..
0613+  29C2 40          	.BYTE %01000000                        ; .O......
0614+  29C3 3C          	.BYTE %00111100                        ; ..OOOO..
0615+  29C4 02          	.BYTE %00000010                        ; ......O.
0616+  29C5 42          	.BYTE %01000010                        ; .O....O.
0617+  29C6 3C          	.BYTE %00111100                        ; ..OOOO..
0618+  29C7 00          	.BYTE %00000000                        ; ........
0619+  29C8             
0620+  29C8             ; Character $39
0621+  29C8 00          	.BYTE %00000000                        ; ........
0622+  29C9 FE          	.BYTE %11111110                        ; OOOOOOO.
0623+  29CA 10          	.BYTE %00010000                        ; ...O....
0624+  29CB 10          	.BYTE %00010000                        ; ...O....
0625+  29CC 10          	.BYTE %00010000                        ; ...O....
0626+  29CD 10          	.BYTE %00010000                        ; ...O....
0627+  29CE 10          	.BYTE %00010000                        ; ...O....
0628+  29CF 00          	.BYTE %00000000                        ; ........
0629+  29D0             
0630+  29D0             ; Character $3A
0631+  29D0 00          	.BYTE %00000000                        ; ........
0632+  29D1 42          	.BYTE %01000010                        ; .O....O.
0633+  29D2 42          	.BYTE %01000010                        ; .O....O.
0634+  29D3 42          	.BYTE %01000010                        ; .O....O.
0635+  29D4 42          	.BYTE %01000010                        ; .O....O.
0636+  29D5 42          	.BYTE %01000010                        ; .O....O.
0637+  29D6 3C          	.BYTE %00111100                        ; ..OOOO..
0638+  29D7 00          	.BYTE %00000000                        ; ........
0639+  29D8             
0640+  29D8             ; Character $3B
0641+  29D8 00          	.BYTE %00000000                        ; ........
0642+  29D9 42          	.BYTE %01000010                        ; .O....O.
0643+  29DA 42          	.BYTE %01000010                        ; .O....O.
0644+  29DB 42          	.BYTE %01000010                        ; .O....O.
0645+  29DC 42          	.BYTE %01000010                        ; .O....O.
0646+  29DD 24          	.BYTE %00100100                        ; ..O..O..
0647+  29DE 18          	.BYTE %00011000                        ; ...OO...
0648+  29DF 00          	.BYTE %00000000                        ; ........
0649+  29E0             
0650+  29E0             ; Character $3C
0651+  29E0 00          	.BYTE %00000000                        ; ........
0652+  29E1 42          	.BYTE %01000010                        ; .O....O.
0653+  29E2 42          	.BYTE %01000010                        ; .O....O.
0654+  29E3 42          	.BYTE %01000010                        ; .O....O.
0655+  29E4 42          	.BYTE %01000010                        ; .O....O.
0656+  29E5 5A          	.BYTE %01011010                        ; .O.OO.O.
0657+  29E6 24          	.BYTE %00100100                        ; ..O..O..
0658+  29E7 00          	.BYTE %00000000                        ; ........
0659+  29E8             
0660+  29E8             ; Character $3D
0661+  29E8 00          	.BYTE %00000000                        ; ........
0662+  29E9 42          	.BYTE %01000010                        ; .O....O.
0663+  29EA 24          	.BYTE %00100100                        ; ..O..O..
0664+  29EB 18          	.BYTE %00011000                        ; ...OO...
0665+  29EC 18          	.BYTE %00011000                        ; ...OO...
0666+  29ED 24          	.BYTE %00100100                        ; ..O..O..
0667+  29EE 42          	.BYTE %01000010                        ; .O....O.
0668+  29EF 00          	.BYTE %00000000                        ; ........
0669+  29F0             
0670+  29F0             ; Character $3E
0671+  29F0 00          	.BYTE %00000000                        ; ........
0672+  29F1 82          	.BYTE %10000010                        ; O.....O.
0673+  29F2 44          	.BYTE %01000100                        ; .O...O..
0674+  29F3 28          	.BYTE %00101000                        ; ..O.O...
0675+  29F4 10          	.BYTE %00010000                        ; ...O....
0676+  29F5 10          	.BYTE %00010000                        ; ...O....
0677+  29F6 10          	.BYTE %00010000                        ; ...O....
0678+  29F7 00          	.BYTE %00000000                        ; ........
0679+  29F8             
0680+  29F8             ; Character $3F
0681+  29F8 00          	.BYTE %00000000                        ; ........
0682+  29F9 7E          	.BYTE %01111110                        ; .OOOOOO.
0683+  29FA 04          	.BYTE %00000100                        ; .....O..
0684+  29FB 08          	.BYTE %00001000                        ; ....O...
0685+  29FC 10          	.BYTE %00010000                        ; ...O....
0686+  29FD 20          	.BYTE %00100000                        ; ..O.....
0687+  29FE 7E          	.BYTE %01111110                        ; .OOOOOO.
0688+  29FF 00          	.BYTE %00000000                        ; ........
0689+  2A00             
0690+  2A00             ; End of Lambda 8300 Font
0691+  2A00             
0692+  2A00             ;##############################################################################
0693+  2A00             ; ZX81 font characters $08-$0F only
0694+  2A00             
0695+  2A00             ZX81_FONT:
0696+  2A00             ; Character $08
0697+  2A00 AA          	.BYTE %10101010                        ; O.O.O.O.
0698+  2A01 55          	.BYTE %01010101                        ; .O.O.O.O
0699+  2A02 AA          	.BYTE %10101010                        ; O.O.O.O.
0700+  2A03 55          	.BYTE %01010101                        ; .O.O.O.O
0701+  2A04 AA          	.BYTE %10101010                        ; O.O.O.O.
0702+  2A05 55          	.BYTE %01010101                        ; .O.O.O.O
0703+  2A06 AA          	.BYTE %10101010                        ; O.O.O.O.
0704+  2A07 55          	.BYTE %01010101                        ; .O.O.O.O
0705+  2A08             
0706+  2A08             ; Character $09
0707+  2A08 00          	.BYTE %00000000                        ; ........
0708+  2A09 00          	.BYTE %00000000                        ; ........
0709+  2A0A 00          	.BYTE %00000000                        ; ........
0710+  2A0B 00          	.BYTE %00000000                        ; ........
0711+  2A0C AA          	.BYTE %10101010                        ; O.O.O.O.
0712+  2A0D 55          	.BYTE %01010101                        ; .O.O.O.O
0713+  2A0E AA          	.BYTE %10101010                        ; O.O.O.O.
0714+  2A0F 55          	.BYTE %01010101                        ; .O.O.O.O
0715+  2A10             
0716+  2A10             ; Character $0A
0717+  2A10 AA          	.BYTE %10101010                        ; O.O.O.O.
0718+  2A11 55          	.BYTE %01010101                        ; .O.O.O.O
0719+  2A12 AA          	.BYTE %10101010                        ; O.O.O.O.
0720+  2A13 55          	.BYTE %01010101                        ; .O.O.O.O
0721+  2A14 00          	.BYTE %00000000                        ; ........
0722+  2A15 00          	.BYTE %00000000                        ; ........
0723+  2A16 00          	.BYTE %00000000                        ; ........
0724+  2A17 00          	.BYTE %00000000                        ; ........
0725+  2A18             
0726+  2A18             ; Character $0B
0727+  2A18 00          	.BYTE %00000000                        ; ........
0728+  2A19 24          	.BYTE %00100100                        ; ..O..O..
0729+  2A1A 24          	.BYTE %00100100                        ; ..O..O..
0730+  2A1B 00          	.BYTE %00000000                        ; ........
0731+  2A1C 00          	.BYTE %00000000                        ; ........
0732+  2A1D 00          	.BYTE %00000000                        ; ........
0733+  2A1E 00          	.BYTE %00000000                        ; ........
0734+  2A1F 00          	.BYTE %00000000                        ; ........
0735+  2A20             
0736+  2A20             ; Character $0C
0737+  2A20 00          	.BYTE %00000000                        ; ........
0738+  2A21 1C          	.BYTE %00011100                        ; ...OOO..
0739+  2A22 22          	.BYTE %00100010                        ; ..O...O.
0740+  2A23 78          	.BYTE %01111000                        ; .OOOO...
0741+  2A24 20          	.BYTE %00100000                        ; ..O.....
0742+  2A25 20          	.BYTE %00100000                        ; ..O.....
0743+  2A26 7E          	.BYTE %01111110                        ; .OOOOOO.
0744+  2A27 00          	.BYTE %00000000                        ; ........
0745+  2A28             
0746+  2A28             ; Character $0D
0747+  2A28 00          	.BYTE %00000000                        ; ........
0748+  2A29 08          	.BYTE %00001000                        ; ....O...
0749+  2A2A 3E          	.BYTE %00111110                        ; ..OOOOO.
0750+  2A2B 28          	.BYTE %00101000                        ; ..O.O...
0751+  2A2C 3E          	.BYTE %00111110                        ; ..OOOOO.
0752+  2A2D 0A          	.BYTE %00001010                        ; ....O.O.
0753+  2A2E 3E          	.BYTE %00111110                        ; ..OOOOO.
0754+  2A2F 08          	.BYTE %00001000                        ; ....O...
0755+  2A30             
0756+  2A30             ; Character $0E
0757+  2A30 00          	.BYTE %00000000                        ; ........
0758+  2A31 00          	.BYTE %00000000                        ; ........
0759+  2A32 00          	.BYTE %00000000                        ; ........
0760+  2A33 10          	.BYTE %00010000                        ; ...O....
0761+  2A34 00          	.BYTE %00000000                        ; ........
0762+  2A35 00          	.BYTE %00000000                        ; ........
0763+  2A36 10          	.BYTE %00010000                        ; ...O....
0764+  2A37 00          	.BYTE %00000000                        ; ........
0765+  2A38             
0766+  2A38             ; Character $0F
0767+  2A38 00          	.BYTE %00000000                        ; ........
0768+  2A39 3C          	.BYTE %00111100                        ; ..OOOO..
0769+  2A3A 42          	.BYTE %01000010                        ; .O....O.
0770+  2A3B 04          	.BYTE %00000100                        ; .....O..
0771+  2A3C 08          	.BYTE %00001000                        ; ....O...
0772+  2A3D 00          	.BYTE %00000000                        ; ........
0773+  2A3E 08          	.BYTE %00001000                        ; ....O...
0774+  2A3F 00          	.BYTE %00000000                        ; ........
0775+  2A40             
0776+  2A40             ; End of Partial ZX81 Font8139   2A40             
8140   2A40             ;##############################################################################
8141   2A40             ; Init and display functions for Lambda 8300 BASIC for the Minstrel 4th
8142   2A40             ; Dave Curran 2026-06-18
8143   2A40             ;##############################################################################
8144   2A40             
8145   2A40             ;##############################################################################
8146   2A40             ; Initialisation code for the 4th
8147   2A40             ;
8148   2A40             ; Clear the video RAM and load the Lambda 8300 font into the font RAM
8149   2A40             ; Display a banner, which will remain until first actual CLS
8150   2A40             ;
8151   2A40             
8152   2A40             INIT_4TH:
8153   2A40             
8154   2A40             ; setup UDG $7F as all ones, so the inverted $FF appears like a space
8155   2A40 06 FF           LD B, $FF                           ; set character bitmap in B
8156   2A42 48              LD C, B                             ; and C
8157   2A43 ED 43 F8 2F     LD ($2FF8),BC                       ; write 8 rows, 2 at a time
8158   2A47 ED 43 FA 2F     LD ($2FFA),BC                       ;
8159   2A4B ED 43 FC 2F     LD ($2FFC),BC                       ;
8160   2A4F ED 43 FE 2F     LD ($2FFE),BC                       ;
8161   2A53             
8162   2A53             ; now fill the screen with $ff, which should clear it
8163   2A53             INITIAL_SCREEN_CLEAR:
8164   2A53 21 00 24        LD HL, $2400                        ; start of character video RAM
8165   2A56 11 01 24        LD DE, $2401                        ; the next byte
8166   2A59 01 FF 02        LD BC, $02FF                        ; number of bytes to clear - 1
8167   2A5C 36 FF           LD (HL), $FF                        ; set the first byte
8168   2A5E ED B0           LDIR                                ; clear all the rest
8169   2A60             
8170   2A60 AF              XOR A                               ; A = 0
8171   2A61 12              LD (DE), A                          ; make $2700 (first location after screen) zero.
8172   2A62 13              INC DE                              ; make $2701 zero, to indicate initial boot
8173   2A63 12              LD (DE), A                          ; 
8174   2A64             
8175   2A64             ; copy the 8300 font into the first half of font RAM - should be no conflicts, none of these characters are on screen
8176   2A64             COPYFONT: 
8177   2A64 11 00 2C        LD DE, $2C00                        ; Destination is write only font RAM
8178   2A67 21 00 28        LD HL, FONT                         ; Lambda 8300 font in ROM
8179   2A6A 01 00 02        LD BC, $0200                        ; There are 64 bit-mapped 8x8 characters
8180   2A6D ED B0           LDIR                                ; Copy font from ROM to RAM
8181   2A6F             
8182   2A6F             ; copy a banner message to the top of the screen
8183   2A6F             BANNER:
8184   2A6F 11 00 24        LD DE, $2400                        ; top of 4TH video RAM 
8185   2A72 21 D6 2C        LD HL, BANNER_TEXT                  ; banner message
8186   2A75 01 20 00        LD BC, $20                          ; 32 characters
8187   2A78 ED B0           LDIR
8188   2A7A             
8189   2A7A             ; the screen at this point has the banner and the rest are $FF characters
8190   2A7A             ; when the Lambda 8300 init is complete, the first display cycle will overwrite this
8191   2A7A             ; also with the banner, but all the rest of the characters will be $00 as normal
8192   2A7A             ; apart from the inverse K on the edit line
8193   2A7A             
8194   2A7A             ; resume where the initial reset function
8195   2A7A             ON_TO_RAM_CHECK:
8196   2A7A 01 FF FF        LD BC,$FFFF                         ; top of possible RAM.
8197   2A7D C3 89 04        JP L_0489                           ; on to RAM-CHECK.
8198   2A80             
8199   2A80             
8200   2A80             ;###########################################################
8201   2A80             ; Called during clear after init and also after loading
8202   2A80             ; Check if this is init and display the banner
8203   2A80             SHOW_BANNER:
8204   2A80 CD A5 16        CALL SUB_16A5                       ; CURSOR-IN, set cursor on edit line
8205   2A83 CD D0 0B        CALL SUB_0BD0                       ; CLS function
8206   2A86             
8207   2A86 3A 01 27        LD A, ($2701)                       ; Check if this is the initial boot
8208   2A89 A7              AND A                               ; Test
8209   2A8A C2 9D 2A        JP NZ, BANNER_DONE                  ; skip if not
8210   2A8D             
8211   2A8D 11 7D 40        LD DE, $407D                        ; set DFILE as the destination
8212   2A90 13              INC DE                              ; step over the first NL
8213   2A91              
8214   2A91 21 D6 2C        LD HL, BANNER_TEXT                  ; Banner message
8215   2A94 01 20 00        LD BC, $20                          ; 32 characters
8216   2A97 ED B0           LDIR                                ; copy banner
8217   2A99             
8218   2A99 21 01 27        LD HL, $2701                        ; set $2701 to 1 so banner will not be redrawn
8219   2A9C 34              INC (HL)                            ;
8220   2A9D             
8221   2A9D             BANNER_DONE:
8222   2A9D CD 85 02        CALL SUB_0285                       ; SLOW-FAST to set SLOW mode
8223   2AA0 C3 02 05        JP L_04FF+3                         ; jump back in just after the CLS
8224   2AA3             
8225   2AA3             ;##########################################################
8226   2AA3             ; Copy the Lambda 8300 display file to the 4th screen RAM
8227   2AA3             
8228   2AA3             ; Optimised for fully expanded fixed locate DFILE
8229   2AA3             
8230   2AA3             DISPLAY_ROUTINE:
8231   2AA3 21 7D 40        LD HL,$407D                         ; Set HL to the Display File location
8232   2AA6 11 00 24        LD DE,$2400                         ; Set DE to the Minstrel 4th screen RAM 
8233   2AA9 3E 18           LD A,$18                            ; 24 lines
8234   2AAB             
8235   2AAB             COPY_LINE:
8236   2AAB 23              INC HL                              ; skip the HALT / newline
8237   2AAC 01 20 00        LD BC,$0020                         ; 32 characters per line
8238   2AAF ED B0           LDIR                                ; copy line
8239   2AB1             
8240   2AB1 3D              DEC A                               ; finished?
8241   2AB2 20 F7           JR NZ,COPY_LINE                     ; no, more lines
8242   2AB4             
8243   2AB4              
8244   2AB4             
8245   2AB4             ; waste time to be 100% Lambda 8300 speed
8246   2AB4             ; yes, I did just keep adding and removing delays until it matched.
8247   2AB4             ; LD B, $E3                             ; initial delay count
8248   2AB4             
8249   2AB4             ; WASTE_TIME:
8250   2AB4             ; NOP
8251   2AB4             ; NOP
8252   2AB4             ; NOP
8253   2AB4             ; DJNZ WASTE_TIME 
8254   2AB4             
8255   2AB4             ; end of frame
8256   2AB4              
8257   2AB4 3A 3B 40        LD A,($403B)                        ; get CDFLAG - DO NOT USE IY HERE
8258   2AB7 CB 7F           BIT 7,A                             ; check for slow mode
8259   2AB9             
8260   2AB9 C2 BF 2A        JP NZ, END_SLOW                     ; fast mode?
8261   2ABC             
8262   2ABC             ; End the frame in fast mode. 
8263   2ABC             ; Waste time until for the interrupt then go onto the next frame
8264   2ABC             END_FAST:
8265   2ABC FB              EI                                  ; enable interrupts.
8266   2ABD 76              HALT                                ; halt and wait for the next interrupt
8267   2ABE              
8268   2ABE C9              RET                                 ; onto DISPLAY-1, start of the next frame
8269   2ABF             
8270   2ABF             ; End the frame in slow mode.
8271   2ABF             ; return to users code until interrupted by the IRQ
8272   2ABF             END_SLOW
8273   2ABF E1              POP HL                              ; Throw away the call address 
8274   2AC0             
8275   2AC0 E1              POP HL                              ; ****
8276   2AC1 D1              POP DE                              ; ***
8277   2AC2 C1              POP BC                              ; **
8278   2AC3 F1              POP AF                              ; * Restore Main Registers
8279   2AC4             
8280   2AC4 FB              EI                                  ; enable frame interrupts
8281   2AC5             
8282   2AC5 C9              RET                                 ; return - end of interrupt. Return is to 
8283   2AC6                                                     ; user's program - BASIC or machine code.
8284   2AC6                                                     ; which will be interrupted by every NMI.
8285   2AC6             
8286   2AC6             
8287   2AC6             
8288   2AC6             ;###########################################################
8289   2AC6             ; clear the screen to indicate "fast" mode where the ZX80/1 
8290   2AC6             ; would have stopped producing a television picture
8291   2AC6             
8292   2AC6             NEW_FAST:
8293   2AC6 CD 70 03        CALL SUB_0370                       ; routine SET-FAST
8294   2AC9 FD CB 3B B6     RES 6,(IY+$3B)                      ; Clear request CDFLAG
8295   2ACD             
8296   2ACD E5              PUSH HL
8297   2ACE D5              PUSH DE
8298   2ACF C5              PUSH BC
8299   2AD0             
8300   2AD0 21 00 24        LD HL, $2400                        ; start of video RAM
8301   2AD3 11 01 24        LD DE, $2401                        ; the next byte
8302   2AD6 01 FF 02        LD BC, $02FF                        ; number of bytes to clear -1
8303   2AD9 AF              XOR A                               ; clear A
8304   2ADA 77              LD (HL), A                          ; clear the first byte
8305   2ADB ED B0           LDIR                                ; set all the rest to match
8306   2ADD             
8307   2ADD C1              POP BC
8308   2ADE D1              POP DE
8309   2ADF E1              POP HL
8310   2AE0             
8311   2AE0 C9              RET
8312   2AE1             
8313   2AE1             ;###################################################################
8314   2AE1             ; The load routine detects if the program originated from a ZX81. 
8315   2AE1             ; If it did, it patches it up to run.
8316   2AE1             ; Extra routine to patch the font to reinstate 6 altered characters
8317   2AE1             ; (also overwrites two unchanged characters to save having two loops)
8318   2AE1             PATCH_FONT: 
8319   2AE1 11 40 2C        LD DE, $2C40                        ; Destination is write only font RAM
8320   2AE4 21 00 2A        LD HL, ZX81_FONT                    ; zx81 font characters $08-$0F in ROM
8321   2AE7 01 40 00        LD BC, $0040                        ; There are 8 bit-mapped 8x8 characters
8322   2AEA ED B0           LDIR                                ; Copy font from ROM to RAM
8323   2AEC             
8324   2AEC                                                     ; this is the line of code we replaced
8325   2AEC 2A 0C 40        LD HL,($400C)                       ; Location of the ZX81 DFILE (loaded with program)
8326   2AEF             
8327   2AEF C9              RET                                 ; back to LOAD/SAVE
8328   2AF0             
8329   2AF0             ;###################################################################
8330   2AF0             ; A variation of the ZX81 function in the second half of COPY_NEXT
8331   2AF0             ; Read character data from the font in ROM ($2800-$29FF in this case)
8332   2AF0             GET_CHAR_BITS:
8333   2AF0 CB 27           SLA A                               ; (?) multiply by two
8334   2AF2 87              ADD A,A                             ; multiply by four
8335   2AF3 87              ADD A,A                             ; multiply by eight
8336   2AF4             
8337   2AF4 26 14           LD H,$14                            ; load H with half the address of character set.
8338   2AF6 CB 14           RL H                                ; now $28 or $29 (with carry)
8339   2AF8 83              ADD A,E                             ; add byte offset 0-7
8340   2AF9 6F              LD L,A                              ; now HL addresses character source byte
8341   2AFA             
8342   2AFA CB 11           RL C                                ; test character, setting carry if inverse.
8343   2AFC 9F              SBC A,A                             ; accumulator now $00 if normal, $FF if inverse.
8344   2AFD             
8345   2AFD AE              XOR (HL)                            ; combine with bit pattern at end or ROM.
8346   2AFE             
8347   2AFE C3 51 0A        JP L_0A51                           ; Back to original code (matches ZX81 from here)
8348   2B01             
8349   2B01             ;###############################################################################
8350   2B01             ; Replacement LOAD and SAVE functions for Lambda 8300 BASIC for the Minstrel 4th
8351   2B01             ; Dave Curran 2026-06-17
8352   2B01             ;###############################################################################
8353   2B01             
8354   2B01             ;###############################################################################
8355   2B01             ; replacement SAVE function with countdown
8356   2B01             NEW_SAVE: 
8357   2B01             
8358   2B01 CD 70 03        CALL SUB_0370                       ; routine SET-FAST
8359   2B04             
8360   2B04 CD 1D 2C        CALL GET_NAME                       ; get user supplied program name
8361   2B07 38 74           JR C,F02F4                          ; back with null name to REPORT-F above.
8362   2B09             
8363   2B09 F5              PUSH AF                             ; Save registers
8364   2B0A C5              PUSH BC                             ; 
8365   2B0B D5              PUSH DE                             ; 
8366   2B0C E5              PUSH HL                             ; 
8367   2B0D             
8368   2B0D CD 35 2C        CALL DRAW_BOX
8369   2B10             
8370   2B10 11 69 25        LD DE, LINE2_POS                    ; draw the SAVING message
8371   2B13 21 BA 2C        LD HL, SAVING_DOTS 
8372   2B16 01 0E 00        LD BC, BOX_LENGTH
8373   2B19 ED B0           LDIR
8374   2B1B             
8375   2B1B E1              POP HL                              ; Restore registers
8376   2B1C D1              POP DE                              ; 
8377   2B1D C1              POP BC                              ; 
8378   2B1E F1              POP AF                              ; 
8379   2B1F             
8380   2B1F             ;; SAVE
8381   2B1F FD 36 09 FF     LD (IY+$09),$FF                     ; Set version to $FF, indicating Lambda 8300 program
8382   2B23 EB              EX DE,HL                            ;
8383   2B24 11 CB 12        LD DE,$12CB                         ; five seconds timing value
8384   2B27             
8385   2B27             ;; HEADER
8386   2B27 CD 3B 11    F02FF: CALL SUB_113B                    ; routine BREAK-1
8387   2B2A 30 43           JR NC,F0332                         ; to BREAK-2
8388   2B2C             
8389   2B2C             ;; DELAY-1
8390   2B2C 10 FE       F0304: DJNZ F0304                       ; to DELAY-1
8391   2B2E             
8392   2B2E 1B              DEC DE                              ;
8393   2B2F 7A              LD A,D                              ;
8394   2B30 B3              OR E                                ;
8395   2B31 20 F4           JR NZ,F02FF                         ; back for delay to HEADER
8396   2B33             
8397   2B33             ;; OUT-NAME
8398   2B33 CD 56 2B    F030B: CALL F031E                       ; routine OUT-BYTE
8399   2B36 CB 7E           BIT 7,(HL)                          ; test for inverted bit.
8400   2B38 23              INC HL                              ; address next character of name.
8401   2B39 28 F8           JR Z,F030B                          ; back if not inverted to OUT-NAME
8402   2B3B             
8403   2B3B             ; now start saving the system variables onwards.
8404   2B3B             
8405   2B3B 21 09 40        LD HL,$4009                         ; set start of area to VERSN thereby
8406   2B3E                                                     ; preserving RAMTOP etc.
8407   2B3E             
8408   2B3E             ;; OUT-PROG
8409   2B3E CD 56 2B    F0316: CALL F031E                       ; routine OUT-BYTE
8410   2B41             
8411   2B41             ;; Check if finished
8412   2B41 23              INC HL                              ; next byte
8413   2B42 E5              PUSH HL                             ; store HL
8414   2B43 EB              EX DE,HL                            ; move the pointer value to DE
8415   2B44 2A 14 40        LD HL,($4014)                       ; load HL with E_LINE - the location following
8416   2B47                                                     ; the variables end-marker.
8417   2B47 37              SCF                                 ; set carry
8418   2B48 ED 52           SBC HL,DE                           ; trial subtraction.
8419   2B4A 38 06           JR C,SAVE_FINISHED                  ; finished, return to main loop
8420   2B4C             
8421   2B4C CD 59 2C        CALL DISPLAY_HL                     ; not finished, show the progress
8422   2B4F             
8423   2B4F E1              POP HL                              ; restore pointer.
8424   2B50             
8425   2B50 18 EC           JR F0316                            ; else back to do another byte.
8426   2B52             
8427   2B52             SAVE_FINISHED:
8428   2B52 E1              POP HL                              ; remove byte address from stack
8429   2B53 C3 21 02        JP L_0221                           ; LOAD/SAVE-COMPLETE
8430   2B56             
8431   2B56             ; -------------------------
8432   2B56             ; THE 'OUT-BYTE' SUBROUTINE
8433   2B56             ; -------------------------
8434   2B56             ; This subroutine outputs a byte a bit at a time to a domestic tape recorder.
8435   2B56             
8436   2B56             ;; OUT-BYTE
8437   2B56 5E          F031E: LD E,(HL)                        ; fetch byte to be saved.
8438   2B57 37              SCF                                 ; set carry flag - as a marker.
8439   2B58             
8440   2B58             ;; EACH-BIT
8441   2B58 CB 13       F0320: RL E                             ; C < 76543210 < C
8442   2B5A C8              RET Z                               ; return when the marker bit has passed 
8443   2B5B                                                     ; right through. >>
8444   2B5B             
8445   2B5B 9F              SBC A,A                             ; $FF if set bit or $00 with no carry.
8446   2B5C E6 05           AND $05                             ; $05 $00
8447   2B5E C6 04           ADD A,$04                           ; $09 $04
8448   2B60 4F              LD C,A                              ; transfer timer to C. a set bit has a longer
8449   2B61                                                     ; pulse than a reset bit.
8450   2B61             
8451   2B61             ;; PULSES
8452   2B61 3E 08       F0329: LD A, $08                        ; set save output high
8453   2B63 D3 FE           OUT ($FE),A                         ; 
8454   2B65             
8455   2B65 06 23           LD B,$23                            ; set timing constant
8456   2B67             
8457   2B67             ;; DELAY-2
8458   2B67 10 FE       F032D: DJNZ F032D                       ; self-loop to DELAY-2
8459   2B69             
8460   2B69 AF              XOR A                               ; set save output low
8461   2B6A D3 FE           OUT ($FE), A                        ;
8462   2B6C             
8463   2B6C CD 3B 11        CALL SUB_113B                       ; routine BREAK-1 test for BREAK key. 
8464   2B6F             
8465   2B6F             ;; BREAK-2
8466   2B6F 30 0E       F0332: JR NC,F03A6                      ; forward with break to REPORT-D
8467   2B71             
8468   2B71 06 1E           LD B,$1E                            ; set timing value.
8469   2B73             
8470   2B73             ;; DELAY-3
8471   2B73 10 FE       F0336: DJNZ F0336                       ; self-loop to DELAY-3
8472   2B75             
8473   2B75 0D              DEC C                               ; decrement counter
8474   2B76 20 E9           JR NZ,F0329                         ; loop back to PULSES
8475   2B78             
8476   2B78             ;; DELAY-4
8477   2B78 A7          F033B: AND A                            ; clear carry for next bit test.
8478   2B79 10 FD           DJNZ F033B                          ; self loop to DELAY-4 (B is zero - 256)
8479   2B7B             
8480   2B7B 18 DB           JR F0320                            ; loop back to EACH-BIT
8481   2B7D             
8482   2B7D             ; --------------
8483   2B7D             ; THE 'REPORT-F'
8484   2B7D             ; --------------
8485   2B7D             
8486   2B7D             ;; REPORT-F
8487   2B7D CF          F02F4: RST 08H                          ; ERROR-1
8488   2B7E 0E              .BYTE $0E                           ; Error Report: No Program Name supplied.
8489   2B7F             
8490   2B7F             ;; REPORT-D
8491   2B7F CF          F03A6: RST 08H                          ; ERROR-1
8492   2B80 0C              .BYTE $0C                           ; Error Report: BREAK - CONT repeats
8493   2B81             
8494   2B81             
8495   2B81             ;###############################################################################
8496   2B81             ; replacement LOAD function with countdown
8497   2B81             
8498   2B81             NEW_LOAD: 
8499   2B81             
8500   2B81 CD 70 03        CALL SUB_0370                       ; routine SET-FAST
8501   2B84             
8502   2B84 CD 35 2C        CALL DRAW_BOX
8503   2B87             
8504   2B87 11 69 25        LD DE, LINE2_POS                    ; draw the LOADING message
8505   2B8A 21 AC 2C        LD HL, LOADING_DOTS
8506   2B8D 01 0E 00        LD BC, BOX_LENGTH
8507   2B90 ED B0           LDIR
8508   2B92             
8509   2B92 CD 1D 2C        CALL GET_NAME                       ; get user supplied program name
8510   2B95 38 12           JR C,SKIP_NAME                      ; carry set if LOAD ""
8511   2B97             
8512   2B97                                                     ; carry clear so LOAD "name"
8513   2B97                                                     ; DE points to start of name, last character has bit 7 set
8514   2B97             
8515   2B97 42              LD B, D                             ; save address in BC
8516   2B98 4B              LD C, E                             ;
8517   2B99             
8518   2B99             WAIT_FOR_NAME:
8519   2B99 60              LD H, B                             ; load address from BC
8520   2B9A 69              LD L, C                             ;
8521   2B9B              
8522   2B9B             CHECK_NAME: 
8523   2B9B CD D3 2B        CALL LOAD_BYTE                      ; load a byte
8524   2B9E 38 DF           JR C, F03A6                         ; break pressed before load started, recover
8525   2BA0 BE              CP (HL)                             ; check if it matches name
8526   2BA1 20 F6           JR NZ, WAIT_FOR_NAME                ; no match, wait again - add delay???
8527   2BA3             
8528   2BA3 23              INC HL                              ; address next character of name
8529   2BA4 17              RLA                                 ; test bit 7
8530   2BA5 30 F4           JR NC,CHECK_NAME                    ; no, continue checking
8531   2BA7 18 08           JR LOAD_PROG                        ; name matched, now load the program
8532   2BA9             
8533   2BA9             SKIP_NAME:
8534   2BA9 CD D3 2B        CALL LOAD_BYTE                      ; load a byte
8535   2BAC 38 D1           JR C, F03A6                         ; break pressed before load started, recover
8536   2BAE             
8537   2BAE 17              RLA                                 ; bit 7 -> carry
8538   2BAF 30 F8           JR NC, SKIP_NAME                    ; loop back until name skipped
8539   2BB1             
8540   2BB1             LOAD_PROG:
8541   2BB1                                                     ; name has been skipped / matched, now start loading the program
8542   2BB1              
8543   2BB1 FD 34 15        INC (IY+$15)                        ; increment E_LINE_MSB to avoid load fail before it is overwritten
8544   2BB4 21 09 40        LD HL, $4009                        ; set start load location
8545   2BB7             
8546   2BB7             LOADING:
8547   2BB7 CD D3 2B        CALL LOAD_BYTE                      ; load a byte
8548   2BBA DA 40 2A        JP C, INIT_4TH                      ; break pressed after load started, reset
8549   2BBD             
8550   2BBD 77              LD (HL),A                           ; store byte
8551   2BBE             
8552   2BBE 23              INC HL                              ; next byte
8553   2BBF E5              PUSH HL                             ; store HL
8554   2BC0 EB              EX DE,HL                            ; move the pointer value to DE
8555   2BC1 2A 14 40        LD HL,($4014)                       ; load HL with E_LINE - the location following
8556   2BC4                                                     ; the variables end-marker.
8557   2BC4 37              SCF                                 ; set carry
8558   2BC5 ED 52           SBC HL,DE                           ; trial subtraction.
8559   2BC7              
8560   2BC7 38 06           JR C,LOAD_FINISHED                  ; finished
8561   2BC9             
8562   2BC9 CD 59 2C        CALL DISPLAY_HL                     ; not finished, show the progress
8563   2BCC             
8564   2BCC E1              POP HL                              ; restore load pointer
8565   2BCD 18 E8           JR LOADING                          ; else for more
8566   2BCF             
8567   2BCF             LOAD_FINISHED:
8568   2BCF E1              POP HL                              ; remove byte address from stack
8569   2BD0 C3 21 02        JP L_0221                           ; LOAD/SAVE-COMPLETE
8570   2BD3             
8571   2BD3             
8572   2BD3             ;##########################################################
8573   2BD3             ; Load a byte
8574   2BD3             ; count transitions
8575   2BD3             ; """"VVVV""""" = 0
8576   2BD3             ; """"VVVVVVVVV""""" = 1
8577   2BD3              
8578   2BD3             ; A scratch
8579   2BD3             ; B pulse timer
8580   2BD3             ; C transition counter
8581   2BD3             ; D previous value of the io port (masked)
8582   2BD3             ; E bit counter
8583   2BD3             ; L byte store
8584   2BD3             
8585   2BD3             ; returns byte in A
8586   2BD3             ; carry set if break pressed
8587   2BD3             ;##########################################################
8588   2BD3             
8589   2BD3             IO_FE_MASK .EQU %00100001               ; mask for tape and space column
8590   2BD3             
8591   2BD3             LOAD_BYTE:
8592   2BD3 D9              EXX                                 ; swap to backup register set
8593   2BD4             
8594   2BD4             LOAD_AGAIN:
8595   2BD4 1E 08           LD E, $08                           ; load bit counter
8596   2BD6              
8597   2BD6             LOAD_BIT:
8598   2BD6 0E 00           LD C, $00                           ; clear transition counter
8599   2BD8             
8600   2BD8             LOAD_WAIT:
8601   2BD8                                                     ; wait for the next bit to start
8602   2BD8 3E 7F           LD A,$7F                            ; read from port $7FFE.
8603   2BDA DB FE           IN A,($FE)                          ; the keyboard row with space.
8604   2BDC E6 21           AND IO_FE_MASK                      ; mask all but the tape and space column bits
8605   2BDE             
8606   2BDE BA              CP D                                ; test if this is the same as the previous byte
8607   2BDF CA D8 2B        JP Z, LOAD_WAIT                     ; if the same, keep waiting
8608   2BE2              
8609   2BE2 CB 47           BIT 0, A                            ; has this changed becase of the space key?
8610   2BE4 CA 1A 2C        JP Z, LOAD_BREAK                    ; yes space / break pressed
8611   2BE7             
8612   2BE7 57              LD D, A                             ; store previous value
8613   2BE8             
8614   2BE8             LOAD_PULSE:
8615   2BE8 06 14           LD B, $14                           ; number of tests before bit transitions over
8616   2BEA             
8617   2BEA             LOAD_TEST:
8618   2BEA 3E 7F           LD A,$7F                            ; read from port $7FFE.
8619   2BEC DB FE           IN A,($FE)                          ; the keyboard row with space.
8620   2BEE E6 21           AND IO_FE_MASK                      ; mask all but the tape and space column bits
8621   2BF0             
8622   2BF0 BA              CP D                                ; test if this is the same as the previous byte
8623   2BF1 CA FD 2B        JP Z, LOAD_SAME                     ; if the same, different skip forward
8624   2BF4              
8625   2BF4 CB 47           BIT 0, A                            ; has this changed becase of the space key?
8626   2BF6 CA 1A 2C        JP Z, LOAD_BREAK                    ; yes space / break pressed
8627   2BF9             
8628   2BF9 0C              INC C                               ; transition detected, increment counter
8629   2BFA 57              LD D, A                             ; store previous value
8630   2BFB             
8631   2BFB 18 EB           JR LOAD_PULSE                       ; loop back for more
8632   2BFD             
8633   2BFD             LOAD_SAME:
8634   2BFD 10 EB           DJNZ LOAD_TEST                      ; keep looping up to 16 times
8635   2BFF             
8636   2BFF                                                     ; no transition has been detected for 16 tests, end of this bit
8637   2BFF             
8638   2BFF 79              LD A, C                             ; check the transition count
8639   2C00              
8640   2C00 FE 04           CP $04                              ; is it < 4
8641   2C02 38 D0           JR C, LOAD_AGAIN                    ; error, start again
8642   2C04             
8643   2C04 FE 0A           CP $0A                              ; is C < 10
8644   2C06 38 06           JR C, LOAD_ZERO                     ; it's a zero
8645   2C08             
8646   2C08 FE 14           CP $14                              ; is C < 20
8647   2C0A 38 05           JR C, LOAD_ONE                      ; it's a one
8648   2C0C             
8649   2C0C 18 C6           JR LOAD_AGAIN                       ; error, start again
8650   2C0E             
8651   2C0E             LOAD_ZERO:
8652   2C0E A7              AND A                               ; clear carry flag
8653   2C0F 18 00           JR LOAD_NEXT
8654   2C11             
8655   2C11             LOAD_ONE:
8656   2C11                                                     ; carry already set
8657   2C11             
8658   2C11             LOAD_NEXT:
8659   2C11 CB 15           RL L                                ; rotate the bit into position in the byte store
8660   2C13              
8661   2C13 1D              DEC E                               ; decrememnt bit counter
8662   2C14 20 C0           JR NZ, LOAD_BIT                     ; get next bit
8663   2C16             
8664   2C16                                                     ; 8 bits complete
8665   2C16             
8666   2C16 7D              LD A, L                             ; received byte to A
8667   2C17 D9              EXX                                 ; restore normal registers 
8668   2C18 A7              AND A                               ; clear carry flag
8669   2C19 C9              RET                                 ;
8670   2C1A             
8671   2C1A             LOAD_BREAK:
8672   2C1A D9              EXX                                 ; restore normal registers 
8673   2C1B 37              SCF                                 ; set the carry flag to indicate break pressed
8674   2C1C C9              RET                                 ; 
8675   2C1D             
8676   2C1D             
8677   2C1D             ;###############################################################################
8678   2C1D             ; GET_NAME
8679   2C1D             ; parse the user input to get the program name
8680   2C1D             
8681   2C1D             GET_NAME:
8682   2C1D CD 4A 11        CALL SUB_114A                       ; routine SCANNING
8683   2C20 3A 01 40        LD A,($4001)                        ; sv FLAGS
8684   2C23 87              ADD A,A                             ;
8685   2C24 FA 33 04        JP M,L_0433                         ; to REPORT-C
8686   2C27             
8687   2C27 E1              POP HL                              ;
8688   2C28 D0              RET NC                              ;
8689   2C29             
8690   2C29 E5              PUSH HL                             ;
8691   2C2A CD ED 15        CALL SUB_15ED                       ; routine STK-FETCH
8692   2C2D 62              LD H,D                              ;
8693   2C2E 6B              LD L,E                              ;
8694   2C2F 0D              DEC C                               ;
8695   2C30 F8              RET M                               ;
8696   2C31             
8697   2C31 09              ADD HL,BC                           ;
8698   2C32 CB FE           SET 7,(HL)                          ;
8699   2C34 C9              RET                                 ;
8700   2C35             
8701   2C35             ;###############################################################################
8702   2C35             ; display loading screen
8703   2C35             ; /------------\
8704   2C35             ; |LOADING ....|
8705   2C35             ; \------------/
8706   2C35             
8707   2C35             DRAW_BOX:
8708   2C35              
8709   2C35 AF              XOR A                               ; clear the screen, using A=0
8710   2C36 21 00 24        LD HL, $2400                        ; start of video RAM
8711   2C39 11 01 24        LD DE, $2401                        ; the next byte
8712   2C3C 01 00 03        LD BC, $0300                        ; number of bytes to clear (including $2700)
8713   2C3F 77              LD (HL), A                          ; Clear the first byte
8714   2C40 ED B0           LDIR                                ; Clear all the rest
8715   2C42              
8716   2C42 11 49 25        LD DE, LINE1_POS                    ; draw the top of the box
8717   2C45 21 9E 2C        LD HL, BOX_TOP 
8718   2C48 01 0E 00        LD BC, BOX_LENGTH
8719   2C4B ED B0           LDIR
8720   2C4D             
8721   2C4D 11 89 25        LD DE, LINE3_POS                    ; draw the bottom of the box
8722   2C50 21 C8 2C        LD HL, BOX_BOTTOM
8723   2C53 01 0E 00        LD BC, BOX_LENGTH
8724   2C56 ED B0           LDIR
8725   2C58             
8726   2C58 C9              RET
8727   2C59             
8728   2C59             ;###############################################################################
8729   2C59             ; diplay the current value of HL in the loading / saving box
8730   2C59             ; works from right to left, updating as few digits as necessary
8731   2C59             ; (if a digit is not 0, then don't update anything to it's left)
8732   2C59             
8733   2C59             DISPLAY_HL: 
8734   2C59 11 75 25        LD DE, DIGITS_POS+3
8735   2C5C             DISPLAY_HL2:
8736   2C5C 0E 0F           LD C, $0F                           ; 0F is used a lot, so preload it 
8737   2C5E              
8738   2C5E                                                     ; start with the LSB ...L
8739   2C5E 7D              LD A, L
8740   2C5F A1              AND C
8741   2C60 C6 1C           ADD A, _0
8742   2C62 12              LD (DE), A
8743   2C63 1B              DEC DE
8744   2C64             
8745   2C64                                                     ; display ..L.
8746   2C64 7D              LD A, L
8747   2C65 1F              RRA
8748   2C66 1F              RRA
8749   2C67 1F              RRA
8750   2C68 1F              RRA
8751   2C69 A1              AND C
8752   2C6A 28 11           JR Z, DISPLAY_HL_END                ; skip to the end if this is non-zero
8753   2C6C             
8754   2C6C             
8755   2C6C C6 1C           ADD A, _0
8756   2C6E 12              LD (DE), A
8757   2C6F 1B              DEC DE
8758   2C70             
8759   2C70                                                     ; display .H..
8760   2C70 7C              LD A, H
8761   2C71 A1              AND C
8762   2C72 C6 1C           ADD A, _0
8763   2C74 12              LD (DE), A
8764   2C75 1B              DEC DE
8765   2C76             
8766   2C76                                                     ; display H
8767   2C76 7C              LD A, H
8768   2C77 1F              RRA
8769   2C78 1F              RRA
8770   2C79 1F              RRA
8771   2C7A 1F              RRA
8772   2C7B E6 0F           AND $0F
8773   2C7D             
8774   2C7D             DISPLAY_HL_END: 
8775   2C7D C6 1C           ADD A, _0
8776   2C7F 12              LD (DE), A
8777   2C80              
8778   2C80 C9              RET
8779   2C81                 
8780   2C81             
8781   2C81             ;###########################################################
8782   2C81             ; Sound functions for Lambda 8300 BASIC for the Minstrel 4th
8783   2C81             ; Dave Curran 2026-06-20
8784   2C81             ;###########################################################
8785   2C81             
8786   2C81             ;##############################################################################
8787   2C81             ; Play Note
8788   2C81             ; E = note, defined as 32500Hz/E, so (0=256=>127Hz) to (1=>32.5KHz)
8789   2C81             ; BC = duration, defined as BC/65ms, so (1=>15ms) to (0=65536=>1 second)
8790   2C81             ; Two entry points, key beep, error and SOUND use PLAY_NOTE, MUSIC uses PLAY_NOTE_2
8791   2C81             
8792   2C81             PLAY_NOTE:
8793   2C81             ; speaker on
8794   2C81 AF              XOR A                               ; Clear A so save output (bit 5) stays low
8795   2C82 D3 FE           OUT ($FE),A                         ; Speaker on    
8796   2C84 53              LD D,E                              ; Load note period into D
8797   2C85             
8798   2C85             ; first loop, after speaker is on
8799   2C85             PLAY_NOTE_2:
8800   2C85 0B              DEC BC                              ; Count down duration
8801   2C86 78              LD A,B                              ; Check if BC=0    
8802   2C87 B1              OR C                                ; 
8803   2C88 C8              RET Z                               ; If BC=0 exit here
8804   2C89 15              DEC D                               ; Count down note    
8805   2C8A 28 04           JR Z,_PLAY_NOTE_3                   ; Note countdown complete, speaker off
8806   2C8C 00              NOP                                 ; Loop timing
8807   2C8D 00              NOP                                 ;
8808   2C8E 18 F5           JR PLAY_NOTE_2                      ; Loop until note or duration complete
8809   2C90             
8810   2C90             ; speaker off
8811   2C90             _PLAY_NOTE_3:
8812   2C90 DB FE           IN A,($FE)                          ; Speaker off
8813   2C92 53              LD D,E                              ; Load note period into D
8814   2C93             
8815   2C93             ; second loop, with speaker off
8816   2C93             _PLAY_NOTE_4:
8817   2C93 0B              DEC BC                              ; Count down duration
8818   2C94 78              LD A,B                              ; Check if BC=0    
8819   2C95 B1              OR C                                ; 
8820   2C96 C8              RET Z                               ; If BC=0 exit here
8821   2C97 15              DEC D                               ; Count down note    
8822   2C98 28 E7           JR Z,PLAY_NOTE                      ; Note countdown complete, speaker on
8823   2C9A 00              NOP                                 ; Loop timing
8824   2C9B 00              NOP                                 ;
8825   2C9C 18 F5           JR _PLAY_NOTE_4                     ; Loop until note or duration complete
8826   2C9E             
8827   2C9E             ;##############################################################################
8828   2C9E             ; Strings
8829   2C9E             
8830   2C9E             LINE1_POS       .EQU     $2549          ; $2400+32*10+9
8831   2C9E             LINE2_POS       .EQU     $2569          ; $2400+32*11+9
8832   2C9E             LINE3_POS       .EQU     $2589          ; $2400+32*12+9
8833   2C9E             DIGITS_POS      .EQU     LINE2_POS+$09
8834   2C9E             BOX_LENGTH      .EQU     $0E
8835   2C9E             
8836   2C9E             ;##########################################################
8837   2C9E             
8838   2C9E             BOX_TOP:
8839   2C9E 07 03 03 03         .BYTE    $07, $03, $03, $03, $03, $03, $03, $03, $03, $03, $03, $03, $03, $84
8839   2CA2 03 03 03 03 
8839   2CA6 03 03 03 03 
8839   2CAA 03 84 
8840   2CAC             
8841   2CAC             LOADING_DOTS:
8842   2CAC 05 31 34 26         .BYTE    $05, _L, _O, _A, _D, _I, _N, _G, __, _DOT, _DOT, _DOT, _DOT, $85
8842   2CB0 29 2E 33 2C 
8842   2CB4 00 1B 1B 1B 
8842   2CB8 1B 85 
8843   2CBA             
8844   2CBA             SAVING_DOTS:
8845   2CBA 05 38 26 3B         .BYTE    $05, _S, _A, _V, _I, _N, _G, __, __, _DOT, _DOT, _DOT, _DOT, $85
8845   2CBE 2E 33 2C 00 
8845   2CC2 00 1B 1B 1B 
8845   2CC6 1B 85 
8846   2CC8             
8847   2CC8             BOX_BOTTOM:
8848   2CC8 82 83 83 83         .BYTE    $82, $83, $83, $83, $83, $83, $83, $83, $83, $83, $83, $83, $83, $81
8848   2CCC 83 83 83 83 
8848   2CD0 83 83 83 83 
8848   2CD4 83 81 
8849   2CD6             
8850   2CD6             BANNER_TEXT:
8851   2CD6                     ; "LAMBDA 8300 - MINSTREL 4TH Vx.y "
8852   2CD6 31 26 32 27         .BYTE    _L, _A, _M, _B, _D, _A, __, _8, _3, _0, _0, __
8852   2CDA 29 26 00 24 
8852   2CDE 1F 1C 1C 00 
8853   2CE2 16 00 32 2E         .BYTE    _DASH, __, _M, _I, _N, _S, _T, _R, _E, _L, __
8853   2CE6 33 38 39 37 
8853   2CEA 2A 31 00 
8854   2CED 20 39 2D 00         .BYTE    _4, _T, _H, __, _V, _1, _DOT, _0, __
8854   2CF1 3B 1D 1B 1C 
8854   2CF5 00 
8855   2CF6             BANNER_TEXT_END:
8856   2CF6             
8857   2CF6 FF FF FF FF .FILL $1000, $FF
8857   2CFA FF FF FF FF 
8857   2CFE FF FF FF FF 
8857   2D02 FF FF FF FF 
8857   2D06 FF FF FF FF 
8857   2D0A FF FF FF FF 
8857   2D0E FF FF FF FF 
8857   2D12 FF FF FF FF 
8857   2D16 FF FF FF FF 
8857   2D1A FF FF FF FF 
8857   2D1E FF FF FF FF 
8857   2D22 FF FF FF FF 
8857   2D26 FF FF FF FF 
8857   2D2A FF FF FF FF 
8857   2D2E FF FF FF FF 
8857   2D32 FF FF FF FF 
8857   2D36 FF FF FF FF 
8857   2D3A FF FF FF FF 
8857   2D3E FF FF FF FF 
8857   2D42 FF FF FF FF 
8857   2D46 FF FF FF FF 
8857   2D4A FF FF FF FF 
8857   2D4E FF FF FF FF 
8857   2D52 FF FF FF FF 
8857   2D56 FF FF FF FF 
8857   2D5A FF FF FF FF 
8857   2D5E FF FF FF FF 
8857   2D62 FF FF FF FF 
8857   2D66 FF FF FF FF 
8857   2D6A FF FF FF FF 
8857   2D6E FF FF FF FF 
8857   2D72 FF FF FF FF 
8857   2D76 FF FF FF FF 
8857   2D7A FF FF FF FF 
8857   2D7E FF FF FF FF 
8857   2D82 FF FF FF FF 
8857   2D86 FF FF FF FF 
8857   2D8A FF FF FF FF 
8857   2D8E FF FF FF FF 
8857   2D92 FF FF FF FF 
8857   2D96 FF FF FF FF 
8857   2D9A FF FF FF FF 
8857   2D9E FF FF FF FF 
8857   2DA2 FF FF FF FF 
8857   2DA6 FF FF FF FF 
8857   2DAA FF FF FF FF 
8857   2DAE FF FF FF FF 
8857   2DB2 FF FF FF FF 
8857   2DB6 FF FF FF FF 
8857   2DBA FF FF FF FF 
8857   2DBE FF FF FF FF 
8857   2DC2 FF FF FF FF 
8857   2DC6 FF FF FF FF 
8857   2DCA FF FF FF FF 
8857   2DCE FF FF FF FF 
8857   2DD2 FF FF FF FF 
8857   2DD6 FF FF FF FF 
8857   2DDA FF FF FF FF 
8857   2DDE FF FF FF FF 
8857   2DE2 FF FF FF FF 
8857   2DE6 FF FF FF FF 
8857   2DEA FF FF FF FF 
8857   2DEE FF FF FF FF 
8857   2DF2 FF FF FF FF 
8857   2DF6 FF FF FF FF 
8857   2DFA FF FF FF FF 
8857   2DFE FF FF FF FF 
8857   2E02 FF FF FF FF 
8857   2E06 FF FF FF FF 
8857   2E0A FF FF FF FF 
8857   2E0E FF FF FF FF 
8857   2E12 FF FF FF FF 
8857   2E16 FF FF FF FF 
8857   2E1A FF FF FF FF 
8857   2E1E FF FF FF FF 
8857   2E22 FF FF FF FF 
8857   2E26 FF FF FF FF 
8857   2E2A FF FF FF FF 
8857   2E2E FF FF FF FF 
8857   2E32 FF FF FF FF 
8857   2E36 FF FF FF FF 
8857   2E3A FF FF FF FF 
8857   2E3E FF FF FF FF 
8857   2E42 FF FF FF FF 
8857   2E46 FF FF FF FF 
8857   2E4A FF FF FF FF 
8857   2E4E FF FF FF FF 
8857   2E52 FF FF FF FF 
8857   2E56 FF FF FF FF 
8857   2E5A FF FF FF FF 
8857   2E5E FF FF FF FF 
8857   2E62 FF FF FF FF 
8857   2E66 FF FF FF FF 
8857   2E6A FF FF FF FF 
8857   2E6E FF FF FF FF 
8857   2E72 FF FF FF FF 
8857   2E76 FF FF FF FF 
8857   2E7A FF FF FF FF 
8857   2E7E FF FF FF FF 
8857   2E82 FF FF FF FF 
8857   2E86 FF FF FF FF 
8857   2E8A FF FF FF FF 
8857   2E8E FF FF FF FF 
8857   2E92 FF FF FF FF 
8857   2E96 FF FF FF FF 
8857   2E9A FF FF FF FF 
8857   2E9E FF FF FF FF 
8857   2EA2 FF FF FF FF 
8857   2EA6 FF FF FF FF 
8857   2EAA FF FF FF FF 
8857   2EAE FF FF FF FF 
8857   2EB2 FF FF FF FF 
8857   2EB6 FF FF FF FF 
8857   2EBA FF FF FF FF 
8857   2EBE FF FF FF FF 
8857   2EC2 FF FF FF FF 
8857   2EC6 FF FF FF FF 
8857   2ECA FF FF FF FF 
8857   2ECE FF FF FF FF 
8857   2ED2 FF FF FF FF 
8857   2ED6 FF FF FF FF 
8857   2EDA FF FF FF FF 
8857   2EDE FF FF FF FF 
8857   2EE2 FF FF FF FF 
8857   2EE6 FF FF FF FF 
8857   2EEA FF FF FF FF 
8857   2EEE FF FF FF FF 
8857   2EF2 FF FF FF FF 
8857   2EF6 FF FF FF FF 
8857   2EFA FF FF FF FF 
8857   2EFE FF FF FF FF 
8857   2F02 FF FF FF FF 
8857   2F06 FF FF FF FF 
8857   2F0A FF FF FF FF 
8857   2F0E FF FF FF FF 
8857   2F12 FF FF FF FF 
8857   2F16 FF FF FF FF 
8857   2F1A FF FF FF FF 
8857   2F1E FF FF FF FF 
8857   2F22 FF FF FF FF 
8857   2F26 FF FF FF FF 
8857   2F2A FF FF FF FF 
8857   2F2E FF FF FF FF 
8857   2F32 FF FF FF FF 
8857   2F36 FF FF FF FF 
8857   2F3A FF FF FF FF 
8857   2F3E FF FF FF FF 
8857   2F42 FF FF FF FF 
8857   2F46 FF FF FF FF 
8857   2F4A FF FF FF FF 
8857   2F4E FF FF FF FF 
8857   2F52 FF FF FF FF 
8857   2F56 FF FF FF FF 
8857   2F5A FF FF FF FF 
8857   2F5E FF FF FF FF 
8857   2F62 FF FF FF FF 
8857   2F66 FF FF FF FF 
8857   2F6A FF FF FF FF 
8857   2F6E FF FF FF FF 
8857   2F72 FF FF FF FF 
8857   2F76 FF FF FF FF 
8857   2F7A FF FF FF FF 
8857   2F7E FF FF FF FF 
8857   2F82 FF FF FF FF 
8857   2F86 FF FF FF FF 
8857   2F8A FF FF FF FF 
8857   2F8E FF FF FF FF 
8857   2F92 FF FF FF FF 
8857   2F96 FF FF FF FF 
8857   2F9A FF FF FF FF 
8857   2F9E FF FF FF FF 
8857   2FA2 FF FF FF FF 
8857   2FA6 FF FF FF FF 
8857   2FAA FF FF FF FF 
8857   2FAE FF FF FF FF 
8857   2FB2 FF FF FF FF 
8857   2FB6 FF FF FF FF 
8857   2FBA FF FF FF FF 
8857   2FBE FF FF FF FF 
8857   2FC2 FF FF FF FF 
8857   2FC6 FF FF FF FF 
8857   2FCA FF FF FF FF 
8857   2FCE FF FF FF FF 
8857   2FD2 FF FF FF FF 
8857   2FD6 FF FF FF FF 
8857   2FDA FF FF FF FF 
8857   2FDE FF FF FF FF 
8857   2FE2 FF FF FF FF 
8857   2FE6 FF FF FF FF 
8857   2FEA FF FF FF FF 
8857   2FEE FF FF FF FF 
8857   2FF2 FF FF FF FF 
8857   2FF6 FF FF FF FF 
8857   2FFA FF FF FF FF 
8857   2FFE FF FF FF FF 
8857   3002 FF FF FF FF 
8857   3006 FF FF FF FF 
8857   300A FF FF FF FF 
8857   300E FF FF FF FF 
8857   3012 FF FF FF FF 
8857   3016 FF FF FF FF 
8857   301A FF FF FF FF 
8857   301E FF FF FF FF 
8857   3022 FF FF FF FF 
8857   3026 FF FF FF FF 
8857   302A FF FF FF FF 
8857   302E FF FF FF FF 
8857   3032 FF FF FF FF 
8857   3036 FF FF FF FF 
8857   303A FF FF FF FF 
8857   303E FF FF FF FF 
8857   3042 FF FF FF FF 
8857   3046 FF FF FF FF 
8857   304A FF FF FF FF 
8857   304E FF FF FF FF 
8857   3052 FF FF FF FF 
8857   3056 FF FF FF FF 
8857   305A FF FF FF FF 
8857   305E FF FF FF FF 
8857   3062 FF FF FF FF 
8857   3066 FF FF FF FF 
8857   306A FF FF FF FF 
8857   306E FF FF FF FF 
8857   3072 FF FF FF FF 
8857   3076 FF FF FF FF 
8857   307A FF FF FF FF 
8857   307E FF FF FF FF 
8857   3082 FF FF FF FF 
8857   3086 FF FF FF FF 
8857   308A FF FF FF FF 
8857   308E FF FF FF FF 
8857   3092 FF FF FF FF 
8857   3096 FF FF FF FF 
8857   309A FF FF FF FF 
8857   309E FF FF FF FF 
8857   30A2 FF FF FF FF 
8857   30A6 FF FF FF FF 
8857   30AA FF FF FF FF 
8857   30AE FF FF FF FF 
8857   30B2 FF FF FF FF 
8857   30B6 FF FF FF FF 
8857   30BA FF FF FF FF 
8857   30BE FF FF FF FF 
8857   30C2 FF FF FF FF 
8857   30C6 FF FF FF FF 
8857   30CA FF FF FF FF 
8857   30CE FF FF FF FF 
8857   30D2 FF FF FF FF 
8857   30D6 FF FF FF FF 
8857   30DA FF FF FF FF 
8857   30DE FF FF FF FF 
8857   30E2 FF FF FF FF 
8857   30E6 FF FF FF FF 
8857   30EA FF FF FF FF 
8857   30EE FF FF FF FF 
8857   30F2 FF FF FF FF 
8857   30F6 FF FF FF FF 
8857   30FA FF FF FF FF 
8857   30FE FF FF FF FF 
8857   3102 FF FF FF FF 
8857   3106 FF FF FF FF 
8857   310A FF FF FF FF 
8857   310E FF FF FF FF 
8857   3112 FF FF FF FF 
8857   3116 FF FF FF FF 
8857   311A FF FF FF FF 
8857   311E FF FF FF FF 
8857   3122 FF FF FF FF 
8857   3126 FF FF FF FF 
8857   312A FF FF FF FF 
8857   312E FF FF FF FF 
8857   3132 FF FF FF FF 
8857   3136 FF FF FF FF 
8857   313A FF FF FF FF 
8857   313E FF FF FF FF 
8857   3142 FF FF FF FF 
8857   3146 FF FF FF FF 
8857   314A FF FF FF FF 
8857   314E FF FF FF FF 
8857   3152 FF FF FF FF 
8857   3156 FF FF FF FF 
8857   315A FF FF FF FF 
8857   315E FF FF FF FF 
8857   3162 FF FF FF FF 
8857   3166 FF FF FF FF 
8857   316A FF FF FF FF 
8857   316E FF FF FF FF 
8857   3172 FF FF FF FF 
8857   3176 FF FF FF FF 
8857   317A FF FF FF FF 
8857   317E FF FF FF FF 
8857   3182 FF FF FF FF 
8857   3186 FF FF FF FF 
8857   318A FF FF FF FF 
8857   318E FF FF FF FF 
8857   3192 FF FF FF FF 
8857   3196 FF FF FF FF 
8857   319A FF FF FF FF 
8857   319E FF FF FF FF 
8857   31A2 FF FF FF FF 
8857   31A6 FF FF FF FF 
8857   31AA FF FF FF FF 
8857   31AE FF FF FF FF 
8857   31B2 FF FF FF FF 
8857   31B6 FF FF FF FF 
8857   31BA FF FF FF FF 
8857   31BE FF FF FF FF 
8857   31C2 FF FF FF FF 
8857   31C6 FF FF FF FF 
8857   31CA FF FF FF FF 
8857   31CE FF FF FF FF 
8857   31D2 FF FF FF FF 
8857   31D6 FF FF FF FF 
8857   31DA FF FF FF FF 
8857   31DE FF FF FF FF 
8857   31E2 FF FF FF FF 
8857   31E6 FF FF FF FF 
8857   31EA FF FF FF FF 
8857   31EE FF FF FF FF 
8857   31F2 FF FF FF FF 
8857   31F6 FF FF FF FF 
8857   31FA FF FF FF FF 
8857   31FE FF FF FF FF 
8857   3202 FF FF FF FF 
8857   3206 FF FF FF FF 
8857   320A FF FF FF FF 
8857   320E FF FF FF FF 
8857   3212 FF FF FF FF 
8857   3216 FF FF FF FF 
8857   321A FF FF FF FF 
8857   321E FF FF FF FF 
8857   3222 FF FF FF FF 
8857   3226 FF FF FF FF 
8857   322A FF FF FF FF 
8857   322E FF FF FF FF 
8857   3232 FF FF FF FF 
8857   3236 FF FF FF FF 
8857   323A FF FF FF FF 
8857   323E FF FF FF FF 
8857   3242 FF FF FF FF 
8857   3246 FF FF FF FF 
8857   324A FF FF FF FF 
8857   324E FF FF FF FF 
8857   3252 FF FF FF FF 
8857   3256 FF FF FF FF 
8857   325A FF FF FF FF 
8857   325E FF FF FF FF 
8857   3262 FF FF FF FF 
8857   3266 FF FF FF FF 
8857   326A FF FF FF FF 
8857   326E FF FF FF FF 
8857   3272 FF FF FF FF 
8857   3276 FF FF FF FF 
8857   327A FF FF FF FF 
8857   327E FF FF FF FF 
8857   3282 FF FF FF FF 
8857   3286 FF FF FF FF 
8857   328A FF FF FF FF 
8857   328E FF FF FF FF 
8857   3292 FF FF FF FF 
8857   3296 FF FF FF FF 
8857   329A FF FF FF FF 
8857   329E FF FF FF FF 
8857   32A2 FF FF FF FF 
8857   32A6 FF FF FF FF 
8857   32AA FF FF FF FF 
8857   32AE FF FF FF FF 
8857   32B2 FF FF FF FF 
8857   32B6 FF FF FF FF 
8857   32BA FF FF FF FF 
8857   32BE FF FF FF FF 
8857   32C2 FF FF FF FF 
8857   32C6 FF FF FF FF 
8857   32CA FF FF FF FF 
8857   32CE FF FF FF FF 
8857   32D2 FF FF FF FF 
8857   32D6 FF FF FF FF 
8857   32DA FF FF FF FF 
8857   32DE FF FF FF FF 
8857   32E2 FF FF FF FF 
8857   32E6 FF FF FF FF 
8857   32EA FF FF FF FF 
8857   32EE FF FF FF FF 
8857   32F2 FF FF FF FF 
8857   32F6 FF FF FF FF 
8857   32FA FF FF FF FF 
8857   32FE FF FF FF FF 
8857   3302 FF FF FF FF 
8857   3306 FF FF FF FF 
8857   330A FF FF FF FF 
8857   330E FF FF FF FF 
8857   3312 FF FF FF FF 
8857   3316 FF FF FF FF 
8857   331A FF FF FF FF 
8857   331E FF FF FF FF 
8857   3322 FF FF FF FF 
8857   3326 FF FF FF FF 
8857   332A FF FF FF FF 
8857   332E FF FF FF FF 
8857   3332 FF FF FF FF 
8857   3336 FF FF FF FF 
8857   333A FF FF FF FF 
8857   333E FF FF FF FF 
8857   3342 FF FF FF FF 
8857   3346 FF FF FF FF 
8857   334A FF FF FF FF 
8857   334E FF FF FF FF 
8857   3352 FF FF FF FF 
8857   3356 FF FF FF FF 
8857   335A FF FF FF FF 
8857   335E FF FF FF FF 
8857   3362 FF FF FF FF 
8857   3366 FF FF FF FF 
8857   336A FF FF FF FF 
8857   336E FF FF FF FF 
8857   3372 FF FF FF FF 
8857   3376 FF FF FF FF 
8857   337A FF FF FF FF 
8857   337E FF FF FF FF 
8857   3382 FF FF FF FF 
8857   3386 FF FF FF FF 
8857   338A FF FF FF FF 
8857   338E FF FF FF FF 
8857   3392 FF FF FF FF 
8857   3396 FF FF FF FF 
8857   339A FF FF FF FF 
8857   339E FF FF FF FF 
8857   33A2 FF FF FF FF 
8857   33A6 FF FF FF FF 
8857   33AA FF FF FF FF 
8857   33AE FF FF FF FF 
8857   33B2 FF FF FF FF 
8857   33B6 FF FF FF FF 
8857   33BA FF FF FF FF 
8857   33BE FF FF FF FF 
8857   33C2 FF FF FF FF 
8857   33C6 FF FF FF FF 
8857   33CA FF FF FF FF 
8857   33CE FF FF FF FF 
8857   33D2 FF FF FF FF 
8857   33D6 FF FF FF FF 
8857   33DA FF FF FF FF 
8857   33DE FF FF FF FF 
8857   33E2 FF FF FF FF 
8857   33E6 FF FF FF FF 
8857   33EA FF FF FF FF 
8857   33EE FF FF FF FF 
8857   33F2 FF FF FF FF 
8857   33F6 FF FF FF FF 
8857   33FA FF FF FF FF 
8857   33FE FF FF FF FF 
8857   3402 FF FF FF FF 
8857   3406 FF FF FF FF 
8857   340A FF FF FF FF 
8857   340E FF FF FF FF 
8857   3412 FF FF FF FF 
8857   3416 FF FF FF FF 
8857   341A FF FF FF FF 
8857   341E FF FF FF FF 
8857   3422 FF FF FF FF 
8857   3426 FF FF FF FF 
8857   342A FF FF FF FF 
8857   342E FF FF FF FF 
8857   3432 FF FF FF FF 
8857   3436 FF FF FF FF 
8857   343A FF FF FF FF 
8857   343E FF FF FF FF 
8857   3442 FF FF FF FF 
8857   3446 FF FF FF FF 
8857   344A FF FF FF FF 
8857   344E FF FF FF FF 
8857   3452 FF FF FF FF 
8857   3456 FF FF FF FF 
8857   345A FF FF FF FF 
8857   345E FF FF FF FF 
8857   3462 FF FF FF FF 
8857   3466 FF FF FF FF 
8857   346A FF FF FF FF 
8857   346E FF FF FF FF 
8857   3472 FF FF FF FF 
8857   3476 FF FF FF FF 
8857   347A FF FF FF FF 
8857   347E FF FF FF FF 
8857   3482 FF FF FF FF 
8857   3486 FF FF FF FF 
8857   348A FF FF FF FF 
8857   348E FF FF FF FF 
8857   3492 FF FF FF FF 
8857   3496 FF FF FF FF 
8857   349A FF FF FF FF 
8857   349E FF FF FF FF 
8857   34A2 FF FF FF FF 
8857   34A6 FF FF FF FF 
8857   34AA FF FF FF FF 
8857   34AE FF FF FF FF 
8857   34B2 FF FF FF FF 
8857   34B6 FF FF FF FF 
8857   34BA FF FF FF FF 
8857   34BE FF FF FF FF 
8857   34C2 FF FF FF FF 
8857   34C6 FF FF FF FF 
8857   34CA FF FF FF FF 
8857   34CE FF FF FF FF 
8857   34D2 FF FF FF FF 
8857   34D6 FF FF FF FF 
8857   34DA FF FF FF FF 
8857   34DE FF FF FF FF 
8857   34E2 FF FF FF FF 
8857   34E6 FF FF FF FF 
8857   34EA FF FF FF FF 
8857   34EE FF FF FF FF 
8857   34F2 FF FF FF FF 
8857   34F6 FF FF FF FF 
8857   34FA FF FF FF FF 
8857   34FE FF FF FF FF 
8857   3502 FF FF FF FF 
8857   3506 FF FF FF FF 
8857   350A FF FF FF FF 
8857   350E FF FF FF FF 
8857   3512 FF FF FF FF 
8857   3516 FF FF FF FF 
8857   351A FF FF FF FF 
8857   351E FF FF FF FF 
8857   3522 FF FF FF FF 
8857   3526 FF FF FF FF 
8857   352A FF FF FF FF 
8857   352E FF FF FF FF 
8857   3532 FF FF FF FF 
8857   3536 FF FF FF FF 
8857   353A FF FF FF FF 
8857   353E FF FF FF FF 
8857   3542 FF FF FF FF 
8857   3546 FF FF FF FF 
8857   354A FF FF FF FF 
8857   354E FF FF FF FF 
8857   3552 FF FF FF FF 
8857   3556 FF FF FF FF 
8857   355A FF FF FF FF 
8857   355E FF FF FF FF 
8857   3562 FF FF FF FF 
8857   3566 FF FF FF FF 
8857   356A FF FF FF FF 
8857   356E FF FF FF FF 
8857   3572 FF FF FF FF 
8857   3576 FF FF FF FF 
8857   357A FF FF FF FF 
8857   357E FF FF FF FF 
8857   3582 FF FF FF FF 
8857   3586 FF FF FF FF 
8857   358A FF FF FF FF 
8857   358E FF FF FF FF 
8857   3592 FF FF FF FF 
8857   3596 FF FF FF FF 
8857   359A FF FF FF FF 
8857   359E FF FF FF FF 
8857   35A2 FF FF FF FF 
8857   35A6 FF FF FF FF 
8857   35AA FF FF FF FF 
8857   35AE FF FF FF FF 
8857   35B2 FF FF FF FF 
8857   35B6 FF FF FF FF 
8857   35BA FF FF FF FF 
8857   35BE FF FF FF FF 
8857   35C2 FF FF FF FF 
8857   35C6 FF FF FF FF 
8857   35CA FF FF FF FF 
8857   35CE FF FF FF FF 
8857   35D2 FF FF FF FF 
8857   35D6 FF FF FF FF 
8857   35DA FF FF FF FF 
8857   35DE FF FF FF FF 
8857   35E2 FF FF FF FF 
8857   35E6 FF FF FF FF 
8857   35EA FF FF FF FF 
8857   35EE FF FF FF FF 
8857   35F2 FF FF FF FF 
8857   35F6 FF FF FF FF 
8857   35FA FF FF FF FF 
8857   35FE FF FF FF FF 
8857   3602 FF FF FF FF 
8857   3606 FF FF FF FF 
8857   360A FF FF FF FF 
8857   360E FF FF FF FF 
8857   3612 FF FF FF FF 
8857   3616 FF FF FF FF 
8857   361A FF FF FF FF 
8857   361E FF FF FF FF 
8857   3622 FF FF FF FF 
8857   3626 FF FF FF FF 
8857   362A FF FF FF FF 
8857   362E FF FF FF FF 
8857   3632 FF FF FF FF 
8857   3636 FF FF FF FF 
8857   363A FF FF FF FF 
8857   363E FF FF FF FF 
8857   3642 FF FF FF FF 
8857   3646 FF FF FF FF 
8857   364A FF FF FF FF 
8857   364E FF FF FF FF 
8857   3652 FF FF FF FF 
8857   3656 FF FF FF FF 
8857   365A FF FF FF FF 
8857   365E FF FF FF FF 
8857   3662 FF FF FF FF 
8857   3666 FF FF FF FF 
8857   366A FF FF FF FF 
8857   366E FF FF FF FF 
8857   3672 FF FF FF FF 
8857   3676 FF FF FF FF 
8857   367A FF FF FF FF 
8857   367E FF FF FF FF 
8857   3682 FF FF FF FF 
8857   3686 FF FF FF FF 
8857   368A FF FF FF FF 
8857   368E FF FF FF FF 
8857   3692 FF FF FF FF 
8857   3696 FF FF FF FF 
8857   369A FF FF FF FF 
8857   369E FF FF FF FF 
8857   36A2 FF FF FF FF 
8857   36A6 FF FF FF FF 
8857   36AA FF FF FF FF 
8857   36AE FF FF FF FF 
8857   36B2 FF FF FF FF 
8857   36B6 FF FF FF FF 
8857   36BA FF FF FF FF 
8857   36BE FF FF FF FF 
8857   36C2 FF FF FF FF 
8857   36C6 FF FF FF FF 
8857   36CA FF FF FF FF 
8857   36CE FF FF FF FF 
8857   36D2 FF FF FF FF 
8857   36D6 FF FF FF FF 
8857   36DA FF FF FF FF 
8857   36DE FF FF FF FF 
8857   36E2 FF FF FF FF 
8857   36E6 FF FF FF FF 
8857   36EA FF FF FF FF 
8857   36EE FF FF FF FF 
8857   36F2 FF FF FF FF 
8857   36F6 FF FF FF FF 
8857   36FA FF FF FF FF 
8857   36FE FF FF FF FF 
8857   3702 FF FF FF FF 
8857   3706 FF FF FF FF 
8857   370A FF FF FF FF 
8857   370E FF FF FF FF 
8857   3712 FF FF FF FF 
8857   3716 FF FF FF FF 
8857   371A FF FF FF FF 
8857   371E FF FF FF FF 
8857   3722 FF FF FF FF 
8857   3726 FF FF FF FF 
8857   372A FF FF FF FF 
8857   372E FF FF FF FF 
8857   3732 FF FF FF FF 
8857   3736 FF FF FF FF 
8857   373A FF FF FF FF 
8857   373E FF FF FF FF 
8857   3742 FF FF FF FF 
8857   3746 FF FF FF FF 
8857   374A FF FF FF FF 
8857   374E FF FF FF FF 
8857   3752 FF FF FF FF 
8857   3756 FF FF FF FF 
8857   375A FF FF FF FF 
8857   375E FF FF FF FF 
8857   3762 FF FF FF FF 
8857   3766 FF FF FF FF 
8857   376A FF FF FF FF 
8857   376E FF FF FF FF 
8857   3772 FF FF FF FF 
8857   3776 FF FF FF FF 
8857   377A FF FF FF FF 
8857   377E FF FF FF FF 
8857   3782 FF FF FF FF 
8857   3786 FF FF FF FF 
8857   378A FF FF FF FF 
8857   378E FF FF FF FF 
8857   3792 FF FF FF FF 
8857   3796 FF FF FF FF 
8857   379A FF FF FF FF 
8857   379E FF FF FF FF 
8857   37A2 FF FF FF FF 
8857   37A6 FF FF FF FF 
8857   37AA FF FF FF FF 
8857   37AE FF FF FF FF 
8857   37B2 FF FF FF FF 
8857   37B6 FF FF FF FF 
8857   37BA FF FF FF FF 
8857   37BE FF FF FF FF 
8857   37C2 FF FF FF FF 
8857   37C6 FF FF FF FF 
8857   37CA FF FF FF FF 
8857   37CE FF FF FF FF 
8857   37D2 FF FF FF FF 
8857   37D6 FF FF FF FF 
8857   37DA FF FF FF FF 
8857   37DE FF FF FF FF 
8857   37E2 FF FF FF FF 
8857   37E6 FF FF FF FF 
8857   37EA FF FF FF FF 
8857   37EE FF FF FF FF 
8857   37F2 FF FF FF FF 
8857   37F6 FF FF FF FF 
8857   37FA FF FF FF FF 
8857   37FE FF FF FF FF 
8857   3802 FF FF FF FF 
8857   3806 FF FF FF FF 
8857   380A FF FF FF FF 
8857   380E FF FF FF FF 
8857   3812 FF FF FF FF 
8857   3816 FF FF FF FF 
8857   381A FF FF FF FF 
8857   381E FF FF FF FF 
8857   3822 FF FF FF FF 
8857   3826 FF FF FF FF 
8857   382A FF FF FF FF 
8857   382E FF FF FF FF 
8857   3832 FF FF FF FF 
8857   3836 FF FF FF FF 
8857   383A FF FF FF FF 
8857   383E FF FF FF FF 
8857   3842 FF FF FF FF 
8857   3846 FF FF FF FF 
8857   384A FF FF FF FF 
8857   384E FF FF FF FF 
8857   3852 FF FF FF FF 
8857   3856 FF FF FF FF 
8857   385A FF FF FF FF 
8857   385E FF FF FF FF 
8857   3862 FF FF FF FF 
8857   3866 FF FF FF FF 
8857   386A FF FF FF FF 
8857   386E FF FF FF FF 
8857   3872 FF FF FF FF 
8857   3876 FF FF FF FF 
8857   387A FF FF FF FF 
8857   387E FF FF FF FF 
8857   3882 FF FF FF FF 
8857   3886 FF FF FF FF 
8857   388A FF FF FF FF 
8857   388E FF FF FF FF 
8857   3892 FF FF FF FF 
8857   3896 FF FF FF FF 
8857   389A FF FF FF FF 
8857   389E FF FF FF FF 
8857   38A2 FF FF FF FF 
8857   38A6 FF FF FF FF 
8857   38AA FF FF FF FF 
8857   38AE FF FF FF FF 
8857   38B2 FF FF FF FF 
8857   38B6 FF FF FF FF 
8857   38BA FF FF FF FF 
8857   38BE FF FF FF FF 
8857   38C2 FF FF FF FF 
8857   38C6 FF FF FF FF 
8857   38CA FF FF FF FF 
8857   38CE FF FF FF FF 
8857   38D2 FF FF FF FF 
8857   38D6 FF FF FF FF 
8857   38DA FF FF FF FF 
8857   38DE FF FF FF FF 
8857   38E2 FF FF FF FF 
8857   38E6 FF FF FF FF 
8857   38EA FF FF FF FF 
8857   38EE FF FF FF FF 
8857   38F2 FF FF FF FF 
8857   38F6 FF FF FF FF 
8857   38FA FF FF FF FF 
8857   38FE FF FF FF FF 
8857   3902 FF FF FF FF 
8857   3906 FF FF FF FF 
8857   390A FF FF FF FF 
8857   390E FF FF FF FF 
8857   3912 FF FF FF FF 
8857   3916 FF FF FF FF 
8857   391A FF FF FF FF 
8857   391E FF FF FF FF 
8857   3922 FF FF FF FF 
8857   3926 FF FF FF FF 
8857   392A FF FF FF FF 
8857   392E FF FF FF FF 
8857   3932 FF FF FF FF 
8857   3936 FF FF FF FF 
8857   393A FF FF FF FF 
8857   393E FF FF FF FF 
8857   3942 FF FF FF FF 
8857   3946 FF FF FF FF 
8857   394A FF FF FF FF 
8857   394E FF FF FF FF 
8857   3952 FF FF FF FF 
8857   3956 FF FF FF FF 
8857   395A FF FF FF FF 
8857   395E FF FF FF FF 
8857   3962 FF FF FF FF 
8857   3966 FF FF FF FF 
8857   396A FF FF FF FF 
8857   396E FF FF FF FF 
8857   3972 FF FF FF FF 
8857   3976 FF FF FF FF 
8857   397A FF FF FF FF 
8857   397E FF FF FF FF 
8857   3982 FF FF FF FF 
8857   3986 FF FF FF FF 
8857   398A FF FF FF FF 
8857   398E FF FF FF FF 
8857   3992 FF FF FF FF 
8857   3996 FF FF FF FF 
8857   399A FF FF FF FF 
8857   399E FF FF FF FF 
8857   39A2 FF FF FF FF 
8857   39A6 FF FF FF FF 
8857   39AA FF FF FF FF 
8857   39AE FF FF FF FF 
8857   39B2 FF FF FF FF 
8857   39B6 FF FF FF FF 
8857   39BA FF FF FF FF 
8857   39BE FF FF FF FF 
8857   39C2 FF FF FF FF 
8857   39C6 FF FF FF FF 
8857   39CA FF FF FF FF 
8857   39CE FF FF FF FF 
8857   39D2 FF FF FF FF 
8857   39D6 FF FF FF FF 
8857   39DA FF FF FF FF 
8857   39DE FF FF FF FF 
8857   39E2 FF FF FF FF 
8857   39E6 FF FF FF FF 
8857   39EA FF FF FF FF 
8857   39EE FF FF FF FF 
8857   39F2 FF FF FF FF 
8857   39F6 FF FF FF FF 
8857   39FA FF FF FF FF 
8857   39FE FF FF FF FF 
8857   3A02 FF FF FF FF 
8857   3A06 FF FF FF FF 
8857   3A0A FF FF FF FF 
8857   3A0E FF FF FF FF 
8857   3A12 FF FF FF FF 
8857   3A16 FF FF FF FF 
8857   3A1A FF FF FF FF 
8857   3A1E FF FF FF FF 
8857   3A22 FF FF FF FF 
8857   3A26 FF FF FF FF 
8857   3A2A FF FF FF FF 
8857   3A2E FF FF FF FF 
8857   3A32 FF FF FF FF 
8857   3A36 FF FF FF FF 
8857   3A3A FF FF FF FF 
8857   3A3E FF FF FF FF 
8857   3A42 FF FF FF FF 
8857   3A46 FF FF FF FF 
8857   3A4A FF FF FF FF 
8857   3A4E FF FF FF FF 
8857   3A52 FF FF FF FF 
8857   3A56 FF FF FF FF 
8857   3A5A FF FF FF FF 
8857   3A5E FF FF FF FF 
8857   3A62 FF FF FF FF 
8857   3A66 FF FF FF FF 
8857   3A6A FF FF FF FF 
8857   3A6E FF FF FF FF 
8857   3A72 FF FF FF FF 
8857   3A76 FF FF FF FF 
8857   3A7A FF FF FF FF 
8857   3A7E FF FF FF FF 
8857   3A82 FF FF FF FF 
8857   3A86 FF FF FF FF 
8857   3A8A FF FF FF FF 
8857   3A8E FF FF FF FF 
8857   3A92 FF FF FF FF 
8857   3A96 FF FF FF FF 
8857   3A9A FF FF FF FF 
8857   3A9E FF FF FF FF 
8857   3AA2 FF FF FF FF 
8857   3AA6 FF FF FF FF 
8857   3AAA FF FF FF FF 
8857   3AAE FF FF FF FF 
8857   3AB2 FF FF FF FF 
8857   3AB6 FF FF FF FF 
8857   3ABA FF FF FF FF 
8857   3ABE FF FF FF FF 
8857   3AC2 FF FF FF FF 
8857   3AC6 FF FF FF FF 
8857   3ACA FF FF FF FF 
8857   3ACE FF FF FF FF 
8857   3AD2 FF FF FF FF 
8857   3AD6 FF FF FF FF 
8857   3ADA FF FF FF FF 
8857   3ADE FF FF FF FF 
8857   3AE2 FF FF FF FF 
8857   3AE6 FF FF FF FF 
8857   3AEA FF FF FF FF 
8857   3AEE FF FF FF FF 
8857   3AF2 FF FF FF FF 
8857   3AF6 FF FF FF FF 
8857   3AFA FF FF FF FF 
8857   3AFE FF FF FF FF 
8857   3B02 FF FF FF FF 
8857   3B06 FF FF FF FF 
8857   3B0A FF FF FF FF 
8857   3B0E FF FF FF FF 
8857   3B12 FF FF FF FF 
8857   3B16 FF FF FF FF 
8857   3B1A FF FF FF FF 
8857   3B1E FF FF FF FF 
8857   3B22 FF FF FF FF 
8857   3B26 FF FF FF FF 
8857   3B2A FF FF FF FF 
8857   3B2E FF FF FF FF 
8857   3B32 FF FF FF FF 
8857   3B36 FF FF FF FF 
8857   3B3A FF FF FF FF 
8857   3B3E FF FF FF FF 
8857   3B42 FF FF FF FF 
8857   3B46 FF FF FF FF 
8857   3B4A FF FF FF FF 
8857   3B4E FF FF FF FF 
8857   3B52 FF FF FF FF 
8857   3B56 FF FF FF FF 
8857   3B5A FF FF FF FF 
8857   3B5E FF FF FF FF 
8857   3B62 FF FF FF FF 
8857   3B66 FF FF FF FF 
8857   3B6A FF FF FF FF 
8857   3B6E FF FF FF FF 
8857   3B72 FF FF FF FF 
8857   3B76 FF FF FF FF 
8857   3B7A FF FF FF FF 
8857   3B7E FF FF FF FF 
8857   3B82 FF FF FF FF 
8857   3B86 FF FF FF FF 
8857   3B8A FF FF FF FF 
8857   3B8E FF FF FF FF 
8857   3B92 FF FF FF FF 
8857   3B96 FF FF FF FF 
8857   3B9A FF FF FF FF 
8857   3B9E FF FF FF FF 
8857   3BA2 FF FF FF FF 
8857   3BA6 FF FF FF FF 
8857   3BAA FF FF FF FF 
8857   3BAE FF FF FF FF 
8857   3BB2 FF FF FF FF 
8857   3BB6 FF FF FF FF 
8857   3BBA FF FF FF FF 
8857   3BBE FF FF FF FF 
8857   3BC2 FF FF FF FF 
8857   3BC6 FF FF FF FF 
8857   3BCA FF FF FF FF 
8857   3BCE FF FF FF FF 
8857   3BD2 FF FF FF FF 
8857   3BD6 FF FF FF FF 
8857   3BDA FF FF FF FF 
8857   3BDE FF FF FF FF 
8857   3BE2 FF FF FF FF 
8857   3BE6 FF FF FF FF 
8857   3BEA FF FF FF FF 
8857   3BEE FF FF FF FF 
8857   3BF2 FF FF FF FF 
8857   3BF6 FF FF FF FF 
8857   3BFA FF FF FF FF 
8857   3BFE FF FF FF FF 
8857   3C02 FF FF FF FF 
8857   3C06 FF FF FF FF 
8857   3C0A FF FF FF FF 
8857   3C0E FF FF FF FF 
8857   3C12 FF FF FF FF 
8857   3C16 FF FF FF FF 
8857   3C1A FF FF FF FF 
8857   3C1E FF FF FF FF 
8857   3C22 FF FF FF FF 
8857   3C26 FF FF FF FF 
8857   3C2A FF FF FF FF 
8857   3C2E FF FF FF FF 
8857   3C32 FF FF FF FF 
8857   3C36 FF FF FF FF 
8857   3C3A FF FF FF FF 
8857   3C3E FF FF FF FF 
8857   3C42 FF FF FF FF 
8857   3C46 FF FF FF FF 
8857   3C4A FF FF FF FF 
8857   3C4E FF FF FF FF 
8857   3C52 FF FF FF FF 
8857   3C56 FF FF FF FF 
8857   3C5A FF FF FF FF 
8857   3C5E FF FF FF FF 
8857   3C62 FF FF FF FF 
8857   3C66 FF FF FF FF 
8857   3C6A FF FF FF FF 
8857   3C6E FF FF FF FF 
8857   3C72 FF FF FF FF 
8857   3C76 FF FF FF FF 
8857   3C7A FF FF FF FF 
8857   3C7E FF FF FF FF 
8857   3C82 FF FF FF FF 
8857   3C86 FF FF FF FF 
8857   3C8A FF FF FF FF 
8857   3C8E FF FF FF FF 
8857   3C92 FF FF FF FF 
8857   3C96 FF FF FF FF 
8857   3C9A FF FF FF FF 
8857   3C9E FF FF FF FF 
8857   3CA2 FF FF FF FF 
8857   3CA6 FF FF FF FF 
8857   3CAA FF FF FF FF 
8857   3CAE FF FF FF FF 
8857   3CB2 FF FF FF FF 
8857   3CB6 FF FF FF FF 
8857   3CBA FF FF FF FF 
8857   3CBE FF FF FF FF 
8857   3CC2 FF FF FF FF 
8857   3CC6 FF FF FF FF 
8857   3CCA FF FF FF FF 
8857   3CCE FF FF FF FF 
8857   3CD2 FF FF FF FF 
8857   3CD6 FF FF FF FF 
8857   3CDA FF FF FF FF 
8857   3CDE FF FF FF FF 
8857   3CE2 FF FF FF FF 
8857   3CE6 FF FF FF FF 
8857   3CEA FF FF FF FF 
8857   3CEE FF FF FF FF 
8857   3CF2 FF FF FF FF 
8858   3CF6             
8859   3CF6             ;##########################################################
8860   3CF6             
8861   3C00             .ORG $3C00
8862   3C00             
8863   3C00             ; 1K system RAM (unused) is here
8864   3C00             
8865   3C00 FF FF FF FF .FILL $0400, $FF
8865   3C04 FF FF FF FF 
8865   3C08 FF FF FF FF 
8865   3C0C FF FF FF FF 
8865   3C10 FF FF FF FF 
8865   3C14 FF FF FF FF 
8865   3C18 FF FF FF FF 
8865   3C1C FF FF FF FF 
8865   3C20 FF FF FF FF 
8865   3C24 FF FF FF FF 
8865   3C28 FF FF FF FF 
8865   3C2C FF FF FF FF 
8865   3C30 FF FF FF FF 
8865   3C34 FF FF FF FF 
8865   3C38 FF FF FF FF 
8865   3C3C FF FF FF FF 
8865   3C40 FF FF FF FF 
8865   3C44 FF FF FF FF 
8865   3C48 FF FF FF FF 
8865   3C4C FF FF FF FF 
8865   3C50 FF FF FF FF 
8865   3C54 FF FF FF FF 
8865   3C58 FF FF FF FF 
8865   3C5C FF FF FF FF 
8865   3C60 FF FF FF FF 
8865   3C64 FF FF FF FF 
8865   3C68 FF FF FF FF 
8865   3C6C FF FF FF FF 
8865   3C70 FF FF FF FF 
8865   3C74 FF FF FF FF 
8865   3C78 FF FF FF FF 
8865   3C7C FF FF FF FF 
8865   3C80 FF FF FF FF 
8865   3C84 FF FF FF FF 
8865   3C88 FF FF FF FF 
8865   3C8C FF FF FF FF 
8865   3C90 FF FF FF FF 
8865   3C94 FF FF FF FF 
8865   3C98 FF FF FF FF 
8865   3C9C FF FF FF FF 
8865   3CA0 FF FF FF FF 
8865   3CA4 FF FF FF FF 
8865   3CA8 FF FF FF FF 
8865   3CAC FF FF FF FF 
8865   3CB0 FF FF FF FF 
8865   3CB4 FF FF FF FF 
8865   3CB8 FF FF FF FF 
8865   3CBC FF FF FF FF 
8865   3CC0 FF FF FF FF 
8865   3CC4 FF FF FF FF 
8865   3CC8 FF FF FF FF 
8865   3CCC FF FF FF FF 
8865   3CD0 FF FF FF FF 
8865   3CD4 FF FF FF FF 
8865   3CD8 FF FF FF FF 
8865   3CDC FF FF FF FF 
8865   3CE0 FF FF FF FF 
8865   3CE4 FF FF FF FF 
8865   3CE8 FF FF FF FF 
8865   3CEC FF FF FF FF 
8865   3CF0 FF FF FF FF 
8865   3CF4 FF FF FF FF 
8865   3CF8 FF FF FF FF 
8865   3CFC FF FF FF FF 
8865   3D00 FF FF FF FF 
8865   3D04 FF FF FF FF 
8865   3D08 FF FF FF FF 
8865   3D0C FF FF FF FF 
8865   3D10 FF FF FF FF 
8865   3D14 FF FF FF FF 
8865   3D18 FF FF FF FF 
8865   3D1C FF FF FF FF 
8865   3D20 FF FF FF FF 
8865   3D24 FF FF FF FF 
8865   3D28 FF FF FF FF 
8865   3D2C FF FF FF FF 
8865   3D30 FF FF FF FF 
8865   3D34 FF FF FF FF 
8865   3D38 FF FF FF FF 
8865   3D3C FF FF FF FF 
8865   3D40 FF FF FF FF 
8865   3D44 FF FF FF FF 
8865   3D48 FF FF FF FF 
8865   3D4C FF FF FF FF 
8865   3D50 FF FF FF FF 
8865   3D54 FF FF FF FF 
8865   3D58 FF FF FF FF 
8865   3D5C FF FF FF FF 
8865   3D60 FF FF FF FF 
8865   3D64 FF FF FF FF 
8865   3D68 FF FF FF FF 
8865   3D6C FF FF FF FF 
8865   3D70 FF FF FF FF 
8865   3D74 FF FF FF FF 
8865   3D78 FF FF FF FF 
8865   3D7C FF FF FF FF 
8865   3D80 FF FF FF FF 
8865   3D84 FF FF FF FF 
8865   3D88 FF FF FF FF 
8865   3D8C FF FF FF FF 
8865   3D90 FF FF FF FF 
8865   3D94 FF FF FF FF 
8865   3D98 FF FF FF FF 
8865   3D9C FF FF FF FF 
8865   3DA0 FF FF FF FF 
8865   3DA4 FF FF FF FF 
8865   3DA8 FF FF FF FF 
8865   3DAC FF FF FF FF 
8865   3DB0 FF FF FF FF 
8865   3DB4 FF FF FF FF 
8865   3DB8 FF FF FF FF 
8865   3DBC FF FF FF FF 
8865   3DC0 FF FF FF FF 
8865   3DC4 FF FF FF FF 
8865   3DC8 FF FF FF FF 
8865   3DCC FF FF FF FF 
8865   3DD0 FF FF FF FF 
8865   3DD4 FF FF FF FF 
8865   3DD8 FF FF FF FF 
8865   3DDC FF FF FF FF 
8865   3DE0 FF FF FF FF 
8865   3DE4 FF FF FF FF 
8865   3DE8 FF FF FF FF 
8865   3DEC FF FF FF FF 
8865   3DF0 FF FF FF FF 
8865   3DF4 FF FF FF FF 
8865   3DF8 FF FF FF FF 
8865   3DFC FF FF FF FF 
8865   3E00 FF FF FF FF 
8865   3E04 FF FF FF FF 
8865   3E08 FF FF FF FF 
8865   3E0C FF FF FF FF 
8865   3E10 FF FF FF FF 
8865   3E14 FF FF FF FF 
8865   3E18 FF FF FF FF 
8865   3E1C FF FF FF FF 
8865   3E20 FF FF FF FF 
8865   3E24 FF FF FF FF 
8865   3E28 FF FF FF FF 
8865   3E2C FF FF FF FF 
8865   3E30 FF FF FF FF 
8865   3E34 FF FF FF FF 
8865   3E38 FF FF FF FF 
8865   3E3C FF FF FF FF 
8865   3E40 FF FF FF FF 
8865   3E44 FF FF FF FF 
8865   3E48 FF FF FF FF 
8865   3E4C FF FF FF FF 
8865   3E50 FF FF FF FF 
8865   3E54 FF FF FF FF 
8865   3E58 FF FF FF FF 
8865   3E5C FF FF FF FF 
8865   3E60 FF FF FF FF 
8865   3E64 FF FF FF FF 
8865   3E68 FF FF FF FF 
8865   3E6C FF FF FF FF 
8865   3E70 FF FF FF FF 
8865   3E74 FF FF FF FF 
8865   3E78 FF FF FF FF 
8865   3E7C FF FF FF FF 
8865   3E80 FF FF FF FF 
8865   3E84 FF FF FF FF 
8865   3E88 FF FF FF FF 
8865   3E8C FF FF FF FF 
8865   3E90 FF FF FF FF 
8865   3E94 FF FF FF FF 
8865   3E98 FF FF FF FF 
8865   3E9C FF FF FF FF 
8865   3EA0 FF FF FF FF 
8865   3EA4 FF FF FF FF 
8865   3EA8 FF FF FF FF 
8865   3EAC FF FF FF FF 
8865   3EB0 FF FF FF FF 
8865   3EB4 FF FF FF FF 
8865   3EB8 FF FF FF FF 
8865   3EBC FF FF FF FF 
8865   3EC0 FF FF FF FF 
8865   3EC4 FF FF FF FF 
8865   3EC8 FF FF FF FF 
8865   3ECC FF FF FF FF 
8865   3ED0 FF FF FF FF 
8865   3ED4 FF FF FF FF 
8865   3ED8 FF FF FF FF 
8865   3EDC FF FF FF FF 
8865   3EE0 FF FF FF FF 
8865   3EE4 FF FF FF FF 
8865   3EE8 FF FF FF FF 
8865   3EEC FF FF FF FF 
8865   3EF0 FF FF FF FF 
8865   3EF4 FF FF FF FF 
8865   3EF8 FF FF FF FF 
8865   3EFC FF FF FF FF 
8865   3F00 FF FF FF FF 
8865   3F04 FF FF FF FF 
8865   3F08 FF FF FF FF 
8865   3F0C FF FF FF FF 
8865   3F10 FF FF FF FF 
8865   3F14 FF FF FF FF 
8865   3F18 FF FF FF FF 
8865   3F1C FF FF FF FF 
8865   3F20 FF FF FF FF 
8865   3F24 FF FF FF FF 
8865   3F28 FF FF FF FF 
8865   3F2C FF FF FF FF 
8865   3F30 FF FF FF FF 
8865   3F34 FF FF FF FF 
8865   3F38 FF FF FF FF 
8865   3F3C FF FF FF FF 
8865   3F40 FF FF FF FF 
8865   3F44 FF FF FF FF 
8865   3F48 FF FF FF FF 
8865   3F4C FF FF FF FF 
8865   3F50 FF FF FF FF 
8865   3F54 FF FF FF FF 
8865   3F58 FF FF FF FF 
8865   3F5C FF FF FF FF 
8865   3F60 FF FF FF FF 
8865   3F64 FF FF FF FF 
8865   3F68 FF FF FF FF 
8865   3F6C FF FF FF FF 
8865   3F70 FF FF FF FF 
8865   3F74 FF FF FF FF 
8865   3F78 FF FF FF FF 
8865   3F7C FF FF FF FF 
8865   3F80 FF FF FF FF 
8865   3F84 FF FF FF FF 
8865   3F88 FF FF FF FF 
8865   3F8C FF FF FF FF 
8865   3F90 FF FF FF FF 
8865   3F94 FF FF FF FF 
8865   3F98 FF FF FF FF 
8865   3F9C FF FF FF FF 
8865   3FA0 FF FF FF FF 
8865   3FA4 FF FF FF FF 
8865   3FA8 FF FF FF FF 
8865   3FAC FF FF FF FF 
8865   3FB0 FF FF FF FF 
8865   3FB4 FF FF FF FF 
8865   3FB8 FF FF FF FF 
8865   3FBC FF FF FF FF 
8865   3FC0 FF FF FF FF 
8865   3FC4 FF FF FF FF 
8865   3FC8 FF FF FF FF 
8865   3FCC FF FF FF FF 
8865   3FD0 FF FF FF FF 
8865   3FD4 FF FF FF FF 
8865   3FD8 FF FF FF FF 
8865   3FDC FF FF FF FF 
8865   3FE0 FF FF FF FF 
8865   3FE4 FF FF FF FF 
8865   3FE8 FF FF FF FF 
8865   3FEC FF FF FF FF 
8865   3FF0 FF FF FF FF 
8865   3FF4 FF FF FF FF 
8865   3FF8 FF FF FF FF 
8865   3FFC FF FF FF FF 
8866   4000             
8867   3FFF             .ORG $3FFF
8868   3FFF FF          .BYTE $FF
8869   4000             .END
8870   4000             
8871   4000             .ENDtasm: Number of errors = 0
