0001   0000             ; Lamdba 8300 for Minstrel 4th
0002   0000             ; Dave Curran 2026-06-18
0003   0000             
0004   0000             ; TASM.EXE -t80 -fff -b Lamdba4th.asm Lamdba4th.bin
0005   0000             
0006   0000             ; Minstrel 4th Memory Map
0007   0000             ; =======================
0008   0000             
0009   0000             ; RAM
0010   0000             ; ---
0011   0000             ; 2000 - 23FF 1K Video RAM mirror (not used)
0012   0000             ; 2400 - 27FF 1K Video RAM 40x25 characters (read / write)
0013   0000             ; 2800 - 2BFF 1K Font RAM mirror (not used)
0014   0000             ; 2C00 - 2FFF 1K Font RAM 128 characters (write only)
0015   0000             
0016   0000             ; 3C00 - 3FFF 1K System RAM (not used)
0017   0000             
0018   0000             ; 4000 - FFFF 48K RAM (read / write)
0019   0000             
0020   0000             ; ROM
0021   0000             ; ---
0022   0000             ; 0000 - 1FFF 8K ROM
0023   0000             ; 2000 - 27FF 2K (not accessible)
0024   0000             ; 2800 - 3BFF 5K ROM
0025   0000             ; 3C00 - 3FFF 1K (not accessible)
0026   0000             
0027   0000             
0028   0000             .ORG $0000
0029   0000             .INCLUDE "Lambda8300.asm"
0001+  0000             ; Disassembly of the Lambda 8300 ROM
0002+  0000             ; Dave Curran 2026-06-12
0003+  0000             
0004+  0000             ; Latest version at:
0005+  0000             ; https://github.com/tynemouthsoftware/Lambda8300
0006+  0000             
0007+  0000             ; Where functions are identical to ZX81, only the function names are commented
0008+  0000             ; Refer to the ZX81 assembly listing by Geoff Wearmouth for further comments
0009+  0000             ; https://web.archive.org/web/20111004151617/http://www.wearmouth.demon.co.uk/zx81.htm
0010+  0000             
0011+  0000             ; assemble with TASM
0012+  0000             ; TASM.EXE -t80 -b Lambda8300.asm Lambda8300.bin
0013+  0000             
0014+  0000             ; Z80 @ 3.25MHz
0015+  0000             ; 8K of ROM
0016+  0000             ; 2K of RAM
0017+  0000             ; expandable to 32k of RAM
0018+  0000             
0019+  0000             ; Memory Map
0020+  0000             ; $0000-1FFF        - ROM
0021+  0000             ; $2000-3FFF        - Option ROM
0022+  0000             ; $4000     ERR.NR  - Current report code -1
0023+  0000             ; $4001     FLAGS   - Some flags
0024+  0000             ; $4002/03  ERR.SP  - Address of top of GOSUB stack
0025+  0000             ; $4004/05  RAMTOP  - Address of reserved area
0026+  0000             ; $4006     MODE    - Cursor mode
0027+  0000             ; $4007/08  PPC     - Line number being executed
0028+  0000             ; $4009     VERSN   - Version (from tape $00 = ZX81, $FF = Lambda)
0029+  0000             ; $400A/0B  NXTLIN  - Address of next line to be executed (ZX81 has E.PPC here)
0030+  0000             ; $400C/0D  PRGRM   - Start of user program = $4396 (ZX81 has DFILE here)
0031+  0000             ; $400E/0F  DF.CC   - Display file current character
0032+  0000             ; $4010/11  VARS    - Start of variable area
0033+  0000             ; $4012/13  DEST    - Address of variable being assigned
0034+  0000             ; $4014/15  E.LINE  - Address of edit line
0035+  0000             ; $4016/17  CH.ADD  - Next character to interpret
0036+  0000             ; $4018/19  X.PTR   - Addess of character before syntax error
0037+  0000             ; $401A/1B  STKBOT  - Address of calculator stack
0038+  0000             ; $401C/1D  STKEND  - End of calculator stack
0039+  0000             ; $401E     BREG    - Floating point B register
0040+  0000             ; $401F/20  MEM     - Address of calc memory area = MEMBOT
0041+  0000             ; $4021     TEMPO   - Setting of music tempo (was SPARE1)
0042+  0000             ; $4022     DF.SZ   - Size of editor part of screen
0043+  0000             ; $4023/24  S.TOP   - Line number at top of screen
0044+  0000             ; $4025/26  LAST.K  - Last keyboard scan
0045+  0000             ; $4027     DB.ST   - Keyboard debounce status
0046+  0000             ; $4028     MARGIN  - Number of lines in margin
0047+  0000             ; $4029/2A  E.PPC   - Line number of line with cursor (ZX81 has NXTLIN here)
0048+  0000             ; $402B/2C  OLDPPC  - Address of line where CONT jumps
0049+  0000             ; $402D     FLAGX   - Some more flags
0050+  0000             ; $402E/F   STRLEN  - String length
0051+  0000             ; $4030/31  T.ADDR  - Next item in syntax table
0052+  0000             ; $4032/33  SEED    - Seed for RND
0053+  0000             ; $4034/35  FRAMES  - Frame counter
0054+  0000             ; $4035/37  COORDS  - Last point plotted (to add for DRAW?)
0055+  0000             ; $4038     PR.CC   - Address of LPRINT position
0056+  0000             ; $4039/3A  S.POSN  - Current PRINT position
0057+  0000             ; $403B     CDFLAG  - Compute Display Flags for FAST/SLOW mode (Bit 7 = 1 for SLOW, Bit 6 = 1 to request SLOW mode)
0058+  0000             ; $403C-5C  PRBUFF  - Printer buffer
0059+  0000             ; $405D-7A  MEMBOT  - Calculator memory
0060+  0000             ; $407B-7C  BLINK   - Cursor blink
0061+  0000             ; $407D-$4395       - Display file
0062+  0000             ; $4396-RAMTOP      - User Program memory
0063+  0000             
0064+  0000             ; no DFILE variable - Location of display file, that is hard coded at $407D
0065+  0000             DFILE .EQU $407D
0066+  0000             
0067+  0000             .ORG $0000
0068+  0000             
0069+  0000             ; -----------
0070+  0000             ; THE 'START'
0071+  0000             ; -----------
0072+  0000             
0073+  0000             ; START
0074+  0000             L_0000:
0075+  0000 D3 FD           OUT ($FD),A                         ; turn off NMI
0076+  0002 3E BF           LD A,$BF
0077+  0004 DB FE           IN A,($FE)                          ; keyboard read (hold down key for ROM at $2000?)
0078+  0006 18 1D           JR L_0025                           ; Jump to START-3 via START-2
0079+  0008             
0080+  0008             ; -------------------
0081+  0008             ; THE 'ERROR' RESTART
0082+  0008             ; -------------------
0083+  0008             
0084+  0008             ; ERROR-1
0085+  0008             L_0008:
0086+  0008 2A 16 40        LD HL,($4016)                       ; CH.ADD - Address of next character to interpret
0087+  000B 22 18 40        LD ($4018),HL                       ; X.PTR - Address of character before error
0088+  000E 18 47           JR L_0057                           ;
0089+  0010             
0090+  0010             ; -------------------------------
0091+  0010             ; THE 'PRINT A CHARACTER' RESTART
0092+  0010             ; -------------------------------
0093+  0010             
0094+  0010             ; PRINT-A
0095+  0010             L_0010:
0096+  0010 A7              AND A
0097+  0011             L_0011:
0098+  0011 C2 92 09        JP NZ,L_0992
0099+  0014 C3 96 09        JP L_0996
0100+  0017             
0101+  0017 FF              .BYTE $FF                           ; unused
0102+  0018             
0103+  0018             ; ---------------------------------
0104+  0018             ; THE 'COLLECT A CHARACTER' RESTART
0105+  0018             ; ---------------------------------
0106+  0018             
0107+  0018             ; GET-CHAR
0108+  0018             L_0018:
0109+  0018 2A 16 40        LD HL,($4016)
0110+  001B 7E              LD A,(HL)
0111+  001C             L_001C:
0112+  001C A7              AND A
0113+  001D C0              RET NZ
0114+  001E 00              NOP
0115+  001F 00              NOP
0116+  0020             
0117+  0020             ; ------------------------------------
0118+  0020             ; THE 'COLLECT NEXT CHARACTER' RESTART
0119+  0020             ; ------------------------------------
0120+  0020             
0121+  0020             ; NEXT-CHAR
0122+  0020             L_0020:
0123+  0020 CD 4A 00        CALL SUB_004A
0124+  0023 18 F7           JR L_001C
0125+  0025             
0126+  0025             ; start continued
0127+  0025             
0128+  0025             ; START-2
0129+  0025             L_0025:
0130+  0025 C3 6E 04        JP L_046E
0131+  0028             
0132+  0028             ; ---------------------------------------
0133+  0028             ; THE 'FLOATING POINT CALCULATOR' RESTART
0134+  0028             ; ---------------------------------------
0135+  0028             
0136+  0028             ; FP-CALC
0137+  0028             L_0028:
0138+  0028 C3 94 1B        JP L_1B94
0139+  002B             
0140+  002B             ; end-calc
0141+  002B             SUB_002B:
0142+  002B F1              POP AF
0143+  002C D9              EXX
0144+  002D E3              EX (SP),HL
0145+  002E D9              EXX
0146+  002F C9              RET
0147+  0030             
0148+  0030             ; -----------------------------
0149+  0030             ; THE 'MAKE BC SPACES'  RESTART
0150+  0030             ; -----------------------------
0151+  0030             
0152+  0030             ; BC-SPACES
0153+  0030             L_0030:
0154+  0030 C5              PUSH BC
0155+  0031 2A 14 40        LD HL,($4014)
0156+  0034 E5              PUSH HL
0157+  0035 C3 7D 16        JP L_167D
0158+  0038             
0159+  0038             ; -----------------------
0160+  0038             ; THE 'INTERRUPT' RESTART
0161+  0038             ; -----------------------
0162+  0038             
0163+  0038             ; INTERRUPT
0164+  0038             L_0038:
0165+  0038 0D              DEC C
0166+  0039 20 0A           JR NZ,L_0045
0167+  003B E1              POP HL
0168+  003C 05              DEC B
0169+  003D C8              RET Z
0170+  003E C8              RET Z                               ; extra delay? not in ZX81
0171+  003F 0E 08           LD C,$08                            ; faster than SET 3,C (but is that a good thing here?)
0172+  0041             
0173+  0041             ; WAIT-INT
0174+  0041             L_0041:
0175+  0041 ED 4F           LD R,A
0176+  0043 FB              EI
0177+  0044 E9              JP (HL)                             ; jump into display file mirror
0178+  0045             
0179+  0045             ; SCAN-LINE
0180+  0045             L_0045:
0181+  0045 D1              POP DE
0182+  0046 00              NOP                                 ; different timing to ZX81
0183+  0047 18 F8           JR L_0041
0184+  0049             
0185+  0049 00              .BYTE $00                           ; unused (which moved $004A-$0065 1 byte away from ZX81)
0186+  004A             
0187+  004A             ; ---------------------------------
0188+  004A             ; THE 'INCREMENT CH-ADD' SUBROUTINE
0189+  004A             ; ---------------------------------
0190+  004A             
0191+  004A             ; CH-ADD+1
0192+  004A             SUB_004A:
0193+  004A 2A 16 40        LD HL,($4016)
0194+  004D             
0195+  004D             ; TEMP-PTR1
0196+  004D             L_004D:
0197+  004D 23              INC HL
0198+  004E             
0199+  004E             ; TEMP-PTR2
0200+  004E             SUB_004E:
0201+  004E 22 16 40        LD ($4016),HL
0202+  0051 7E              LD A,(HL)
0203+  0052 FE 7F           CP $7F
0204+  0054 C0              RET NZ
0205+  0055 18 F6           JR L_004D
0206+  0057             
0207+  0057             ; --------------------
0208+  0057             ; THE 'ERROR-2' BRANCH
0209+  0057             ; --------------------
0210+  0057             
0211+  0057             ; ERROR-2
0212+  0057             L_0057:
0213+  0057 E1              POP HL                              ; get error code
0214+  0058 6E              LD L,(HL)                           ; extract error byte
0215+  0059             
0216+  0059             ; ERROR-3
0217+  0059             L_0059:
0218+  0059 FD 75 00        LD (IY+$00),L                       ; set ERR_NR, system error number
0219+  005C ED 7B 02 40     LD SP,($4002)                       ; reset stack pointer to top of GOSUB stack
0220+  0060 CD 85 02        CALL SUB_0285                       ; SLOW mode
0221+  0063 C3 B4 16        JP L_16B4                           ; exit via SET_MIN to clear calculator stack
0222+  0066             
0223+  0066             ; ------------------------------------
0224+  0066             ; THE 'NON MASKABLE INTERRUPT' ROUTINE
0225+  0066             ; ------------------------------------
0226+  0066             
0227+  0066             ; NMI
0228+  0066             L_0066:
0229+  0066 08              EX AF,AF'                           ; NMI uses the alternate A&F
0230+  0067 3C              INC A                               ; Incrememnt line count
0231+  0068 CA 6E 00        JP Z,L_006E                         ; Jump if line count has reached 0
0232+  006B 00              NOP                                 ; NMI test removed (ROM will not run on ZX80 hardware)
0233+  006C             
0234+  006C             ; NMI-RET
0235+  006C 08              EX AF,AF'                           ; Return to normal A&F
0236+  006D C9              RET                                 ; Return to user code
0237+  006E             
0238+  006E             ; NMI-CONT
0239+  006E             L_006E:
0240+  006E 08              EX AF,AF'                           ; Return to normal A&F
0241+  006F F5              PUSH AF                             ; Save the main registers
0242+  0070 C5              PUSH BC                             ;
0243+  0071 D5              PUSH DE                             ;
0244+  0072 E5              PUSH HL                             ;
0245+  0073 21 7D C0        LD HL,$407D + $8000                 ; Set HL to fixed DFILE mirror location (not ($400C) with bit 7 set)
0246+  0076 76              HALT                                ; sync with NMI
0247+  0077             
0248+  0077 D3 FD           OUT ($FD),A                         ; stop the NMI generator
0249+  0079 DD E9           JP (IX)                             ; forward to R-IX-1 (after top) or R-IX-2
0250+  007B             
0251+  007B             
0252+  007B             ; ****************
0253+  007B             ; ** KEY TABLES **
0254+  007B             ; ****************
0255+  007B             
0256+  007B             ; -------------------------------
0257+  007B             ; THE 'UNSHIFTED' CHARACTER CODES
0258+  007B             ; -------------------------------
0259+  007B             
0260+  007B             ; K-UNSHIFT
0261+  007B             L_007B:
0262+  007B             
0263+  007B 3F              .BYTE    $3F                        ; Z
0264+  007C 3D              .BYTE    $3D                        ; X
0265+  007D 28              .BYTE    $28                        ; C
0266+  007E 3B              .BYTE    $3B                        ; V
0267+  007F             
0268+  007F 26              .BYTE    $26                        ; A
0269+  0080 38              .BYTE    $38                        ; S
0270+  0081 29              .BYTE    $29                        ; D
0271+  0082 2B              .BYTE    $2B                        ; F
0272+  0083 2C              .BYTE    $2C                        ; G
0273+  0084             
0274+  0084 36              .BYTE    $36                        ; Q
0275+  0085 3C              .BYTE    $3C                        ; W
0276+  0086 2A              .BYTE    $2A                        ; E
0277+  0087 37              .BYTE    $37                        ; R
0278+  0088 39              .BYTE    $39                        ; T
0279+  0089             
0280+  0089 1D              .BYTE    $1D                        ; 1
0281+  008A 1E              .BYTE    $1E                        ; 2
0282+  008B 1F              .BYTE    $1F                        ; 3
0283+  008C 20              .BYTE    $20                        ; 4
0284+  008D 21              .BYTE    $21                        ; 5
0285+  008E             
0286+  008E 1C              .BYTE    $1C                        ; 0
0287+  008F 25              .BYTE    $25                        ; 9
0288+  0090 24              .BYTE    $24                        ; 8
0289+  0091 23              .BYTE    $23                        ; 7
0290+  0092 22              .BYTE    $22                        ; 6
0291+  0093             
0292+  0093 35              .BYTE    $35                        ; P
0293+  0094 34              .BYTE    $34                        ; O
0294+  0095 2E              .BYTE    $2E                        ; I
0295+  0096 3A              .BYTE    $3A                        ; U
0296+  0097 3E              .BYTE    $3E                        ; Y
0297+  0098             
0298+  0098 76              .BYTE    $76                        ; NEWLINE
0299+  0099 31              .BYTE    $31                        ; L
0300+  009A 30              .BYTE    $30                        ; K
0301+  009B 2F              .BYTE    $2F                        ; J
0302+  009C 2D              .BYTE    $2D                        ; H
0303+  009D             
0304+  009D 00              .BYTE    $00                        ; SPACE
0305+  009E 1B              .BYTE    $1B                        ; .
0306+  009F 32              .BYTE    $32                        ; M
0307+  00A0 33              .BYTE    $33                        ; N
0308+  00A1 27              .BYTE    $27                        ; B
0309+  00A2             
0310+  00A2             ; -----------------------------
0311+  00A2             ; THE 'SHIFTED' CHARACTER CODES
0312+  00A2             ; -----------------------------
0313+  00A2             
0314+  00A2             ; K-SHIFT
0315+  00A2             L_00A2:
0316+  00A2 F5              .BYTE    $F5                        ; Shift + Z = PRINT
0317+  00A3 7A              .BYTE    $7A                        ; Shift + X = Line no
0318+  00A4 70              .BYTE    $70                        ; Shift + C = cursor-up
0319+  00A5 71              .BYTE    $71                        ; Shift + V = cursor-down
0320+  00A6             
0321+  00A6 C6              .BYTE    $C6                        ; Shift + A = ASN
0322+  00A7 C7              .BYTE    $C7                        ; Shift + S = ACS
0323+  00A8 C8              .BYTE    $C8                        ; Shift + D = ATN
0324+  00A9 CA              .BYTE    $CA                        ; Shift + F = EXP
0325+  00AA CE              .BYTE    $CE                        ; Shift + G = ABS
0326+  00AB             
0327+  00AB C3              .BYTE    $C3                        ; Shift + Q = SIN
0328+  00AC C4              .BYTE    $C4                        ; Shift + W = COS
0329+  00AD C5              .BYTE    $C5                        ; Shift + E = TAN
0330+  00AE C9              .BYTE    $C9                        ; Shift + R = LOG
0331+  00AF CD              .BYTE    $CD                        ; Shift + T = SGN
0332+  00B0             
0333+  00B0 0F              .BYTE    $0F                        ; Shift + 1 = ?
0334+  00B1 0C              .BYTE    $0C                        ; Shift + 2 = £
0335+  00B2 0E              .BYTE    $0E                        ; Shift + 3 = :
0336+  00B3 0D              .BYTE    $0D                        ; Shift + 4 = $
0337+  00B4 0B              .BYTE    $0B                        ; Shift + 5 = "
0338+  00B5             
0339+  00B5 14              .BYTE    $14                        ; Shift + 0 = =
0340+  00B6 11              .BYTE    $11                        ; Shift + 9 = )
0341+  00B7 10              .BYTE    $10                        ; Shift + 8 = (
0342+  00B8 1A              .BYTE    $1A                        ; Shift + 7 = ,
0343+  00B9 19              .BYTE    $19                        ; SHIFT + 6 =                           ;
0344+  00BA             
0345+  00BA 12              .BYTE    $12                        ; Shift + P = >
0346+  00BB 13              .BYTE    $13                        ; Shift + O = <
0347+  00BC 45              .BYTE    $45                        ; Shift + I = PI
0348+  00BD 43              .BYTE    $43                        ; Shift + U = RND
0349+  00BE CC              .BYTE    $CC                        ; Shift + Y = SQR
0350+  00BF             
0351+  00BF 74              .BYTE    $74                        ; Shift + N/L = GRAPHICS
0352+  00C0 15              .BYTE    $15                        ; Shift + L = +
0353+  00C1 16              .BYTE    $16                        ; Shift + K = -
0354+  00C2 17              .BYTE    $17                        ; Shift + J = *
0355+  00C3 18              .BYTE    $18                        ; Shift + H = /
0356+  00C4             
0357+  00C4 79              .BYTE    $79                        ; Shift + SPACE = FUNCTION
0358+  00C5 77              .BYTE    $77                        ; Shift + . = RUBOUT
0359+  00C6 75              .BYTE    $75                        ; Shift + M = EDIT
0360+  00C7 73              .BYTE    $73                        ; Shift + N = cursor-right
0361+  00C8 72              .BYTE    $72                        ; Shift + B = cursor-left
0362+  00C9             
0363+  00C9             
0364+  00C9             ; -----------------------------
0365+  00C9             ; THE 'GRAPHIC' CHARACTER CODES
0366+  00C9             ; -----------------------------
0367+  00C9             
0368+  00C9             ; K-GRAPH
0369+  00C9             ; 00c9
0370+  00C9 83              .BYTE    $83                        ; Graphics + Z = graphic
0371+  00CA 03              .BYTE    $03                        ; Graphics + X = graphic
0372+  00CB 05              .BYTE    $05                        ; Graphics + C = graphic
0373+  00CC 85              .BYTE    $85                        ; Graphics + V = graphic
0374+  00CD             
0375+  00CD 08              .BYTE    $08                        ; Graphics + A = graphic
0376+  00CE 0A              .BYTE    $0A                        ; Graphics + S = graphic
0377+  00CF 09              .BYTE    $09                        ; Graphics + D = graphic
0378+  00D0 8A              .BYTE    $8A                        ; Graphics + F = graphic
0379+  00D1 89              .BYTE    $89                        ; Graphics + G = graphic
0380+  00D2             
0381+  00D2 01              .BYTE    $01                        ; Graphics + Q = graphic
0382+  00D3 02              .BYTE    $02                        ; Graphics + W = graphic
0383+  00D4 04              .BYTE    $04                        ; Graphics + E = graphic
0384+  00D5 87              .BYTE    $87                        ; Graphics + R = graphic
0385+  00D6 81              .BYTE    $81                        ; Graphics + T = graphic
0386+  00D7             
0387+  00D7 8F              .BYTE    $8F                        ; Graphics + 1 = graphic
0388+  00D8 8C              .BYTE    $8C                        ; Graphics + 2 = graphic
0389+  00D9 8E              .BYTE    $8E                        ; Graphics + 3 = graphic
0390+  00DA 8D              .BYTE    $8D                        ; Graphics + 4 = inverse $
0391+  00DB 8B              .BYTE    $8B                        ; Graphics + 5 = inverse "
0392+  00DC             
0393+  00DC 94              .BYTE    $94                        ; Graphics + 0 = inverse =
0394+  00DD 91              .BYTE    $91                        ; Graphics + 9 = inverse )
0395+  00DE 90              .BYTE    $90                        ; Graphics + 8 = inverse (
0396+  00DF 9A              .BYTE    $9A                        ; Graphics + 7 = inverse ,
0397+  00E0 99              .BYTE    $99                        ; GRAPHICS + 6 = INVERSE                           ;
0398+  00E1             
0399+  00E1 92              .BYTE    $92                        ; Graphics + P = inverse >
0400+  00E2 93              .BYTE    $93                        ; Graphics + O = inverse <
0401+  00E3 07              .BYTE    $07                        ; Graphics + I = graphic
0402+  00E4 84              .BYTE    $84                        ; Graphics + U = graphic
0403+  00E5 82              .BYTE    $82                        ; Graphics + Y = graphic
0404+  00E6             
0405+  00E6 78              .BYTE    $78                        ; Graphics + N/L = KL
0406+  00E7 95              .BYTE    $95                        ; Graphics + L = inverse +
0407+  00E8 96              .BYTE    $96                        ; Graphics + K = inverse -
0408+  00E9 97              .BYTE    $97                        ; Graphics + J = inverse *
0409+  00EA 98              .BYTE    $98                        ; Graphics + H = inverse /
0410+  00EB             
0411+  00EB 78              .BYTE    $78                        ; Graphics + SPACE =
0412+  00EC 77              .BYTE    $77                        ; Graphics + . = RUBOUT
0413+  00ED 78              .BYTE    $78                        ; Graphics + M = KL
0414+  00EE 86              .BYTE    $86                        ; Graphics + N = graphic
0415+  00EF 06              .BYTE    $06                        ; Graphics + B = graphic
0416+  00F0             
0417+  00F0             ; ------------------
0418+  00F0             ; THE 'TOKEN' TABLES
0419+  00F0             ; ------------------
0420+  00F0             
0421+  00F0             ; TOKENS
0422+  00F0             L_00F0:
0423+  00F0 9B              .BYTE   $1B+$80                     ; '.' + $80 ?
0424+  00F1             L_00F1:
0425+  00F1 28 34 29 AA     .BYTE   $28,$34,$29,$2A+$80         ; CODE
0426+  00F5 3B 26 B1        .BYTE   $3B,$26,$31+$80             ; VAL
0427+  00F8 31 2A B3        .BYTE   $31,$2A,$33+$80             ; LEN
0428+  00FB 38 2E B3        .BYTE   $38,$2E,$33+$80             ; SIN
0429+  00FE 28 34 B8        .BYTE   $28,$34,$38+$80             ; COS
0430+  0101 39 26 B3        .BYTE   $39,$26,$33+$80             ; TAN
0431+  0104 26 38 B3        .BYTE   $26,$38,$33+$80             ; ASN
0432+  0107 26 28 B8        .BYTE   $26,$28,$38+$80             ; ACS
0433+  010A 26 39 B3        .BYTE   $26,$39,$33+$80             ; ATN
0434+  010D 31 34 AC        .BYTE   $31,$34,$2C+$80             ; LOG
0435+  0110 2A 3D B5        .BYTE   $2A,$3D,$35+$80             ; EXP
0436+  0113 2E 33 B9        .BYTE   $2E,$33,$39+$80             ; INT
0437+  0116 38 36 B7        .BYTE   $38,$36,$37+$80             ; SQR
0438+  0119 38 2C B3        .BYTE   $38,$2C,$33+$80             ; SGN
0439+  011C 26 27 B8        .BYTE   $26,$27,$38+$80             ; ABS
0440+  011F 35 2A 2A B0     .BYTE   $35,$2A,$2A,$30+$80         ; PEEK
0441+  0123 3A 38 B7        .BYTE   $3A,$38,$37+$80             ; USR
0442+  0126 38 39 37 8D     .BYTE   $38,$39,$37,$0D+$80         ; STR$
0443+  012A 28 2D 37 8D     .BYTE   $28,$2D,$37,$0D+$80         ; CHR$
0444+  012E 33 34 B9        .BYTE   $33,$34,$39+$80             ; NOT
0445+  0131 26 B9           .BYTE   $26,$39+$80                 ; AT
0446+  0133 39 26 A7        .BYTE   $39,$26,$27+$80             ; TAB
0447+  0136 17 97           .BYTE   $17,$17+$80                 ; **
0448+  0138 34 B7           .BYTE   $34,$37+$80                 ; OR
0449+  013A 26 33 A9        .BYTE   $26,$33,$29+$80             ; AND
0450+  013D 13 94           .BYTE   $13,$14+$80                 ; <=
0451+  013F 12 94           .BYTE   $12,$14+$80                 ; >=
0452+  0141 13 92           .BYTE   $13,$12+$80                 ; <>
0453+  0143             
0454+  0143 39 2A 32 35     .BYTE   $39,$2A,$32,$35,$34+$80     ; TEMPO
0454+  0147 B4 
0455+  0148 32 3A 38 2E     .BYTE   $32,$3A,$38,$2E,$28+$80     ; MUSIC
0455+  014C A8 
0456+  014D 38 34 3A 33     .BYTE   $38,$34,$3A,$33,$29+$80     ; SOUND
0456+  0151 A9 
0457+  0152 27 2A 2A B5     .BYTE   $27,$2A,$2A,$35+$80         ; BEEP
0458+  0156 33 34 27 2A     .BYTE   $33,$34,$27,$2A,$2A,$35+$80 ; NOBEEP
0458+  015A 2A B5 
0459+  015C 31 35 37 2E     .BYTE   $31,$35,$37,$2E,$33,$39+$80 ; LPRINT
0459+  0160 33 B9 
0460+  0162 31 31 2E 38     .BYTE   $31,$31,$2E,$38,$39+$80     ; LLIST
0460+  0166 B9 
0461+  0167 38 39 34 B5     .BYTE   $38,$39,$34,$35+$80         ; STOP
0462+  016B 38 31 34 BC     .BYTE   $38,$31,$34,$3C+$80         ; SLOW
0463+  016F 2B 26 38 B9     .BYTE   $2B,$26,$38,$39+$80         ; FAST
0464+  0173 33 2A BC        .BYTE   $33,$2A,$3C+$80             ; NEW
0465+  0176 38 28 37 34     .BYTE   $38,$28,$37,$34,$31,$31+$80 ; SCROLL
0465+  017A 31 B1 
0466+  017C 28 34 33 B9     .BYTE   $28,$34,$33,$39+$80         ; CONT
0467+  0180 29 2E B2        .BYTE   $29,$2E,$32+$80             ; DIM
0468+  0183 37 2A B2        .BYTE   $37,$2A,$32+$80             ; REM
0469+  0186 2B 34 B7        .BYTE   $2B,$34,$37+$80             ; FOR
0470+  0189 2C 34 39 B4     .BYTE   $2C,$34,$39,$34+$80         ; GOTO
0471+  018D 2C 34 38 3A     .BYTE   $2C,$34,$38,$3A,$27+$80     ; GOSUB
0471+  0191 A7 
0472+  0192 2E 33 35 3A     .BYTE   $2E,$33,$35,$3A,$39+$80     ; INPUT
0472+  0196 B9 
0473+  0197 31 34 26 A9     .BYTE   $31,$34,$26,$29+$80         ; LOAD
0474+  019B 31 2E 38 B9     .BYTE   $31,$2E,$38,$39+$80         ; LIST
0475+  019F 31 2A B9        .BYTE   $31,$2A,$39+$80             ; LET
0476+  01A2 35 26 3A 38     .BYTE   $35,$26,$3A,$38,$2A+$80     ; PAUSE
0476+  01A6 AA 
0477+  01A7 33 2A 3D B9     .BYTE   $33,$2A,$3D,$39+$80         ; NEXT
0478+  01AB 35 34 30 AA     .BYTE   $35,$34,$30,$2A+$80         ; POKE
0479+  01AF 35 37 2E 33     .BYTE   $35,$37,$2E,$33,$39+$80     ; PRINT
0479+  01B3 B9 
0480+  01B4 35 31 34 B9     .BYTE   $35,$31,$34,$39+$80         ; PLOT
0481+  01B8 37 3A B3        .BYTE   $37,$3A,$33+$80             ; RUN
0482+  01BB 38 26 3B AA     .BYTE   $38,$26,$3B,$2A+$80         ; SAVE
0483+  01BF 37 26 33 A9     .BYTE   $37,$26,$33,$29+$80         ; RAND
0484+  01C3 2E AB           .BYTE   $2E,$2B+$80                 ; IF
0485+  01C5 28 31 B8        .BYTE   $28,$31,$38+$80             ; CLS
0486+  01C8 3A 33 35 31     .BYTE   $3A,$33,$35,$31,$34,$39+$80 ; UNPLOT
0486+  01CC 34 B9 
0487+  01CE 28 31 2A 26     .BYTE   $28,$31,$2A,$26,$37+$80     ; CLEAR
0487+  01D2 B7 
0488+  01D3 37 2A 39 3A     .BYTE   $37,$2A,$39,$3A,$37,$33+$80 ; RETURN
0488+  01D7 37 B3 
0489+  01D9 28 34 35 BE     .BYTE   $28,$34,$35,$3E+$80         ; COPY
0490+  01DD             
0491+  01DD 39 2D 2A B3     .BYTE   $39,$2D,$2A,$33+$80         ; THEN
0492+  01E1 39 B4           .BYTE   $39,$34+$80                 ; TO
0493+  01E3 38 39 2A B5     .BYTE   $38,$39,$2A,$35+$80         ; STEP
0494+  01E7 37 33 A9        .BYTE   $37,$33,$29+$80             ; RND
0495+  01EA 2E 33 30 2A     .BYTE   $2E,$33,$30,$2A,$3E,$0D+$80 ; INKEY$
0495+  01EE 3E 8D 
0496+  01F0 35 AE           .BYTE   $35,$2E+$80                 ; PI
0497+  01F2             
0498+  01F2             ; ---------------------------
0499+  01F2             ; THE 'ERROR MESSAGES' TABLES
0500+  01F2             ; ---------------------------
0501+  01F2             
0502+  01F2             ; table of error messages, used by function at $07E1
0503+  01F2             L_01F2:
0504+  01F2 34 30           .BYTE    $34,$30                    ; FF = OK - OK
0505+  01F4 33 2B           .BYTE    $33,$2B                    ; 00 = NF - NEXT without FOR
0506+  01F6 3A 3B           .BYTE    $3A,$3B                    ; 01 = UV - Unidentified Variable
0507+  01F8 27 38           .BYTE    $27,$38                    ; 02 = BS - Bad Subscript
0508+  01FA 34 32           .BYTE    $34,$32                    ; 03 = OM - Out of Memory
0509+  01FC 38 2B           .BYTE    $38,$2B                    ; 04 = SF - Screen Full
0510+  01FE 34 3B           .BYTE    $34,$3B                    ; 05 = OV - OVerflow
0511+  0200 37 2C           .BYTE    $37,$2C                    ; 06 = RG - RETURN without GOSUB
0512+  0202 2E 2E           .BYTE    $2E,$2E                    ; 07 = II - Illegal INPUT
0513+  0204 38 39           .BYTE    $38,$39                    ; 08 = ST - STop
0514+  0206 26 2C           .BYTE    $26,$2C                    ; 09 = AG - invalid ArGument
0515+  0208 2E 37           .BYTE    $2E,$37                    ; 0A = IR - Integer out of Range
0516+  020A 2E 2A           .BYTE    $2E,$2A                    ; 0B = IE - Invalid Expression
0517+  020C 27 30           .BYTE    $27,$30                    ; 0C = BK - BreaK
0518+  020E 33 26           .BYTE    $33,$26                    ; 0D = NA - No program NAme
0519+  0210 32 2B           .BYTE    $32,$2B                    ; 0E = MF - Music Format incorrect
0520+  0212             
0521+  0212             ; the " IN " message
0522+  0212             L_0212:
0523+  0212 00 2E 33 00     .BYTE    $00,$2E,$33,$00            ; " IN " ("OK IN 10")
0524+  0216             
0525+  0216             
0526+  0216             ; ------------------------------
0527+  0216             ; THE 'LOAD-SAVE UPDATE' ROUTINE
0528+  0216             ; ------------------------------
0529+  0216             
0530+  0216             ; LOAD/SAVE
0531+  0216             SUB_0216:
0532+  0216 23              INC HL                              ; Step destination
0533+  0217 EB              EX DE,HL                            ; Backup to DE
0534+  0218 2A 14 40        LD HL,($4014)                       ; Get E-LINE
0535+  021B 37              SCF                                 ; Check if they match
0536+  021C ED 52           SBC HL,DE                           ; Is the last byte the end of the file?
0537+  021E EB              EX DE,HL                            ; Restore destination
0538+  021F D0              RET NC                              ; return if the end has not been reached
0539+  0220 E1              POP HL                              ; drop the return address and continue
0540+  0221             ; ZX81 drops to SLOW here
0541+  0221             
0542+  0221             ; LOAD/SAVE-COMPLETE
0543+  0221             L_0221:
0544+  0221 FD 34 09        INC (IY+$09)                        ; increment version (from tape Lambda = $FF, ZX81 = $00. normal Lambda = $00, ZX81 = $01)
0545+  0224 28 5F           JR Z,SUB_0285                       ; if it was $FF, a Lambda program, go straight to FAST/SLOW
0546+  0226             
0547+  0226             ; This code converts a ZX81 program to the Lambda 8300
0548+  0226 2A 0C 40        LD HL,($400C)                       ; Location of the ZX81 DFILE (loaded with program)
0549+  0229 23              INC HL                              ; +1
0550+  022A 22 10 40        LD ($4010),HL                       ; Store this as
0551+  022D 21 7D 40        LD HL,DFILE                         ; Hard coded DFILE location
0552+  0230 01 19 03        LD BC,$0319                         ; Length of DFILE + 1 extra blank row to make SCROLL a block copy
0553+  0233 CD 30 0B        CALL SUB_0B30                       ; MAKE-ROOM for BC bytes at location in HL
0554+  0236 EB              EX DE,HL                            ; HL is now at the program location
0555+  0237             ; ZX81-CONV-1
0556+  0237             L_0237:
0557+  0237 23              INC HL                              ; Step through memory
0558+  0238 3E C0           LD A,$C0
0559+  023A A6              AND (HL)                            ; Mask off the top two bits
0560+  023B 23              INC HL
0561+  023C 23              INC HL
0562+  023D 23              INC HL
0563+  023E 28 08           JR Z,L_0248                         ; If it was <$30, skip to ZX81-CONV-4
0564+  0240 21 96 43        LD HL,$4396                         ; Hard coded number we worked out before (start of program)
0565+  0243 C3 AC 04        JP L_04AC                           ; Re-initialise after loading and clear screen etc.
0566+  0246             
0567+  0246             ; ZX81-CONV-2
0568+  0246             L_0246:
0569+  0246 80              ADD A,B                             ; modify the command token from ZX81 to Lambda tokens
0570+  0247             
0571+  0247             ; ZX81-CONV-3
0572+  0247             L_0247:
0573+  0247 77              LD (HL),A                           ; update the token in the copde
0574+  0248             
0575+  0248             ; ZX81-CONV-4
0576+  0248             L_0248:
0577+  0248 23              INC HL                              ; step through program
0578+  0249 7E              LD A,(HL)
0579+  024A CD 55 09        CALL SUB_0955                       ; routine NUMBER
0580+  024D 28 F9           JR Z,L_0248                         ; skip through numbers
0581+  024F             
0582+  024F FE 76           CP $76                              ; is it a newline?
0583+  0251 28 E4           JR Z,L_0237                         ; skip back for next line number
0584+  0253 FE E1           CP $E1                              ; is it a command over $E1?
0585+  0255 30 F1           JR NC,L_0248                        ; continue scanning
0586+  0257 FE 40           CP $40                              ; is it a number character below $40?
0587+  0259 38 ED           JR C,L_0248                         ; continue scanning
0588+  025B 06 03           LD B,$03
0589+  025D FE 43           CP $43                              ; is it a command below $43?
0590+  025F 38 E5           JR C,L_0246                         ; add 3
0591+  0261 06 62           LD B,$62
0592+  0263 FE DE           CP $DE                              ; is it a command above $DE?
0593+  0265 30 DF           JR NC,L_0246                        ; add $62
0594+  0267 06 FE           LD B,$FE
0595+  0269 FE D8           CP $D8                              ; is it cpmmand $D8?
0596+  026B 30 D9           JR NC,L_0246                        ; add $FE
0597+  026D 06 FC           LD B,$FC
0598+  026F FE C4           CP $C4                              ; is it above $C4?
0599+  0271 30 D3           JR NC,L_0246                        ; add $FC
0600+  0273 06 13           LD B,$13
0601+  0275 FE C1           CP $C1                              ; is it above $C1?
0602+  0277 30 CD           JR NC,L_0246                        ; add $13
0603+  0279 FE C0           CP $C0
0604+  027B 20 CB           JR NZ,L_0248                        ; is it not $C0?
0605+  027D 3E 17           LD A,$17                            ; replace with dummy command
0606+  027F 18 C6           JR L_0247                           ; loop back to write the new value
0607+  0281             
0608+  0281             ; --------------------------
0609+  0281             ; THE 'SLOW' COMMAND ROUTINE
0610+  0281             ; --------------------------
0611+  0281             
0612+  0281             ; SLOW
0613+  0281             SUB_0281:
0614+  0281 FD CB 3B F6     SET 6,(IY+$3B)                      ; Request slow mode ()
0615+  0285             
0616+  0285             ; SLOW/FAST
0617+  0285             SUB_0285:
0618+  0285 21 3B 40        LD HL,$403B                         ; load the CDFLAG
0619+  0288 7E              LD A,(HL)
0620+  0289 17              RLA                                 ; bit 6 (request) -> bit 7 (current state)
0621+  028A AE              XOR (HL)                            ; XOR with actual current state
0622+  028B 17              RLA                                 ; result -> carry
0623+  028C D0              RET NC                              ; return if already in requested mode
0624+  028D             
0625+  028D CB FE           SET 7,(HL)                          ; set slow mode - compute and display
0626+  028F F5              PUSH AF
0627+  0290 C5              PUSH BC
0628+  0291 D5              PUSH DE
0629+  0292 E5              PUSH HL
0630+  0293             
0631+  0293             ; Called where DISPLAY-1 usually was
0632+  0293             ; PRE-DISPLAY-1
0633+  0293             SUB_0293:
0634+  0293 AF              XOR A                               ; clear the line counter
0635+  0294 08              EX AF,AF'
0636+  0295 D3 FE           OUT ($FE),A                         ; enable NMI generator
0637+  0297 76              HALT                                ; wait for interrupt
0638+  0298 D3 FD           OUT ($FD),A                         ; disable NMI generator
0639+  029A 7E              LD A,(HL)                           ; waste cycles
0640+  029B 7E              LD A,(HL)
0641+  029C 00              NOP
0642+  029D             
0643+  029D             ; -----------------------
0644+  029D             ; THE 'MAIN DISPLAY' LOOP
0645+  029D             ; -----------------------
0646+  029D             ; This routine is executed once for every frame displayed.
0647+  029D             
0648+  029D             ;; DISPLAY-1
0649+  029D             L_029D:
0650+  029D 2A 34 40        LD HL,($4034)                       ; Get the frame count from FRAMES
0651+  02A0 2B              DEC HL
0652+  02A1 3E 7F           LD A,$7F                            ; Mask bit 7
0653+  02A3 A4              AND H                               ; of H
0654+  02A4 B5              OR L                                ; and OR with L
0655+  02A5 7C              LD A,H                              ;
0656+  02A6 20 03           JR NZ,L_02AB                        ; Jump if frame counter bits 0-14 are zero
0657+  02A8 17              RLA                                 ; bit 15 of frame counter (1 if paused) to carry
0658+  02A9 18 02           JR L_02AD                           ; skip
0659+  02AB             
0660+  02AB             ; ANOTHER
0661+  02AB             L_02AB:
0662+  02AB 46              LD B,(HL)                           ; Dummy timing
0663+  02AC 37              SCF                                 ; set carry
0664+  02AD             
0665+  02AD             ; OVER-NC
0666+  02AD             L_02AD:
0667+  02AD 67              LD H,A
0668+  02AE 22 34 40        LD ($4034),HL                       ; Save the new frame count to FRAMES
0669+  02B1 D0              RET NC                              ; Return if FRAMES is in use by PAUSE command
0670+  02B2             
0671+  02B2             ; ZX81 goes string to ; DISPLAY-2
0672+  02B2             
0673+  02B2             ; Bit 7 of the cursor character is inverted every 16 frames
0674+  02B2             ; That makes it flashe approximately 2 times a second
0675+  02B2             ; BLINK-CURSOR
0676+  02B2 7D              LD A,L                              ; A = LSB of FRAMES
0677+  02B3 2A 7B 40        LD HL,($407B)                       ; Address of blinking cursor
0678+  02B6 CB 26           SLA (HL)                            ; rotate cursor character
0679+  02B8 17              RLA                                 ;
0680+  02B9 17              RLA                                 ;
0681+  02BA 17              RLA                                 ;
0682+  02BB 17              RLA                                 ; rotate A bit 4 into carry
0683+  02BC CB 1E           RR (HL)                             ; rotate carry back into character
0684+  02BE             
0685+  02BE             ; DISPLAY-2
0686+  02BE CD 3D 03        CALL SUB_033D                       ; KEYBOARD - scan keyboard and start VSYNC
0687+  02C1 ED 4B 25 40     LD BC,($4025)                       ; get LAST_K
0688+  02C5 22 25 40        LD ($4025),HL                       ; update LAST_K
0689+  02C8 78              LD A,B
0690+  02C9 C6 02           ADD A,$02
0691+  02CB ED 42           SBC HL,BC
0692+  02CD 3A 27 40        LD A,($4027)                        ; Check DEBOUNCE
0693+  02D0 B4              OR H
0694+  02D1 B5              OR L
0695+  02D2 58              LD E,B
0696+  02D3 06 09           LD B,$09                            ; ZX81 used $0B
0697+  02D5 21 3B 40        LD HL,$403B                         ; Get CDFLAG
0698+  02D8 CB 86           RES 0,(HL)
0699+  02DA 20 08           JR NZ,L_02E4
0700+  02DC CB 7E           BIT 7,(HL)
0701+  02DE CB C6           SET 0,(HL)
0702+  02E0 C8              RET Z                               ; return if in FAST mode
0703+  02E1 05              DEC B
0704+  02E2 05              DEC B                               ; extra DEC B, ZX81 was NOP
0705+  02E3 37              SCF
0706+  02E4             
0707+  02E4             ; NO-KEY
0708+  02E4             L_02E4:
0709+  02E4 CB 10           RL B                                ; Reordered from ZX81
0710+  02E6             
0711+  02E6             ; LOOP-B
0712+  02E6             L_02E6:
0713+  02E6 10 FE           DJNZ L_02E6
0714+  02E8 21 27 40        LD HL,$4027
0715+  02EB 46              LD B,(HL)                           ; Get DEBOUCE
0716+  02EC 7B              LD A,E
0717+  02ED FE FE           CP $FE
0718+  02EF 9F              SBC A,A
0719+  02F0 06 0F           LD B,$0F                            ; ZX81 has $1F
0720+  02F2 B6              OR (HL)
0721+  02F3 A0              AND B
0722+  02F4 1F              RRA
0723+  02F5 77              LD (HL),A
0724+  02F6 29              ADD HL,HL
0725+  02F7 23              INC HL
0726+  02F8 D3 FF           OUT ($FF),A                         ; End VSYNC pulse
0727+  02FA             
0728+  02FA 21 7D C0        LD HL,$407D + $8000                 ; Hard coded DFILE location
0729+  02FD CD 14 03        CALL SUB_0314
0730+  0300             
0731+  0300             ; ---------------------
0732+  0300             ; THE 'VIDEO-1' ROUTINE
0733+  0300             ; ---------------------
0734+  0300             
0735+  0300             ; R-IX-1 (timing altered)
0736+  0300 01 01 19        LD BC,$1901                         ; B=25 lines, C=1 scanline
0737+  0303 3A 00 00        LD A,($0000)                        ; wasting cycles
0738+  0306 3E F5           LD A,$F5                            ; Preset value to go into R to cause trigger at correct time
0739+  0308 CD 37 03        CALL SUB_0337                       ; DISPLAY-5, border complete, generate text display
0740+  030B 00              NOP
0741+  030C 00              NOP
0742+  030D 2B              DEC HL                              ; back to the previous HALT character
0743+  030E CD 14 03        CALL SUB_0314                       ; DISPLAY-3, bottom border
0744+  0311 C3 9D 02        JP L_029D                           ; Back to DISPLAY-1
0745+  0314             
0746+  0314             ; ---------------------------------
0747+  0314             ; THE 'DISPLAY BLANK LINES' ROUTINE
0748+  0314             ; ---------------------------------
0749+  0314             
0750+  0314             ; DISPLAY-3
0751+  0314             SUB_0314:
0752+  0314 DD E1           POP IX
0753+  0316 FD 4E 28        LD C,(IY+$28)                       ; Load C with MARGIN value
0754+  0319 FD CB 3B 7E     BIT 7,(IY+$3B)                      ; Check CDFLAG
0755+  031D 28 0C           JR Z,L_032B                         ; To DISPLAY-4 in FAST mode
0756+  031F             
0757+  031F 79              LD A,C                              ; A = 31 (NTSC) or 55 (PAL)
0758+  0320 ED 44           NEG
0759+  0322 3C              INC A
0760+  0323 08              EX AF,AF'                           ; Set NMI's A register to $FF-MARGIN
0761+  0324             
0762+  0324 D3 FE           OUT ($FE),A                         ; Enable the NMI generator
0763+  0326             
0764+  0326 E1              POP HL                              ; Restore main registers
0765+  0327 D1              POP DE
0766+  0328 C1              POP BC
0767+  0329 F1              POP AF
0768+  032A C9              RET                                 ; return to users code until interrupted
0769+  032B             
0770+  032B             ; ------------------------
0771+  032B             ; THE 'FAST MODE' ROUTINES
0772+  032B             ; ------------------------
0773+  032B             
0774+  032B             ; DISPLAY-4
0775+  032B             L_032B:
0776+  032B 3E FC           LD A,$FC                            ; Set delay
0777+  032D 06 01           LD B,$01                            ; For 1 row
0778+  032F CD 37 03        CALL SUB_0337                       ; To DISPLAY-5
0779+  0332 2B              DEC HL                              ; Back to previous HALT
0780+  0333 E3              EX (SP),HL                          ; Waste cycles
0781+  0334 E3              EX (SP),HL
0782+  0335 DD E9           JP (IX)                             ; Back to R-IX-1 or R-IX-2
0783+  0337             
0784+  0337             ; --------------------------
0785+  0337             ; THE 'DISPLAY-5' SUBROUTINE
0786+  0337             ; --------------------------
0787+  0337             
0788+  0337             ; DISPLAY-5
0789+  0337             SUB_0337:
0790+  0337 ED 4F           LD R,A                              ; R= $FC (SLOW mode) or $FC (FAST mode)
0791+  0339 3E DD           LD A,$DD                            ; Preload next R
0792+  033B FB              EI                                  ; Enable interrupts at the end of lines
0793+  033C E9              JP (HL)                             ; Jump into the echo display file
0794+  033D             
0795+  033D             ; ----------------------------------
0796+  033D             ; THE 'KEYBOARD SCANNING' SUBROUTINE
0797+  033D             ; ----------------------------------
0798+  033D             
0799+  033D             ; KEYBOARD
0800+  033D             SUB_033D:
0801+  033D 21 FF FF        LD HL,$FFFF
0802+  0340 01 FE FE        LD BC,$FEFE
0803+  0343 ED 78           IN A,(C)                            ; Read port $FE, starts VSync pulse
0804+  0345 F6 01           OR $01                              ; Ignore shift
0805+  0347             
0806+  0347             ; EACH-LINE
0807+  0347             L_0347:
0808+  0347 F6 E0           OR $E0
0809+  0349 57              LD D,A
0810+  034A 2F              CPL
0811+  034B FE 01           CP $01
0812+  034D 9F              SBC A,A
0813+  034E B0              OR B
0814+  034F A5              AND L
0815+  0350 6F              LD L,A
0816+  0351 7C              LD A,H
0817+  0352 A2              AND D
0818+  0353 67              LD H,A
0819+  0354 CB 00           RLC B
0820+  0356 ED 78           IN A,(C)
0821+  0358 38 ED           JR C,L_0347
0822+  035A 1F              RRA
0823+  035B CB 14           RL H
0824+  035D             
0825+  035D             ; GET_REGION
0826+  035D 3E FF           LD A,$FF                            ; Read port $7E
0827+  035F DB 7E           IN A,($7E)                          ; Will return the same as $FE unless there is something different in the Lambda
0828+  0361 1F              RRA                                 ; Bit 7 => carry (Bit 7 that is the tape input???)
0829+  0362 3F              CCF                                 ; carry = !carry
0830+  0363 9F              SBC A,A                             ; A = $FF (PAL) or $00 (NTSC)
0831+  0364 E6 18           AND $18                             ; A = $18       or $00
0832+  0366 C6 1F           ADD A,$1F                           ; A = $37       or $1F
0833+  0368 32 28 40        LD ($4028),A                        ; Save this as MARGIN
0834+  036B C9              RET
0835+  036C             
0836+  036C             ; --------------------------
0837+  036C             ; THE 'FAST' COMMAND ROUTINE
0838+  036C             ; --------------------------
0839+  036C             ; FAST
0840+  036C             SUB_036C:
0841+  036C FD CB 3B B6     RES 6,(IY+$3B)                      ; Request FAST mode
0842+  0370             
0843+  0370             ; ------------------------------
0844+  0370             ; THE 'SET FAST MODE' SUBROUTINE
0845+  0370             ; ------------------------------
0846+  0370             
0847+  0370             ; SET-FAST
0848+  0370             SUB_0370:
0849+  0370 FD CB 3B 7E     BIT 7,(IY+$3B)                      ; Test FAST mode
0850+  0374 C8              RET Z                               ; Already in Fast mode
0851+  0375 76              HALT                                ; Synchronise with interrupt
0852+  0376             
0853+  0376 D3 FD           OUT ($FD),A                         ; Disable NMI generator (value of A unimportant)
0854+  0378 FD CB 3B BE     RES 7,(IY+$3B)                      ; Set FAST mode
0855+  037C C9              RET
0856+  037D             
0857+  037D             ; --------------
0858+  037D             ; THE 'REPORT-F'
0859+  037D             ; --------------
0860+  037D             
0861+  037D             ;; REPORT-F
0862+  037D             L_037D:
0863+  037D CF              RST 08H                             ; ERROR-1
0864+  037E 0D              .BYTE $0D                           ; NA - po program NAme supplied.
0865+  037F             
0866+  037F             ; --------------------------
0867+  037F             ; THE 'SAVE COMMAND' ROUTINE
0868+  037F             ; --------------------------
0869+  037F             
0870+  037F             ; SAVE
0871+  037F             SUB_037F:
0872+  037F CD 35 04        CALL SUB_0435
0873+  0382 38 F9           JR C,L_037D
0874+  0384 FD 36 09 FF     LD (IY+$09),$FF                     ; Set version to $FF, indicating Lambda 8300 program
0875+  0388 EB              EX DE,HL
0876+  0389 11 CB 12        LD DE,$12CB                         ; five seconds timing value
0877+  038C             
0878+  038C             ; HEADER
0879+  038C             L_038C:
0880+  038C CD 3B 11        CALL SUB_113B
0881+  038F 30 2E           JR NC,L_03BF
0882+  0391             
0883+  0391             ; DELAY-1
0884+  0391             L_0391:
0885+  0391 10 FE           DJNZ L_0391
0886+  0393 1B              DEC DE
0887+  0394 7A              LD A,D
0888+  0395 B3              OR E
0889+  0396 20 F4           JR NZ,L_038C
0890+  0398             
0891+  0398             ; OUT-NAME
0892+  0398             L_0398:
0893+  0398 CD AB 03        CALL SUB_03AB
0894+  039B CB 7E           BIT 7,(HL)
0895+  039D 23              INC HL
0896+  039E 28 F8           JR Z,L_0398
0897+  03A0 21 09 40        LD HL,$4009                         ; Set HL to first address to go, VERSN
0898+  03A3             
0899+  03A3             ; OUT-PROG
0900+  03A3             L_03A3:
0901+  03A3 CD AB 03        CALL SUB_03AB
0902+  03A6 CD 16 02        CALL SUB_0216
0903+  03A9 18 F8           JR L_03A3
0904+  03AB             
0905+  03AB             ; -------------------------
0906+  03AB             ; THE 'OUT-BYTE' SUBROUTINE
0907+  03AB             ; -------------------------
0908+  03AB             
0909+  03AB             ; OUT-BYTE
0910+  03AB             SUB_03AB:
0911+  03AB 5E              LD E,(HL)
0912+  03AC 37              SCF
0913+  03AD             
0914+  03AD             ; EACH-BIT
0915+  03AD             L_03AD:
0916+  03AD CB 13           RL E
0917+  03AF C8              RET Z
0918+  03B0 9F              SBC A,A
0919+  03B1 E6 05           AND $05
0920+  03B3 C6 04           ADD A,$04
0921+  03B5 4F              LD C,A
0922+  03B6             
0923+  03B6             ; PULSES
0924+  03B6             L_03B6:
0925+  03B6 D3 FF           OUT ($FF),A
0926+  03B8 06 23           LD B,$23
0927+  03BA             
0928+  03BA             ; DELAY-2
0929+  03BA             L_03BA:
0930+  03BA 10 FE           DJNZ L_03BA
0931+  03BC CD 3B 11        CALL SUB_113B
0932+  03BF             
0933+  03BF             ; BREAK-2
0934+  03BF             L_03BF:
0935+  03BF 30 72           JR NC,L_0433
0936+  03C1 06 1E           LD B,$1E
0937+  03C3             
0938+  03C3             ; DELAY-3
0939+  03C3             L_03C3:
0940+  03C3 10 FE           DJNZ L_03C3
0941+  03C5 0D              DEC C
0942+  03C6 20 EE           JR NZ,L_03B6
0943+  03C8             
0944+  03C8             ; DELAY-4
0945+  03C8             L_03C8:
0946+  03C8 A7              AND A
0947+  03C9 10 FD           DJNZ L_03C8
0948+  03CB 18 E0           JR L_03AD
0949+  03CD             
0950+  03CD             ; --------------------------
0951+  03CD             ; THE 'LOAD COMMAND' ROUTINE
0952+  03CD             ; --------------------------
0953+  03CD             
0954+  03CD             ; LOAD
0955+  03CD             SUB_03CD:
0956+  03CD CD 35 04        CALL SUB_0435                       ; Routine NAME
0957+  03D0                                                     ; DE points to start of name in RAM
0958+  03D0 CB 12           RL D                                ; Pick up carry
0959+  03D2 CB 0A           RRC D                               ; Carry now in bit 7
0960+  03D4             
0961+  03D4             ; NEXT-PROG
0962+  03D4             L_03D4:
0963+  03D4 CD D9 03        CALL SUB_03D9                       ; routine IN-BYTE
0964+  03D7 18 FB           JR L_03D4                           ; loop to NEXT-PROG
0965+  03D9             
0966+  03D9             ; ------------------------
0967+  03D9             ; THE 'IN-BYTE' SUBROUTINE
0968+  03D9             ; ------------------------
0969+  03D9             
0970+  03D9             ; IN-BYTE
0971+  03D9             SUB_03D9:
0972+  03D9 0E 01           LD C,$01                            ; Byte counter
0973+  03DB             
0974+  03DB             ; NEXT-BIT
0975+  03DB             L_03DB:
0976+  03DB 06 00           LD B,$00                            ; Loop 256 times
0977+  03DD             
0978+  03DD             ; BREAK-3
0979+  03DD             L_03DD:
0980+  03DD 3E 7F           LD A,$7F                            ; Check the space key
0981+  03DF DB FE           IN A,($FE)                          ;
0982+  03E1 D3 FF           OUT ($FF),A                         ; IO Write triggers VYsnc pulses on screen
0983+  03E3 1F              RRA                                 ; check for space pressed (bit 0->Carry)
0984+  03E4 30 49           JR NC,L_042F                        ; to BREAK-4 if so
0985+  03E6 17              RLA                                 ; Carry->bit 0
0986+  03E7 17              RLA                                 ; bit 7->Carry
0987+  03E8 38 28           JR C,L_0412                         ; Forward to GET-BIT if there is data
0988+  03EA 10 F1           DJNZ L_03DD                         ; Loop back and keep checking
0989+  03EC F1              POP AF                              ; Drop return address
0990+  03ED BA              CP D                                ; But A holds the value from port FE?
0991+  03EE             
0992+  03EE             ; RESTART
0993+  03EE             L_03EE:
0994+  03EE D2 A3 04        JP NC,L_04A3
0995+  03F1 62              LD H,D
0996+  03F2 6B              LD L,E
0997+  03F3             
0998+  03F3             ; IN-NAME
0999+  03F3             L_03F3:
1000+  03F3 CD D9 03        CALL SUB_03D9
1001+  03F6 CB 7A           BIT 7,D
1002+  03F8 79              LD A,C
1003+  03F9 20 03           JR NZ,L_03FE
1004+  03FB BE              CP (HL)
1005+  03FC 20 D6           JR NZ,L_03D4
1006+  03FE             
1007+  03FE             ; MATCHING
1008+  03FE             L_03FE:
1009+  03FE 23              INC HL
1010+  03FF 17              RLA
1011+  0400 30 F1           JR NC,L_03F3
1012+  0402 FD 34 15        INC (IY+$15)
1013+  0405 21 09 40        LD HL,$4009
1014+  0408             
1015+  0408             ; IN-PROG
1016+  0408             L_0408:
1017+  0408 50              LD D,B
1018+  0409 CD D9 03        CALL SUB_03D9
1019+  040C 71              LD (HL),C
1020+  040D CD 16 02        CALL SUB_0216
1021+  0410 18 F6           JR L_0408
1022+  0412             
1023+  0412             ; GET-BIT
1024+  0412             L_0412:
1025+  0412 D5              PUSH DE
1026+  0413 1E 94           LD E,$94
1027+  0415             
1028+  0415             ; TRAILER
1029+  0415             L_0415:
1030+  0415 06 1A           LD B,$1A
1031+  0417             
1032+  0417             ; COUNTER
1033+  0417             L_0417:
1034+  0417 1D              DEC E
1035+  0418 DB FE           IN A,($FE)
1036+  041A 17              RLA
1037+  041B CB 7B           BIT 7,E
1038+  041D 7B              LD A,E
1039+  041E 38 F5           JR C,L_0415
1040+  0420 10 F5           DJNZ L_0417
1041+  0422 D1              POP DE
1042+  0423 20 04           JR NZ,L_0429
1043+  0425 FE 56           CP $56
1044+  0427 30 B2           JR NC,L_03DB
1045+  0429             
1046+  0429             ; BIT-DONE
1047+  0429             L_0429:
1048+  0429 3F              CCF
1049+  042A CB 11           RL C
1050+  042C 30 AD           JR NC,L_03DB
1051+  042E C9              RET
1052+  042F             
1053+  042F             ; BREAK-4
1054+  042F             L_042F:
1055+  042F 7A              LD A,D                              ; Get D
1056+  0430 A7              AND A                               ; Test it
1057+  0431 28 BB           JR Z,L_03EE                         ; If there has been data, then restart
1058+  0433             
1059+  0433             ; REPORT-D
1060+  0433             L_0433:
1061+  0433 CF              RST 08H                             ; ERROR-1
1062+  0434 0C              .BYTE $0C                           ; Error Report: BREAK - CONT repeats
1063+  0435             
1064+  0435             ; -----------------------------
1065+  0435             ; THE 'PROGRAM NAME' SUBROUTINE
1066+  0435             ; -----------------------------
1067+  0435             
1068+  0435             ; NAME
1069+  0435             SUB_0435:
1070+  0435 CD 4A 11        CALL SUB_114A                       ; routine SCANNING
1071+  0438 3A 01 40        LD A,($4001)
1072+  043B 87              ADD A,A
1073+  043C FA 17 0F        JP M,L_0F17                         ; to REPORT-C - Invalid Expression
1074+  043F E1              POP HL
1075+  0440 D0              RET NC
1076+  0441 E5              PUSH HL
1077+  0442 CD 70 03        CALL SUB_0370                       ; routine SET-FAST
1078+  0445 CD ED 15        CALL SUB_15ED                       ; routine STK-FETCH
1079+  0448 62              LD H,D
1080+  0449 6B              LD L,E
1081+  044A 0D              DEC C
1082+  044B F8              RET M
1083+  044C 09              ADD HL,BC
1084+  044D CB FE           SET 7,(HL)
1085+  044F C9              RET
1086+  0450             
1087+  0450             ; --------------------------
1088+  0450             ; THE 'MAKE A NOISE' ROUTINE
1089+  0450             ; --------------------------
1090+  0450             
1091+  0450             ; MAKE-NOISE
1092+  0450             SUB_0450:
1093+  0450 1E 20           LD E,$20                            ; note = 32500/32 = 1.02KHz
1094+  0452 01 00 18        LD BC,$1800                         ; duration = 6144/65 = 94ms
1095+  0455 18 09           JR L_0460                           ; Routine PLAY-NOTE
1096+  0457             
1097+  0457             ; ----------------------------
1098+  0457             ; THE 'SOUND' COMMAND ROUTINE
1099+  0457             ; ----------------------------
1100+  0457             
1101+  0457             ; SOUND
1102+  0457             SUB_0457:
1103+  0457 CD 88 10        CALL SUB_1088                       ; routine FIND-INT => BC
1104+  045A C5              PUSH BC
1105+  045B CD 83 10        CALL SUB_1083                       ; routine FIND-SHORT => A
1106+  045E C1              POP BC
1107+  045F 5F              LD E,A                              ; INT => E
1108+  0460             
1109+  0460             ; PLAY-NOTE
1110+  0460             ; E = note, defined as 32500Hz/E, so (0=256=>127Hz) to (1=>32.5KHz)
1111+  0460             ; BC = duration, defined as BC/65ms, so (1=>15ms) to (0=65536=>1 second)
1112+  0460             ; Appox 4 times slower in SLOW mode
1113+  0460             L_0460:
1114+  0460 DB F5           IN A,($F5)                          ; Toggle beeper on read of $F5
1115+  0462 53              LD D,E                              ; Note
1116+  0463             ; PLAY-NOTE-2
1117+  0463             L_0463:
1118+  0463 0B              DEC BC                              ; Duration
1119+  0464 78              LD A,B
1120+  0465 B1              OR C
1121+  0466 C8              RET Z                               ; Return when BC=0
1122+  0467 15              DEC D
1123+  0468 28 F6           JR Z,L_0460                         ; Toggle speaker when note countdown complete
1124+  046A 00              NOP
1125+  046B 00              NOP
1126+  046C 18 F5           JR L_0463                           ; Loop until complete
1127+  046E             
1128+  046E             
1129+  046E             ; ---------------
1130+  046E             ; START CONTINUED
1131+  046E             ; ---------------
1132+  046E             
1133+  046E             ; START-3
1134+  046E             L_046E:
1135+  046E 1F              RRA                                 ; A was read from FE, column 0 -> C
1136+  046F 2F              CPL
1137+  0470 32 06 40        LD ($4006),A                        ; set mode
1138+  0473 01 FF BF        LD BC,$BFFF                         ; top of possible RAM, making max RAM 32K
1139+  0476 30 11           JR NC,L_0489                        ; skip RAM test if key in column 0 held? autostart expansion ROM?
1140+  0478 3A 7D 40        LD A,(DFILE)                        ; check of there is a DFILE
1141+  047B FE 76           CP $76                              ; should start with a NL/HALT
1142+  047D 20 0A           JR NZ,L_0489                        ; no DFILE, so do a cold start
1143+  047F 28 3F           JR Z,L_04C0                         ; DFILE present, warm start, skip RAM test
1144+  0481             
1145+  0481             ; -------------------------
1146+  0481             ; THE 'NEW' COMMAND ROUTINE
1147+  0481             ; -------------------------
1148+  0481             
1149+  0481             ; NEW
1150+  0481             SUB_0481:
1151+  0481 CD 70 03        CALL SUB_0370                       ; Set FAST mode
1152+  0484 ED 4B 04 40     LD BC,($4004)                       ; RAMTOP top of detected / protected RAM
1153+  0488 0B              DEC BC
1154+  0489             
1155+  0489             ; -----------------------
1156+  0489             ; THE 'RAM CHECK' ROUTINE
1157+  0489             ; -----------------------
1158+  0489             
1159+  0489             ; RAM-CHECK
1160+  0489             L_0489:
1161+  0489 60              LD H,B                              ; HL = BC = last byte to test
1162+  048A 69              LD L,C
1163+  048B 3E 3F           LD A,$3F                            ; stop point, check RAM down to $4000
1164+  048D             
1165+  048D             ; RAM-FILL
1166+  048D             L_048D:
1167+  048D 36 02           LD (HL),$02                         ; write 2 to every address in RAM.
1168+  048F 2B              DEC HL
1169+  0490 BC              CP H                                ; stop when H=A=$3F
1170+  0491 20 FA           JR NZ,L_048D
1171+  0493             
1172+  0493             ; RAM-READ
1173+  0493             L_0493:
1174+  0493 A7              AND A                               ; reset carry flag
1175+  0494 ED 42           SBC HL,BC                           ; Compare HL and BC
1176+  0496 09              ADD HL,BC                           ;
1177+  0497 23              INC HL                              ; HL = 4000 - what was the point in all that?
1178+  0498 30 06           JR NC,L_04A0                        ; if HL=BC, we're finished?
1179+  049A 35              DEC (HL)                            ; Decrement RAM
1180+  049B 28 03           JR Z,L_04A0                         ; Test if RAM was 1, but it would be picked up by the next test anyway?
1181+  049D                                                     ; I wonder if this was original a test for mirrors? but it doesn't do that now
1182+  049D 35              DEC (HL)                            ; Decrement RAM
1183+  049E 28 F3           JR Z,L_0493                         ; It was 2 previously, zero now, good RAM, keep checking
1184+  04A0             
1185+  04A0             ; SET-TOP
1186+  04A0             L_04A0:
1187+  04A0 22 04 40        LD ($4004),HL                       ; Set RAMTOP, top of usable RAM
1188+  04A3             
1189+  04A3             ; ----------------------------------
1190+  04A3             ; THE 'DFILE INITIALIZATION' ROUTINE
1191+  04A3             ; ----------------------------------
1192+  04A3             
1193+  04A3             ; INIT-DFILE
1194+  04A3             L_04A3:
1195+  04A3 21 97 43        LD HL,$4397                         ; Set VARS, starts of variable area
1196+  04A6 22 10 40        LD ($4010),HL                       ; VARS = $4397 - fixed location after DFILE
1197+  04A9 2B              DEC HL                              ; HL = 4396, start of program
1198+  04AA 36 FF           LD (HL),$FF
1199+  04AC             L_04AC:
1200+  04AC 22 0C 40        LD ($400C),HL                       ; Set PRGRM
1201+  04AF             
1202+  04AF             ; CREATE-DFILE
1203+  04AF 0E 19           LD C,$19                            ; 24 lines + 1 extra NL
1204+  04B1 AF              XOR A                               ; A = 0 = Space
1205+  04B2             
1206+  04B2             ; NEXT-LINE
1207+  04B2             L_04B2:
1208+  04B2 2B              DEC HL
1209+  04B3 36 76           LD (HL),$76                         ; start / end with newline / halt
1210+  04B5 0D              DEC C                               ; line counter
1211+  04B6 28 08           JR Z,L_04C0                         ; finished?
1212+  04B8             
1213+  04B8             ; FILL-LINE
1214+  04B8 06 20           LD B,$20                            ; fill line with 32 spaces
1215+  04BA             L_04BA:
1216+  04BA 2B              DEC HL                              ; step backwards
1217+  04BB 77              LD (HL),A                           ; write a space
1218+  04BC 10 FC           DJNZ L_04BA                         ; loop until done
1219+  04BE 18 F2           JR L_04B2                           ; back for more
1220+  04C0             
1221+  04C0             ; ----------------------------
1222+  04C0             ; THE 'INITIALIZATION' ROUTINE
1223+  04C0             ; ----------------------------
1224+  04C0             
1225+  04C0             ; INITIAL
1226+  04C0             L_04C0:
1227+  04C0 2A 04 40        LD HL,($4004)                       ; Get RAMTOP
1228+  04C3 2B              DEC HL                              ; Move to last system byte
1229+  04C4 36 3E           LD (HL),$3E                         ; Set GOSUB end marker
1230+  04C6 2B              DEC HL                              ; Move down again
1231+  04C7 F9              LD SP,HL                            ; Set stack here
1232+  04C8 2B              DEC HL                              ; Move to first location in stack
1233+  04C9 2B              DEC HL                              ;
1234+  04CA 22 02 40        LD ($4002),HL                       ; Set error stack pointer ERR_SP
1235+  04CD                                                     ; I register is setup here on ZX81, not used on the Lambda,
1236+  04CD                                                     ; The character ROM is inside the ULA
1237+  04CD ED 56           IM 1                                ; Z80 interrupt mode 1
1238+  04CF FD 21 00 40     LD IY,$4000                         ; Set IY to start of SYS VARS to make access easier
1239+  04D3 FD 36 3B 40     LD (IY+$3B),$40                     ; CDFLAG - compute and display mode requested
1240+  04D7 FD 36 21 19     LD (IY+$21),$19                     ; Set TEMPO to 25 (25*3.94ms = ~ 100ms)
1241+  04DB AF              XOR A                               ; Clear more flags
1242+  04DC 32 19 40        LD ($4019),A                        ; X_PTR_lo = 0
1243+  04DF 32 2D 40        LD ($402D),A                        ; FLAGX = 0
1244+  04E2 32 01 40        LD ($4001),A                        ; FLAGS = 0
1245+  04E5 32 7C 40        LD ($407C),A                        ; SPARE3 = 0
1246+  04E8 3D              DEC A                               ; A now $FF
1247+  04E9 32 35 40        LD ($4035),A                        ; FRAMES_lo = $FF
1248+  04EC CD 92 16        CALL SUB_1692                       ; CLEAR
1249+  04EF CD 50 04        CALL SUB_0450                       ; MAKE-NOISE
1250+  04F2 CD 85 02        CALL SUB_0285                       ; SLOW-FAST to set SLOW mode
1251+  04F5 3A 06 40        LD A,($4006)                        ; check mode
1252+  04F8 1F              RRA
1253+  04F9 DA 00 20        JP C,$2000                          ; autostart expansion ROM?
1254+  04FC             
1255+  04FC             L_04FC:
1256+  04FC CD A5 16        CALL SUB_16A5                       ; CURSOR-IN, set cursor on edit line
1257+  04FF             
1258+  04FF             ; ---------------------------
1259+  04FF             ; THE 'BASIC LISTING' SECTION
1260+  04FF             ; ---------------------------
1261+  04FF             
1262+  04FF             ; UPPER
1263+  04FF             L_04FF:
1264+  04FF CD D0 0B        CALL SUB_0BD0                       ; CLS
1265+  0502 2A 29 40        LD HL,($4029)                       ; E.PPC line number with cursor on (was $400A on ZX81)
1266+  0505 ED 5B 23 40     LD DE,($4023)
1267+  0509 A7              AND A
1268+  050A ED 52           SBC HL,DE
1269+  050C EB              EX DE,HL
1270+  050D 30 04           JR NC,L_0513
1271+  050F 19              ADD HL,DE
1272+  0510 22 23 40        LD ($4023),HL
1273+  0513             
1274+  0513             ; ADDR-TOP
1275+  0513             L_0513:
1276+  0513 CD 6A 0B        CALL SUB_0B6A
1277+  0516 28 01           JR Z,L_0519
1278+  0518 EB              EX DE,HL
1279+  0519             
1280+  0519             ; LIST-TOP
1281+  0519             L_0519:
1282+  0519 CD CD 08        CALL SUB_08CD
1283+  051C FD 35 1E        DEC (IY+$1E)
1284+  051F 20 37           JR NZ,L_0558                        ; routine LOWER
1285+  0521 2A 29 40        LD HL,($4029)                       ; E.PPC line number with cursor on (was $400A on ZX81)
1286+  0524 CD 6A 0B        CALL SUB_0B6A
1287+  0527 2A 16 40        LD HL,($4016)
1288+  052A 37              SCF
1289+  052B ED 52           SBC HL,DE
1290+  052D 21 23 40        LD HL,$4023
1291+  0530 30 0B           JR NC,L_053D
1292+  0532 EB              EX DE,HL
1293+  0533 7E              LD A,(HL)
1294+  0534 23              INC HL
1295+  0535 ED A0           LDI
1296+  0537 12              LD (DE),A
1297+  0538 18 C5           JR L_04FF
1298+  053A             
1299+  053A             ; DOWN-KEY
1300+  053A             SUB_053A:
1301+  053A 21 29 40        LD HL,$4029                         ; E.PPC line number with cursor on (was $400A on ZX81)
1302+  053D             
1303+  053D             ; INC-LINE
1304+  053D             L_053D:
1305+  053D 5E              LD E,(HL)
1306+  053E 23              INC HL
1307+  053F 56              LD D,(HL)
1308+  0540 E5              PUSH HL
1309+  0541 EB              EX DE,HL
1310+  0542 23              INC HL
1311+  0543 CD 6A 0B        CALL SUB_0B6A
1312+  0546 CD 77 06        CALL SUB_0677
1313+  0549 E1              POP HL
1314+  054A             
1315+  054A             ; KEY-INPUT
1316+  054A             L_054A:
1317+  054A FD CB 2D 6E     BIT 5,(IY+$2D)
1318+  054E 20 08           JR NZ,L_0558                        ; routine LOWER
1319+  0550 72              LD (HL),D
1320+  0551 2B              DEC HL
1321+  0552 73              LD (HL),E
1322+  0553 18 AA           JR L_04FF
1323+  0555             
1324+  0555             ; ----------------------------
1325+  0555             ; THE 'EDIT LINE COPY' SECTION
1326+  0555             ; ----------------------------
1327+  0555             
1328+  0555             ; EDIT-INP
1329+  0555             L_0555:
1330+  0555 CD A5 16        CALL SUB_16A5                       ; CURSOR-IN, set cursor on edit line
1331+  0558             
1332+  0558             ; LOWER
1333+  0558             L_0558:
1334+  0558 2A 14 40        LD HL,($4014)
1335+  055B             
1336+  055B             ; EACH-CHAR
1337+  055B             L_055B:
1338+  055B 7E              LD A,(HL)
1339+  055C FE 7E           CP $7E
1340+  055E 20 08           JR NZ,L_0568
1341+  0560 01 06 00        LD BC,$0006
1342+  0563 CD F5 0B        CALL SUB_0BF5                       ; routine RECLAIM-2
1343+  0566 18 F3           JR L_055B
1344+  0568             
1345+  0568             ; END-LINE
1346+  0568             L_0568:
1347+  0568 FE 76           CP $76
1348+  056A 23              INC HL
1349+  056B 20 EE           JR NZ,L_055B
1350+  056D             
1351+  056D             ; EDIT-LINE
1352+  056D                                                     ; ZX81 sets K or L here - we don't have that
1353+  056D             
1354+  056D             ; EDIT-ROOM
1355+  056D             L_056D:
1356+  056D CD C2 0B        CALL SUB_0BC2                       ; routine LINE-ENDS
1357+  0570 2A 14 40        LD HL,($4014)                       ; Get E.LINE, the address of edit line
1358+  0573 FD 36 00 FF     LD (IY+$00),$FF                     ; Set error to $FF (OK)
1359+  0577 CD FC 08        CALL SUB_08FC                       ; routine COPY-LINE
1360+  057A FD CB 00 7E     BIT 7,(IY+$00)                      ; Check if there was an error
1361+  057E 20 0D           JR NZ,L_058D                        ; to DISPLAY-6 if OK
1362+  0580 3A 22 40        LD A,($4022)                        ; check DF.SZ, size of editor section
1363+  0583 FE 18           CP $18                              ; is it >24 lines
1364+  0585 30 06           JR NC,L_058D                        ; to DISPLAY-6
1365+  0587 3C              INC A                               ; add a line
1366+  0588 32 22 40        LD ($4022),A                        ; update value
1367+  058B 18 E0           JR L_056D                           ; simplified loop back compared to ZX81
1368+  058D             
1369+  058D             ; --------------------------
1370+  058D             ; THE 'WAIT FOR KEY' SECTION
1371+  058D             ; --------------------------
1372+  058D             
1373+  058D             ; DISPLAY-6
1374+  058D             L_058D:
1375+  058D 21 00 00        LD HL,$0000                         ; clear X.PTR   - Addess of character before syntax error
1376+  0590 22 18 40        LD ($4018),HL                       ;
1377+  0593 21 3B 40        LD HL,$403B                         ; get CDFLAGS
1378+  0596 CB 7E           BIT 7,(HL)                          ; check FAST/SLOW mode
1379+  0598 CC 93 02        CALL Z,SUB_0293                     ; routine PRE-DISPLAY-1 if FAST
1380+  059B             
1381+  059B             ; SLOW-DISP
1382+  059B             L_059B:
1383+  059B CB 46           BIT 0,(HL)
1384+  059D 28 FC           JR Z,L_059B                         ; Loop unti bit 0 of (HL) is 1
1385+  059F ED 4B 25 40     LD BC,($4025)
1386+  05A3 CD 40 11        CALL SUB_1140                       ; routine DEBOUNCE
1387+  05A6 CD 5E 09        CALL SUB_095E                       ; routine DECODE
1388+  05A9 30 AD           JR NC,L_0558                        ; routine LOWER
1389+  05AB FD CB 3B 6E     BIT 5,(IY+$3B)                      ; Check if we should beep
1390+  05AF 20 1D           JR NZ,L_05CE
1391+  05B1             
1392+  05B1             ; KEY-BEEP
1393+  05B1 D5              PUSH DE                             ; Save DE and HL
1394+  05B2 E5              PUSH HL
1395+  05B3 CD 70 03        CALL SUB_0370                       ; routine SET-FAST
1396+  05B6 C6 14           ADD A,$14                           ; add $14 to the key value
1397+  05B8 5F              LD E,A                              ; set the note to that
1398+  05B9 01 CE 04        LD BC,$04CE                         ; set the duration to 18.9ms
1399+  05BC FD CB 28 6E     BIT 5,(IY+$28)                      ; test bit 5 of MARGIN to check region
1400+  05C0 20 03           JR NZ,L_05C5                        ; skip if PAL
1401+  05C2 01 06 04        LD BC,$0406                         ; change duration to 15.9ms
1402+  05C5             L_05C5:
1403+  05C5 CD 60 04        CALL L_0460                         ; Routine PLAY-NOTE
1404+  05C8 CD 85 02        CALL SUB_0285                       ; FAST/SLOW
1405+  05CB E1              POP HL                              ; restore DE and HL
1406+  05CC D1              POP DE
1407+  05CD 7B              LD A,E                              ; and A is restored to what it was + $14 (is that intentional?)
1408+  05CE             
1409+  05CE             ; variation on FETCH-2
1410+  05CE             L_05CE:
1411+  05CE FD CB 01 56     BIT 2,(IY+$01)                      ; Check FLAG K mode = 0, L = 1
1412+  05D2 28 08           JR Z,L_05DC                         ; skip for K mode
1413+  05D4 FE 28           CP $28                              ; check for ?
1414+  05D6 38 1A           JR C,L_05F2                         ; skip
1415+  05D8 21 A1 00        LD HL,$00A1
1416+  05DB 19              ADD HL,DE
1417+  05DC             
1418+  05DC             ; FETCH-3
1419+  05DC             L_05DC:
1420+  05DC 7E              LD A,(HL)
1421+  05DD             
1422+  05DD             ; TEST-CURS
1423+  05DD             L_05DD:
1424+  05DD FE F0           CP $F0
1425+  05DF EA FB 05        JP PE,L_05FB                        ; routine KEY-SORT
1426+  05E2             
1427+  05E2             ; ENTER
1428+  05E2 5F              LD E,A
1429+  05E3 CD 05 06        CALL SUB_0605                       ; routine CURSOR
1430+  05E6 7B              LD A,E
1431+  05E7 CD ED 05        CALL SUB_05ED                       ; routine ADD-CHAR
1432+  05EA             
1433+  05EA             ; BACK-NEXT
1434+  05EA             L_05EA:
1435+  05EA C3 58 05        JP L_0558                           ; back to LOWER
1436+  05ED             
1437+  05ED             ; ------------------------------
1438+  05ED             ; THE 'ADD CHARACTER' SUBROUTINE
1439+  05ED             ; ------------------------------
1440+  05ED             
1441+  05ED             ; ADD-CHAR
1442+  05ED             SUB_05ED:
1443+  05ED CD 2D 0B        CALL SUB_0B2D
1444+  05F0 12              LD (DE),A
1445+  05F1 C9              RET
1446+  05F2             
1447+  05F2             ; more variation on FETCH-2
1448+  05F2             L_05F2:
1449+  05F2 7E              LD A,(HL)
1450+  05F3 FE 76           CP $76                              ; check for NEWLINE
1451+  05F5 CB FF           SET 7,A
1452+  05F7 20 E4           JR NZ,L_05DD                        ; routine TEST-CURS
1453+  05F9 3E 78           LD A,$78
1454+  05FB             
1455+  05FB             ; KEY-SORT
1456+  05FB             L_05FB:
1457+  05FB 5F              LD E,A                              ; DE = key
1458+  05FC 21 38 05        LD HL,L_0618 - $E0                  ; reference to ED-KEYS table
1459+  05FF 19              ADD HL,DE                           ; HL = table base - $E0 + 2x key
1460+  0600 19              ADD HL,DE
1461+  0601 4E              LD C,(HL)                           ; BC = function address
1462+  0602 23              INC HL
1463+  0603 46              LD B,(HL)
1464+  0604 C5              PUSH BC                             ; push handler function onto stack
1465+  0605             
1466+  0605             ; CURSOR
1467+  0605             SUB_0605:
1468+  0605 2A 14 40        LD HL,($4014)
1469+  0608             
1470+  0608             ; cut down version of TEST-CHAR
1471+  0608             L_0608:
1472+  0608 7E              LD A,(HL)
1473+  0609 FE 7F           CP $7F
1474+  060B C8              RET Z
1475+  060C 23              INC HL
1476+  060D CD 55 09        CALL SUB_0955
1477+  0610 18 F6           JR L_0608
1478+  0612             
1479+  0612             ; --------------------------
1480+  0612             ; THE 'CLEAR-ONE' SUBROUTINE
1481+  0612             ; --------------------------
1482+  0612             
1483+  0612             ; CLEAR-ONE
1484+  0612             SUB_0612:
1485+  0612 01 01 00        LD BC,$0001
1486+  0615 C3 F5 0B        JP SUB_0BF5                         ; routine RECLAIM-2
1487+  0618             
1488+  0618             ; ------------------------
1489+  0618             ; THE 'EDITING KEYS' TABLE
1490+  0618             ; ------------------------
1491+  0618             
1492+  0618             ; ED-KEYS
1493+  0618             L_0618:
1494+  0618 57 06           .WORD SUB_0657                      ; UP_KEY
1495+  061A 3A 05           .WORD SUB_053A                      ; DOWN-KEY
1496+  061C 2E 06           .WORD SUB_062E                      ; LEFT-KEY
1497+  061E 37 06           .WORD SUB_0637                      ; RIGHT-KEY
1498+  0620 67 06           .WORD SUB_0667                      ; SET-L-MODE
1499+  0622 80 06           .WORD SUB_0680                      ; EDIT-KEY
1500+  0624 13 07           .WORD SUB_0713                      ; NEWLINE-KEY
1501+  0626 43 06           .WORD SUB_0643                      ; RUBOUT
1502+  0628 6D 06           .WORD SUB_066D                      ; SET-K-MODE
1503+  062A 00 07           .WORD SUB_0700                      ; FUNCTION
1504+  062C C8 06           .WORD SUB_06C8                      ; FUNCTION
1505+  062E             
1506+  062E             ; -------------------------
1507+  062E             ; THE 'CURSOR LEFT' ROUTINE
1508+  062E             ; -------------------------
1509+  062E             
1510+  062E             ; LEFT-KEY
1511+  062E             SUB_062E:
1512+  062E CD 4B 06        CALL SUB_064B                       ; routine LEFT-EDGE
1513+  0631 7E              LD A,(HL)
1514+  0632 36 7F           LD (HL),$7F
1515+  0634 23              INC HL
1516+  0635 18 09           JR L_0640
1517+  0637             
1518+  0637             ; --------------------------
1519+  0637             ; THE 'CURSOR RIGHT' ROUTINE
1520+  0637             ; --------------------------
1521+  0637             
1522+  0637             ; RIGHT-KEY
1523+  0637             SUB_0637:
1524+  0637 23              INC HL
1525+  0638 7E              LD A,(HL)
1526+  0639 FE 76           CP $76
1527+  063B 28 18           JR Z,L_0655                         ; routine ENDED-2
1528+  063D 36 7F           LD (HL),$7F
1529+  063F 2B              DEC HL
1530+  0640             
1531+  0640             ; GET-CODE
1532+  0640             L_0640:
1533+  0640 77              LD (HL),A
1534+  0641             
1535+  0641             ; ENDED-1
1536+  0641             L_0641:
1537+  0641 18 A7           JR L_05EA
1538+  0643             
1539+  0643             ; --------------------
1540+  0643             ; THE 'RUBOUT' ROUTINE
1541+  0643             ; --------------------
1542+  0643             
1543+  0643             ; RUBOUT
1544+  0643             SUB_0643:
1545+  0643 CD 4B 06        CALL SUB_064B
1546+  0646 CD 12 06        CALL SUB_0612
1547+  0649 18 F6           JR L_0641
1548+  064B             
1549+  064B             ; ------------------------
1550+  064B             ; THE 'ED-EDGE' SUBROUTINE
1551+  064B             ; ------------------------
1552+  064B             
1553+  064B             ; LEFT-EDGE
1554+  064B             SUB_064B:
1555+  064B 2B              DEC HL
1556+  064C ED 5B 14 40     LD DE,($4014)
1557+  0650 1A              LD A,(DE)
1558+  0651 FE 7F           CP $7F
1559+  0653 C0              RET NZ
1560+  0654 D1              POP DE
1561+  0655             
1562+  0655             ; ENDED-2
1563+  0655             L_0655:
1564+  0655 18 EA           JR L_0641
1565+  0657             
1566+  0657             ; -----------------------
1567+  0657             ; THE 'CURSOR UP' ROUTINE
1568+  0657             ; -----------------------
1569+  0657             
1570+  0657             ; UP-KEY
1571+  0657             SUB_0657:
1572+  0657 2A 29 40        LD HL,($4029)                       ; E.PPC line number with cursor on (was $400A on ZX81)
1573+  065A CD 6A 0B        CALL SUB_0B6A
1574+  065D EB              EX DE,HL
1575+  065E CD 77 06        CALL SUB_0677
1576+  0661 21 2A 40        LD HL,$402A
1577+  0664 C3 4A 05        JP L_054A
1578+  0667             
1579+  0667             
1580+  0667             ; --------------------------
1581+  0667             ; THE 'FUNCTION KEY' ROUTINE
1582+  0667             ; --------------------------
1583+  0667             
1584+  0667             ; Alternatives to the FUNCTION key routine
1585+  0667             
1586+  0667             ; SET-L-MODE
1587+  0667             SUB_0667:
1588+  0667 FD CB 01 D6     SET 2,(IY+$01)                      ; Enter L mode
1589+  066B 18 E8           JR L_0655
1590+  066D             
1591+  066D             ; SET-K-MODE
1592+  066D             SUB_066D:
1593+  066D FD CB 01 96     RES 2,(IY+$01)                      ; Enter K mode
1594+  0671 18 E2           JR L_0655
1595+  0673             
1596+  0673             ; ------------------------------------
1597+  0673             ; THE 'COLLECT LINE NUMBER' SUBROUTINE
1598+  0673             ; ------------------------------------
1599+  0673             
1600+  0673             ; ZERO-DE
1601+  0673             L_0673:
1602+  0673 EB              EX DE,HL
1603+  0674 11 8E 05        LD DE,L_058D+1                      ; Points to code containing $0000
1604+  0677             
1605+  0677             ; LINE-NO
1606+  0677             SUB_0677:
1607+  0677 7E              LD A,(HL)
1608+  0678 E6 C0           AND $C0
1609+  067A 20 F7           JR NZ,L_0673
1610+  067C 56              LD D,(HL)
1611+  067D 23              INC HL
1612+  067E 5E              LD E,(HL)
1613+  067F C9              RET
1614+  0680             
1615+  0680             ; ----------------------
1616+  0680             ; THE 'EDIT KEY' ROUTINE
1617+  0680             ; ----------------------
1618+  0680             
1619+  0680             ; EDIT-KEY
1620+  0680             SUB_0680:
1621+  0680 CD C2 0B        CALL SUB_0BC2                       ; routine LINE-ENDS
1622+  0683 21 55 05        LD HL,L_0555                        ; routine EDIT-INP
1623+  0686 E5              PUSH HL
1624+  0687 FD CB 2D 6E     BIT 5,(IY+$2D)
1625+  068B C0              RET NZ
1626+  068C 2A 14 40        LD HL,($4014)
1627+  068F 22 0E 40        LD ($400E),HL
1628+  0692 21 21 18        LD HL,$1821
1629+  0695 22 39 40        LD ($4039),HL
1630+  0698 2A 29 40        LD HL,($4029)                       ; E.PPC line number with cursor on (was $400A on ZX81)
1631+  069B CD 6A 0B        CALL SUB_0B6A
1632+  069E CD 77 06        CALL SUB_0677
1633+  06A1 7A              LD A,D
1634+  06A2 B3              OR E
1635+  06A3 C8              RET Z
1636+  06A4 2B              DEC HL
1637+  06A5 CD 35 0C        CALL SUB_0C35
1638+  06A8 23              INC HL
1639+  06A9 4E              LD C,(HL)
1640+  06AA 23              INC HL
1641+  06AB 46              LD B,(HL)
1642+  06AC 23              INC HL
1643+  06AD ED 5B 0E 40     LD DE,($400E)
1644+  06B1 3E 7F           LD A,$7F
1645+  06B3 12              LD (DE),A
1646+  06B4 13              INC DE
1647+  06B5 E5              PUSH HL
1648+  06B6 21 1D 00        LD HL,$001D
1649+  06B9 19              ADD HL,DE
1650+  06BA 09              ADD HL,BC
1651+  06BB ED 72           SBC HL,SP
1652+  06BD E1              POP HL
1653+  06BE D0              RET NC
1654+  06BF ED B0           LDIR
1655+  06C1 EB              EX DE,HL
1656+  06C2             L_06C2:
1657+  06C2 D1              POP DE
1658+  06C3 CD 9E 16        CALL SUB_169E
1659+  06C6             L_06C6:
1660+  06C6 18 8D           JR L_0655
1661+  06C8                                                     ; ZX81 dropped through to N/L-KEY here
1662+  06C8             
1663+  06C8             ; ----------------------
1664+  06C8             ; THE 'EDIT KEY' ROUTINE
1665+  06C8             ; ----------------------
1666+  06C8             
1667+  06C8             ; variation on EDIT-KEY
1668+  06C8             SUB_06C8:
1669+  06C8 FD CB 2D 6E     BIT 5,(IY+$2D)                      ; test FLAGX
1670+  06CC 20 F8           JR NZ,L_06C6                        ; jump back if in INPUT mode
1671+  06CE             
1672+  06CE 21 55 05        LD HL,L_0555                        ; address of EDIT-INP routine
1673+  06D1 E5              PUSH HL                             ; pushed onto stack
1674+  06D2             
1675+  06D2 2A 14 40        LD HL,($4014)                       ; fetch E-LINE
1676+  06D5 22 0E 40        LD ($400E),HL                       ; update cursor DF-CC
1677+  06D8             
1678+  06D8 21 21 18        LD HL,$1821                         ; line 0, column 0
1679+  06DB 22 39 40        LD ($4039),HL                       ; update S-POSN
1680+  06DE             
1681+  06DE 2A 29 40        LD HL,($4029)                       ; fetch E.PPC line number with cursor on (was $400A on ZX81)
1682+  06E1 01 0A 00        LD BC,0$0A
1683+  06E4 09              ADD HL,BC
1684+  06E5 44              LD B,H
1685+  06E6 4D              LD C,L
1686+  06E7 21 0F 27        LD HL,$270F
1687+  06EA A7              AND A
1688+  06EB ED 42           SBC HL,BC
1689+  06ED 30 03           JR NC,L_06F2
1690+  06EF 01 0F 27        LD BC,$270F
1691+  06F2             L_06F2:
1692+  06F2 CD 2D 0C        CALL SUB_0C2D                       ; OUT-NUM, print line number
1693+  06F5 2A 0E 40        LD HL,($400E)
1694+  06F8 36 7F           LD (HL),$7F
1695+  06FA 23              INC HL
1696+  06FB 36 76           LD (HL),$76
1697+  06FD 23              INC HL
1698+  06FE 18 C2           JR L_06C2
1699+  0700             
1700+  0700             ; ?
1701+  0700             SUB_0700:
1702+  0700 21 2D 40        LD HL,$402D                         ; FLAGX
1703+  0703 CB 6E           BIT 5,(HL)                          ; check bit 5
1704+  0705 CA FC 04        JP Z,L_04FC
1705+  0708 CB AE           RES 5,(HL)
1706+  070A CD C2 0B        CALL SUB_0BC2                       ; routine LINE-ENDS
1707+  070D 21 00 40        LD HL,$4000
1708+  0710 C3 BC 07        JP L_07BC
1709+  0713             
1710+  0713             ; -------------------------
1711+  0713             ; THE 'NEWLINE KEY' ROUTINE
1712+  0713             ; -------------------------
1713+  0713             
1714+  0713             ; sort of N/L-KEY
1715+  0713             SUB_0713:
1716+  0713 CD C2 0B        CALL SUB_0BC2                       ; routine LINE-ENDS
1717+  0716 21 58 05        LD HL,L_0558                        ; routine LOWER
1718+  0719 FD CB 2D 6E     BIT 5,(IY+$2D)                      ; check FLAGS
1719+  071D 20 03           JR NZ,L_0722
1720+  071F 21 FF 04        LD HL,L_04FF                        ; routine UPPER
1721+  0722             
1722+  0722             L_0722:
1723+  0722 E5              PUSH HL
1724+  0723 CD 4A 08        CALL SUB_084A
1725+  0726 FD CB 2D 6E     BIT 5,(IY+$2D)
1726+  072A 20 0E           JR NZ,L_073A
1727+  072C 2A 14 40        LD HL,($4014)
1728+  072F 7E              LD A,(HL)
1729+  0730 FE FF           CP $FF
1730+  0732 28 06           JR Z,L_073A
1731+  0734 CD 81 0A        CALL SUB_0A81
1732+  0737 CD D0 0B        CALL SUB_0BD0                       ; CLS
1733+  073A             
1734+  073A             ; Similar to NOW_SCAN
1735+  073A             L_073A:
1736+  073A CD 3B 0E        CALL SUB_0E3B
1737+  073D E1              POP HL
1738+  073E CD 05 06        CALL SUB_0605
1739+  0741 CD 12 06        CALL SUB_0612
1740+  0744 CD 08 0C        CALL SUB_0C08
1741+  0747 20 14           JR NZ,L_075D
1742+  0749 78              LD A,B
1743+  074A B1              OR C
1744+  074B C2 09 08        JP NZ,L_0809
1745+  074E 0B              DEC BC
1746+  074F 0B              DEC BC
1747+  0750 ED 43 07 40     LD ($4007),BC
1748+  0754 FD 36 22 02     LD (IY+$22),$02
1749+  0758 11 7D 40        LD DE,DFILE                         ; Hard coded DFILE location
1750+  075B 18 13           JR L_0770
1751+  075D             
1752+  075D             ; N/L-INP
1753+  075D             L_075D:
1754+  075D FE 76           CP $76
1755+  075F 28 12           JR Z,L_0773
1756+  0761 ED 4B 30 40     LD BC,($4030)
1757+  0765 CD B7 0A        CALL SUB_0AB7                       ; routine LOC-ADDR
1758+  0768 ED 5B 0A 40     LD DE,($400A)
1759+  076C FD 36 22 02     LD (IY+$22),$02
1760+  0770             
1761+  0770             ; TEST-NULL
1762+  0770             L_0770:
1763+  0770 DF              RST 18H
1764+  0771 FE 76           CP $76
1765+  0773             
1766+  0773             ; N/L-NULL
1767+  0773             L_0773:
1768+  0773 CA FC 04        JP Z,L_04FC
1769+  0776 FD 36 01 81     LD (IY+$01),$81
1770+  077A EB              EX DE,HL
1771+  077B             
1772+  077B             ; NEXT-LINE
1773+  077B             L_077B:
1774+  077B 22 0A 40        LD ($400A),HL                       ; NXTLIN - Address of next line to be executed (ZX81 was $4029)
1775+  077E EB              EX DE,HL
1776+  077F CD 4E 00        CALL SUB_004E
1777+  0782 CD 42 0E        CALL SUB_0E42
1778+  0785 FD CB 01 8E     RES 1,(IY+$01)
1779+  0789 3E C0           LD A,$C0
1780+  078B FD 36 19 00     LD (IY+$19),$00
1781+  078F CD 9B 16        CALL SUB_169B
1782+  0792 FD CB 2D AE     RES 5,(IY+$2D)
1783+  0796 FD CB 00 7E     BIT 7,(IY+$00)
1784+  079A 28 22           JR Z,L_07BE
1785+  079C 2A 0A 40        LD HL,($400A)                       ; NXTLIN - Address of next line to be executed (ZX81 was $4029)
1786+  079F A6              AND (HL)
1787+  07A0 20 1C           JR NZ,L_07BE
1788+  07A2 56              LD D,(HL)
1789+  07A3 23              INC HL
1790+  07A4 5E              LD E,(HL)
1791+  07A5 ED 53 07 40     LD ($4007),DE
1792+  07A9 23              INC HL
1793+  07AA 5E              LD E,(HL)
1794+  07AB 23              INC HL
1795+  07AC 56              LD D,(HL)
1796+  07AD 23              INC HL
1797+  07AE EB              EX DE,HL
1798+  07AF 19              ADD HL,DE
1799+  07B0 CD 3B 11        CALL SUB_113B
1800+  07B3 38 C6           JR C,L_077B
1801+  07B5 21 00 40        LD HL,$4000
1802+  07B8 CB 7E           BIT 7,(HL)
1803+  07BA 28 02           JR Z,L_07BE
1804+  07BC             L_07BC:
1805+  07BC 36 0C           LD (HL),$0C
1806+  07BE             
1807+  07BE             ; STOP-LINE
1808+  07BE             L_07BE:
1809+  07BE FD CB 38 7E     BIT 7,(IY+$38)
1810+  07C2 CC 11 0A        CALL Z,SUB_0A11
1811+  07C5 01 21 01        LD BC,$0121
1812+  07C8 CD B7 0A        CALL SUB_0AB7                       ; routine LOC-ADDR
1813+  07CB 3A 00 40        LD A,($4000)
1814+  07CE ED 4B 07 40     LD BC,($4007)
1815+  07D2 3C              INC A
1816+  07D3 28 0C           JR Z,L_07E1
1817+  07D5 FE 09           CP $09
1818+  07D7 20 01           JR NZ,L_07DA
1819+  07D9 03              INC BC
1820+  07DA             
1821+  07DA             ; CONTINUE
1822+  07DA             L_07DA:
1823+  07DA ED 43 2B 40     LD ($402B),BC                       ; Set OLDPPC
1824+  07DE 20 01           JR NZ,L_07E1
1825+  07E0 0B              DEC BC
1826+  07E1             
1827+  07E1             ; REPORT (different to ZX81)
1828+  07E1             L_07E1:
1829+  07E1 07              RLCA                                ; a = 2 * error code
1830+  07E2 5F              LD E,A
1831+  07E3 16 00           LD D,$00
1832+  07E5 21 F2 01        LD HL,L_01F2                        ; address of error code table
1833+  07E8 19              ADD HL,DE                           ; HL = table + 2 * error code
1834+  07E9             
1835+  07E9 7E              LD A,(HL)                           ; print the first letter of the error code
1836+  07EA D7              RST 10H
1837+  07EB             
1838+  07EB 23              INC HL                              ; print the second letter of the error code
1839+  07EC 7E              LD A,(HL)
1840+  07ED D7              RST 10H
1841+  07EE             
1842+  07EE CB 78           BIT 7,B                             ; check bit 7 of return address (check for immediate mode?)
1843+  07F0 20 0E           JR NZ,L_0800
1844+  07F2             
1845+  07F2             ; IN_LINE
1846+  07F2 1E 04           LD E,$04                            ; 4 characters
1847+  07F4 21 12 02        LD HL,L_0212                        ; table containing " IN "
1848+  07F7             L_07F7:
1849+  07F7 7E              LD A,(HL)                           ; get character
1850+  07F8 23              INC HL
1851+  07F9 D7              RST 10H                             ; print character
1852+  07FA 1D              DEC E
1853+  07FB 20 FA           JR NZ,L_07F7                        ; loop until all done
1854+  07FD             
1855+  07FD CD 2D 0C        CALL SUB_0C2D                       ; OUT-NUM, print line number
1856+  0800             L_0800:
1857+  0800 CD A5 16        CALL SUB_16A5                       ; CURSOR-IN, set cursor on edit line
1858+  0803 CD 40 11        CALL SUB_1140                       ; routine DEBOUNCE
1859+  0806 C3 8D 05        JP L_058D
1860+  0809             
1861+  0809             ; N/L-LINE (sort of)
1862+  0809             L_0809:
1863+  0809 ED 43 29 40     LD ($4029),BC                       ; E.PPC line number with cursor on (was $400A on ZX81)
1864+  080D 2A 16 40        LD HL,($4016)
1865+  0810 EB              EX DE,HL
1866+  0811 21 FC 04        LD HL,L_04FC
1867+  0814 E5              PUSH HL
1868+  0815 2A 1A 40        LD HL,($401A)
1869+  0818 ED 52           SBC HL,DE
1870+  081A E5              PUSH HL
1871+  081B 60              LD H,B
1872+  081C 69              LD L,C
1873+  081D CD 6A 0B        CALL SUB_0B6A
1874+  0820 20 06           JR NZ,L_0828
1875+  0822 CD 84 0B        CALL SUB_0B84
1876+  0825 CD F5 0B        CALL SUB_0BF5                       ; routine RECLAIM-2
1877+  0828             
1878+  0828             ; COPY-OVER
1879+  0828             L_0828:
1880+  0828 C1              POP BC
1881+  0829 79              LD A,C
1882+  082A 3D              DEC A
1883+  082B B0              OR B
1884+  082C C8              RET Z
1885+  082D C5              PUSH BC
1886+  082E 03              INC BC
1887+  082F 03              INC BC
1888+  0830 03              INC BC
1889+  0831 03              INC BC
1890+  0832 CD 30 0B        CALL SUB_0B30                       ; MAKE-ROOM
1891+  0835 C1              POP BC
1892+  0836 C5              PUSH BC
1893+  0837 2A 1A 40        LD HL,($401A)
1894+  083A 2B              DEC HL
1895+  083B ED B8           LDDR
1896+  083D 2A 29 40        LD HL,($4029)                       ; E.PPC line number with cursor on (was $400A on ZX81)
1897+  0840 EB              EX DE,HL
1898+  0841 C1              POP BC
1899+  0842 70              LD (HL),B
1900+  0843 2B              DEC HL
1901+  0844 71              LD (HL),C
1902+  0845 2B              DEC HL
1903+  0846 73              LD (HL),E
1904+  0847 2B              DEC HL
1905+  0848 72              LD (HL),D
1906+  0849 C9              RET
1907+  084A             
1908+  084A             ; Not LLIST ?
1909+  084A             SUB_084A:
1910+  084A 2A 14 40        LD HL,($4014)
1911+  084D             L_084D:
1912+  084D 22 16 40        LD ($4016),HL
1913+  0850 DF              RST 18H
1914+  0851             L_0851:
1915+  0851 FE 0B           CP $0B
1916+  0853 20 0A           JR NZ,L_085F
1917+  0855             L_0855:
1918+  0855 E7              RST 20H
1919+  0856 FE 0B           CP $0B
1920+  0858 28 1B           JR Z,L_0875
1921+  085A FE 76           CP $76
1922+  085C C8              RET Z
1923+  085D 18 F6           JR L_0855
1924+  085F             L_085F:
1925+  085F FE 76           CP $76
1926+  0861 C8              RET Z
1927+  0862 11 F1 00        LD DE,L_00F1                        ; token table
1928+  0865 0E 00           LD C,$00
1929+  0867 18 0F           JR L_0878
1930+  0869             L_0869:
1931+  0869 1A              LD A,(DE)
1932+  086A CB 7F           BIT 7,A
1933+  086C 13              INC DE
1934+  086D 28 FA           JR Z,L_0869
1935+  086F 0C              INC C
1936+  0870 3E 45           LD A,$45
1937+  0872 B9              CP C
1938+  0873 30 03           JR NC,L_0878
1939+  0875             L_0875:
1940+  0875 E7              RST 20H
1941+  0876 18 D9           JR L_0851
1942+  0878             L_0878:
1943+  0878 2A 16 40        LD HL,($4016)
1944+  087B             L_087B:
1945+  087B 1A              LD A,(DE)
1946+  087C 47              LD B,A
1947+  087D E6 7F           AND $7F
1948+  087F BE              CP (HL)
1949+  0880 20 E7           JR NZ,L_0869
1950+  0882 23              INC HL
1951+  0883 13              INC DE
1952+  0884 CB 78           BIT 7,B
1953+  0886 28 F3           JR Z,L_087B
1954+  0888             L_0888:
1955+  0888 7E              LD A,(HL)
1956+  0889 A7              AND A
1957+  088A 20 03           JR NZ,L_088F
1958+  088C 23              INC HL
1959+  088D 18 F9           JR L_0888
1960+  088F             L_088F:
1961+  088F ED 5B 16 40     LD DE,($4016)
1962+  0893 22 16 40        LD ($4016),HL
1963+  0896 2A 14 40        LD HL,($4014)
1964+  0899 A7              AND A
1965+  089A             L_089A:
1966+  089A ED 52           SBC HL,DE
1967+  089C 19              ADD HL,DE
1968+  089D 30 06           JR NC,L_08A5
1969+  089F 1B              DEC DE
1970+  08A0 1A              LD A,(DE)
1971+  08A1 A7              AND A
1972+  08A2 28 F6           JR Z,L_089A
1973+  08A4 13              INC DE
1974+  08A5             L_08A5:
1975+  08A5 79              LD A,C
1976+  08A6 CB 77           BIT 6,A
1977+  08A8 20 02           JR NZ,L_08AC
1978+  08AA F6 C0           OR $C0
1979+  08AC             L_08AC:
1980+  08AC 12              LD (DE),A
1981+  08AD 13              INC DE
1982+  08AE 2A 16 40        LD HL,($4016)
1983+  08B1 F5              PUSH AF
1984+  08B2 CD F2 0B        CALL SUB_0BF2
1985+  08B5 F1              POP AF
1986+  08B6 FE EA           CP $EA
1987+  08B8 C8              RET Z
1988+  08B9 18 92           JR L_084D
1989+  08BB             
1990+  08BB             ; ---------------------------------------
1991+  08BB             ; THE 'LIST' AND 'LLIST' COMMAND ROUTINES
1992+  08BB             ; ---------------------------------------
1993+  08BB             
1994+  08BB             ; LLIST
1995+  08BB             SUB_08BB:
1996+  08BB FD CB 01 CE     SET 1,(IY+$01)
1997+  08BF             
1998+  08BF             ; LIST
1999+  08BF             SUB_08BF:
2000+  08BF CD 88 10        CALL SUB_1088
2001+  08C2 78              LD A,B
2002+  08C3 E6 3F           AND $3F
2003+  08C5 67              LD H,A
2004+  08C6 69              LD L,C
2005+  08C7 22 29 40        LD ($4029),HL                       ; E.PPC line number with cursor on (was $400A on ZX81)
2006+  08CA CD 6A 0B        CALL SUB_0B6A
2007+  08CD             
2008+  08CD             ; LIST-PROG
2009+  08CD             SUB_08CD:
2010+  08CD 1E 00           LD E,$00
2011+  08CF             
2012+  08CF             ; UNTIL-END
2013+  08CF             L_08CF:
2014+  08CF CD D4 08        CALL SUB_08D4
2015+  08D2 18 FB           JR L_08CF
2016+  08D4             
2017+  08D4             ; -----------------------------------
2018+  08D4             ; THE 'PRINT A BASIC LINE' SUBROUTINE
2019+  08D4             ; -----------------------------------
2020+  08D4             
2021+  08D4             ; OUT-LINE
2022+  08D4             SUB_08D4:
2023+  08D4 ED 4B 29 40     LD BC,($4029)                       ; E.PPC line number with cursor on (was $400A on ZX81)
2024+  08D8 CD 7C 0B        CALL SUB_0B7C
2025+  08DB 16 97           LD D,$97
2026+  08DD 28 05           JR Z,L_08E4
2027+  08DF 11 00 00        LD DE,$0000
2028+  08E2 CB 13           RL E
2029+  08E4             
2030+  08E4             ; TEST-END
2031+  08E4             L_08E4:
2032+  08E4 FD 73 1E        LD (IY+$1E),E
2033+  08E7 7E              LD A,(HL)
2034+  08E8 FE 40           CP $40
2035+  08EA C1              POP BC
2036+  08EB D0              RET NC
2037+  08EC C5              PUSH BC                             ; rest of function different to ZX81
2038+  08ED 22 16 40        LD ($4016),HL                       ; CH.ADD - Address of next character to interpret
2039+  08F0 CD 35 0C        CALL SUB_0C35
2040+  08F3 7A              LD A,D
2041+  08F4 D7              RST 10H
2042+  08F5 2A 16 40        LD HL,($4016)
2043+  08F8 23              INC HL
2044+  08F9 23              INC HL
2045+  08FA 23              INC HL
2046+  08FB 23              INC HL
2047+  08FC             
2048+  08FC             ; COPY-LINE
2049+  08FC             SUB_08FC:
2050+  08FC 22 16 40        LD ($4016),HL
2051+  08FF FD CB 01 C6     SET 0,(IY+$01)
2052+  0903             
2053+  0903             ; MORE-LINE
2054+  0903             L_0903:
2055+  0903 ED 4B 18 40     LD BC,($4018)
2056+  0907 2A 16 40        LD HL,($4016)
2057+  090A A7              AND A
2058+  090B ED 42           SBC HL,BC
2059+  090D 20 09           JR NZ,L_0918
2060+  090F 3E AA           LD A,$AA                            ; Inverse E
2061+  0911 D7              RST 10H                             ; print character
2062+  0912             
2063+  0912 CD 4D 09        CALL SUB_094D                       ; SET-CURSOR
2064+  0915 CD 50 04        CALL SUB_0450                       ; MAKE-NOISE
2065+  0918             
2066+  0918             ; TEST-NUM
2067+  0918             L_0918:
2068+  0918 2A 16 40        LD HL,($4016)
2069+  091B 7E              LD A,(HL)
2070+  091C 23              INC HL
2071+  091D CD 55 09        CALL SUB_0955
2072+  0920 22 16 40        LD ($4016),HL
2073+  0923 28 DE           JR Z,L_0903
2074+  0925 FE 7F           CP $7F
2075+  0927 28 10           JR Z,L_0939
2076+  0929 FE 76           CP $76
2077+  092B 28 62           JR Z,L_098F
2078+  092D CB 77           BIT 6,A
2079+  092F 28 05           JR Z,L_0936
2080+  0931 CD D7 0A        CALL SUB_0AD7
2081+  0934 18 CD           JR L_0903
2082+  0936             
2083+  0936             ; NOT-TOKEN
2084+  0936             L_0936:
2085+  0936 D7              RST 10H
2086+  0937 18 CA           JR L_0903
2087+  0939             
2088+  0939             ; different to ZX81 from here
2089+  0939             L_0939:
2090+  0939 3E 80           LD A,$80
2091+  093B FD CB 01 56     BIT 2,(IY+$01)
2092+  093F 28 02           JR Z,L_0943
2093+  0941 3E AC           LD A,$AC
2094+  0943             L_0943:
2095+  0943 05              DEC B
2096+  0944 04              INC B
2097+  0945 CC 4A 09        CALL Z,SUB_094A
2098+  0948 18 B9           JR L_0903
2099+  094A             SUB_094A:
2100+  094A CD 96 09        CALL L_0996
2101+  094D             
2102+  094D             ; SET-CURSOR
2103+  094D             SUB_094D:
2104+  094D 2A 0E 40        LD HL,($400E)                       ; get current character address
2105+  0950 2B              DEC HL                              ; move one before that
2106+  0951 22 7B 40        LD ($407B),HL                       ; set the blinking cursor to that address
2107+  0954 C9              RET
2108+  0955             
2109+  0955             ; -----------------------
2110+  0955             ; THE 'NUMBER' SUBROUTINE
2111+  0955             ; -----------------------
2112+  0955             
2113+  0955             ; NUMBER
2114+  0955             SUB_0955:
2115+  0955 FE 7E           CP $7E
2116+  0957 C0              RET NZ
2117+  0958 23              INC HL
2118+  0959 23              INC HL
2119+  095A 23              INC HL
2120+  095B 23              INC HL
2121+  095C 23              INC HL
2122+  095D C9              RET
2123+  095E             
2124+  095E             ; --------------------------------
2125+  095E             ; THE 'KEYBOARD DECODE' SUBROUTINE
2126+  095E             ; --------------------------------
2127+  095E             
2128+  095E             ; DECODE
2129+  095E             SUB_095E:
2130+  095E 16 00           LD D,$00
2131+  0960 CB 28           SRA B
2132+  0962 9F              SBC A,A
2133+  0963 F6 26           OR $26
2134+  0965 2E 05           LD L,$05
2135+  0967 95              SUB L
2136+  0968             
2137+  0968             ; KEY-LINE
2138+  0968             L_0968:
2139+  0968 85              ADD A,L
2140+  0969 37              SCF
2141+  096A CB 19           RR C
2142+  096C 38 FA           JR C,L_0968
2143+  096E 0C              INC C
2144+  096F C0              RET NZ
2145+  0970 48              LD C,B
2146+  0971 2D              DEC L
2147+  0972 2E 01           LD L,$01
2148+  0974 20 F2           JR NZ,L_0968
2149+  0976 21 7A 00        LD HL,$007A
2150+  0979 5F              LD E,A
2151+  097A 19              ADD HL,DE
2152+  097B 37              SCF
2153+  097C C9              RET
2154+  097D             
2155+  097D             ; -------------------------
2156+  097D             ; THE 'PRINTING' SUBROUTINE
2157+  097D             ; -------------------------
2158+  097D             
2159+  097D             ; LEAD-SP
2160+  097D             L_097D:
2161+  097D 7B              LD A,E
2162+  097E A7              AND A
2163+  097F F8              RET M
2164+  0980 18 10           JR L_0992
2165+  0982             
2166+  0982             ; OUT-DIGIT
2167+  0982             SUB_0982:
2168+  0982 AF              XOR A
2169+  0983             
2170+  0983             ; DIGIT-INC
2171+  0983             L_0983:
2172+  0983 09              ADD HL,BC
2173+  0984 3C              INC A
2174+  0985 38 FC           JR C,L_0983
2175+  0987 ED 42           SBC HL,BC
2176+  0989 3D              DEC A
2177+  098A 28 F1           JR Z,L_097D
2178+  098C             
2179+  098C             ; OUT-CODE
2180+  098C             SUB_098C:
2181+  098C 1E 1C           LD E,$1C
2182+  098E 83              ADD A,E
2183+  098F             
2184+  098F             ; OUT-CH
2185+  098F             L_098F:
2186+  098F A7              AND A
2187+  0990 28 04           JR Z,L_0996
2188+  0992             
2189+  0992             ; PRINT-CH
2190+  0992             L_0992:
2191+  0992 FD CB 01 86     RES 0,(IY+$01)
2192+  0996             
2193+  0996             ; PRINT-SP
2194+  0996             L_0996:
2195+  0996 D9              EXX
2196+  0997 E5              PUSH HL
2197+  0998 FD CB 01 4E     BIT 1,(IY+$01)
2198+  099C 20 05           JR NZ,L_09A3
2199+  099E CD A9 09        CALL SUB_09A9
2200+  09A1 18 03           JR L_09A6
2201+  09A3             
2202+  09A3             ; LPRINT-A
2203+  09A3             L_09A3:
2204+  09A3 CD F2 09        CALL SUB_09F2
2205+  09A6             
2206+  09A6             ; PRINT-EXX
2207+  09A6             L_09A6:
2208+  09A6 E1              POP HL
2209+  09A7 D9              EXX
2210+  09A8 C9              RET
2211+  09A9             
2212+  09A9             ; ENTER-CH
2213+  09A9             SUB_09A9:
2214+  09A9 57              LD D,A
2215+  09AA ED 4B 39 40     LD BC,($4039)
2216+  09AE 79              LD A,C
2217+  09AF FE 21           CP $21
2218+  09B1 28 1A           JR Z,L_09CD
2219+  09B3             
2220+  09B3             ; TEST-N/L
2221+  09B3             L_09B3:
2222+  09B3 3E 76           LD A,$76
2223+  09B5 BA              CP D
2224+  09B6 28 30           JR Z,L_09E8
2225+  09B8 2A 0E 40        LD HL,($400E)
2226+  09BB BE              CP (HL)
2227+  09BC 7A              LD A,D
2228+  09BD 20 20           JR NZ,L_09DF
2229+  09BF 0D              DEC C
2230+  09C0 20 19           JR NZ,L_09DB
2231+  09C2 23              INC HL
2232+  09C3 22 0E 40        LD ($400E),HL
2233+  09C6 0E 21           LD C,$21
2234+  09C8 05              DEC B
2235+  09C9 ED 43 39 40     LD ($4039),BC
2236+  09CD             
2237+  09CD             ; TEST-LOW
2238+  09CD             L_09CD:
2239+  09CD 78              LD A,B
2240+  09CE FD BE 22        CP (IY+$22)
2241+  09D1 28 03           JR Z,L_09D6
2242+  09D3 A7              AND A
2243+  09D4 20 DD           JR NZ,L_09B3
2244+  09D6             
2245+  09D6             ; REPORT-5
2246+  09D6             L_09D6:
2247+  09D6 2E 04           LD L,$04
2248+  09D8 C3 59 00        JP L_0059
2249+  09DB             
2250+  09DB             ; EXPAND-1
2251+  09DB             L_09DB:
2252+  09DB CD 2D 0B        CALL SUB_0B2D
2253+  09DE EB              EX DE,HL
2254+  09DF             
2255+  09DF             ; WRITE-CH
2256+  09DF             L_09DF:
2257+  09DF 77              LD (HL),A
2258+  09E0 23              INC HL
2259+  09E1 22 0E 40        LD ($400E),HL
2260+  09E4 FD 35 39        DEC (IY+$39)
2261+  09E7 C9              RET
2262+  09E8             
2263+  09E8             ; WRITE-N/L
2264+  09E8             L_09E8:
2265+  09E8 0E 21           LD C,$21
2266+  09EA 05              DEC B
2267+  09EB FD CB 01 C6     SET 0,(IY+$01)
2268+  09EF C3 B7 0A        JP SUB_0AB7                         ; routine LOC-ADDR
2269+  09F2             
2270+  09F2             ; --------------------------
2271+  09F2             ; THE 'LPRINT-CH' SUBROUTINE
2272+  09F2             ; --------------------------
2273+  09F2             
2274+  09F2             ; LPRINT-CH
2275+  09F2             SUB_09F2:
2276+  09F2 FE 76           CP $76
2277+  09F4 28 1B           JR Z,SUB_0A11
2278+  09F6 4F              LD C,A
2279+  09F7 3A 38 40        LD A,($4038)
2280+  09FA E6 7F           AND $7F
2281+  09FC FE 5C           CP $5C
2282+  09FE 6F              LD L,A
2283+  09FF 26 40           LD H,$40
2284+  0A01 CC 11 0A        CALL Z,SUB_0A11
2285+  0A04 71              LD (HL),C
2286+  0A05 2C              INC L
2287+  0A06 FD 75 38        LD (IY+$38),L
2288+  0A09 C9              RET
2289+  0A0A             
2290+  0A0A             ; --------------------------
2291+  0A0A             ; THE 'COPY' COMMAND ROUTINE
2292+  0A0A             ; --------------------------
2293+  0A0A             
2294+  0A0A             ; COPY
2295+  0A0A             SUB_0101:
2296+  0A0A 16 16           LD D,$16
2297+  0A0C 21 7E 40        LD HL,$407E
2298+  0A0F 18 05           JR L_0A16
2299+  0A11             
2300+  0A11             ; COPY-BUFF
2301+  0A11             SUB_0A11:
2302+  0A11 16 01           LD D,$01
2303+  0A13 21 3C 40        LD HL,$403C
2304+  0A16             
2305+  0A16             ; COPY*D
2306+  0A16             L_0A16:
2307+  0A16 CD 70 03        CALL SUB_0370                       ; routine SET-FAST
2308+  0A19 C5              PUSH BC
2309+  0A1A             
2310+  0A1A             ; COPY-LOOP
2311+  0A1A             L_0A1A:
2312+  0A1A E5              PUSH HL
2313+  0A1B AF              XOR A
2314+  0A1C 5F              LD E,A
2315+  0A1D             
2316+  0A1D             ; COPY-TIME
2317+  0A1D             L_0A1D:
2318+  0A1D D3 FB           OUT ($FB),A
2319+  0A1F E1              POP HL
2320+  0A20             
2321+  0A20             ; COPY-BRK
2322+  0A20             L_0A20:
2323+  0A20 CD 3B 11        CALL SUB_113B
2324+  0A23 38 05           JR C,L_0A2A
2325+  0A25 1F              RRA
2326+  0A26 D3 FB           OUT ($FB),A
2327+  0A28             ; REPORT-D2
2328+  0A28 CF              RST 08H                             ; ERROR-1
2329+  0A29 0C              .BYTE $0C                           ; BK - BreaK
2330+  0A2A             
2331+  0A2A             ; COPY-CONT
2332+  0A2A             L_0A2A:
2333+  0A2A DB FB           IN A,($FB)
2334+  0A2C 87              ADD A,A
2335+  0A2D FA 7D 0A        JP M,L_0A7D
2336+  0A30 30 EE           JR NC,L_0A20
2337+  0A32 E5              PUSH HL
2338+  0A33 D5              PUSH DE
2339+  0A34 7A              LD A,D
2340+  0A35 FE 02           CP $02
2341+  0A37 9F              SBC A,A
2342+  0A38 A3              AND E
2343+  0A39 07              RLCA
2344+  0A3A A3              AND E
2345+  0A3B 57              LD D,A
2346+  0A3C             
2347+  0A3C             ; COPY-NEXT
2348+  0A3C             L_0A3C:
2349+  0A3C 4E              LD C,(HL)                           ; load character from screen or buffer
2350+  0A3D 79              LD A,C                              ; save a copy in C for later test
2351+  0A3E 23              INC HL                              ; update pointer for next time
2352+  0A3F FE 76           CP $76                              ; is this a newline?
2353+  0A41 28 23           JR Z,L_0A66                         ; forward to COPY-N/L if it is
2354+  0A43 E5              PUSH HL                             ; no NL, so preserve the counter
2355+  0A44             ; different to ZX81 from here
2356+  0A44 D3 F6           OUT ($F6),A                         ; write character code to $F6
2357+  0A46 7B              LD A,E                              ; get byte offset (0-7)
2358+  0A47 D3 F5           OUT ($F5),A                         ; write byte offset to F5
2359+  0A49 DB F6           IN A,($F6)                          ; read character data from ULA? (or custom printer?)
2360+  0A4B CB 11           RL C                                ; test backup character code
2361+  0A4D 30 02           JR NC,L_0A51                        ; skip if bit 7 was not set
2362+  0A4F EE FF           XOR $FF                             ; bit7 set, invert bits
2363+  0A51             
2364+  0A51             ; back to ZX81 code from here
2365+  0A51             L_0A51:
2366+  0A51 4F              LD C,A
2367+  0A52 06 08           LD B,$08
2368+  0A54             
2369+  0A54             ; COPY-BITS
2370+  0A54             L_0A54:
2371+  0A54 7A              LD A,D
2372+  0A55 CB 01           RLC C
2373+  0A57 1F              RRA
2374+  0A58 67              LD H,A
2375+  0A59             
2376+  0A59             ; COPY-WAIT
2377+  0A59             L_0A59:
2378+  0A59 DB FB           IN A,($FB)
2379+  0A5B 1F              RRA
2380+  0A5C 30 FB           JR NC,L_0A59
2381+  0A5E 7C              LD A,H
2382+  0A5F D3 FB           OUT ($FB),A
2383+  0A61 10 F1           DJNZ L_0A54
2384+  0A63 E1              POP HL
2385+  0A64 18 D6           JR L_0A3C
2386+  0A66             
2387+  0A66             ; COPY-N/L
2388+  0A66             L_0A66:
2389+  0A66 DB FB           IN A,($FB)
2390+  0A68 1F              RRA
2391+  0A69 30 FB           JR NC,L_0A66
2392+  0A6B 7A              LD A,D
2393+  0A6C 0F              RRCA
2394+  0A6D D3 FB           OUT ($FB),A
2395+  0A6F D1              POP DE
2396+  0A70 1C              INC E
2397+  0A71 CB 5B           BIT 3,E
2398+  0A73 28 A8           JR Z,L_0A1D
2399+  0A75 C1              POP BC
2400+  0A76 15              DEC D
2401+  0A77 20 A1           JR NZ,L_0A1A
2402+  0A79 3E 04           LD A,$04
2403+  0A7B D3 FB           OUT ($FB),A
2404+  0A7D             
2405+  0A7D             ; COPY-END
2406+  0A7D             L_0A7D:
2407+  0A7D CD 85 02        CALL SUB_0285                       ; FAST/SLOW
2408+  0A80 C1              POP BC
2409+  0A81             
2410+  0A81             ; -------------------------------------
2411+  0A81             ; THE 'CLEAR PRINTER BUFFER' SUBROUTINE
2412+  0A81             ; -------------------------------------
2413+  0A81             
2414+  0A81             ; CLEAR-PRB
2415+  0A81             SUB_0A81:
2416+  0A81 21 5C 40        LD HL,$405C
2417+  0A84 36 76           LD (HL),$76
2418+  0A86 06 20           LD B,$20
2419+  0A88             
2420+  0A88             ; PRB-BYTES
2421+  0A88             L_0A88:
2422+  0A88 2B              DEC HL
2423+  0A89 36 00           LD (HL),$00
2424+  0A8B 10 FB           DJNZ L_0A88
2425+  0A8D 7D              LD A,L
2426+  0A8E CB FF           SET 7,A
2427+  0A90 32 38 40        LD ($4038),A
2428+  0A93 C9              RET
2429+  0A94             
2430+  0A94             ; -------------------------
2431+  0A94             ; THE 'PRINT AT' SUBROUTINE
2432+  0A94             ; -------------------------
2433+  0A94             
2434+  0A94             ; PRINT-AT
2435+  0A94             SUB_0A94:
2436+  0A94 3E 17           LD A,$17
2437+  0A96 90              SUB B
2438+  0A97 38 0B           JR C,L_0AA4
2439+  0A99             
2440+  0A99             ; TEST-VAL
2441+  0A99             SUB_0A99:
2442+  0A99 FD BE 22        CP (IY+$22)
2443+  0A9C DA D6 09        JP C,L_09D6
2444+  0A9F 3C              INC A
2445+  0AA0 47              LD B,A
2446+  0AA1 3E 1F           LD A,$1F
2447+  0AA3 91              SUB C
2448+  0AA4             
2449+  0AA4             ; WRONG-VAL
2450+  0AA4             L_0AA4:
2451+  0AA4 DA 8E 10        JP C,L_108E
2452+  0AA7 C6 02           ADD A,$02
2453+  0AA9 4F              LD C,A
2454+  0AAA             
2455+  0AAA             ; SET-FIELD
2456+  0AAA             SUB_0AAA:
2457+  0AAA FD CB 01 4E     BIT 1,(IY+$01)
2458+  0AAE 28 07           JR Z,SUB_0AB7                       ; routine LOC-ADDR
2459+  0AB0 3E 5D           LD A,$5D
2460+  0AB2 91              SUB C
2461+  0AB3 32 38 40        LD ($4038),A
2462+  0AB6 C9              RET
2463+  0AB7             
2464+  0AB7             ; ----------------------------
2465+  0AB7             ; THE 'LOCATE ADDRESS' ROUTINE
2466+  0AB7             ; ----------------------------
2467+  0AB7             
2468+  0AB7             ; LOC-ADDR  different to ZX81
2469+  0AB7             SUB_0AB7:
2470+  0AB7 ED 43 39 40     LD ($4039),BC                       ; Set S.POSN - Current PRINT position
2471+  0ABB 3E 21           LD A,$21
2472+  0ABD 91              SUB C
2473+  0ABE 4F              LD C,A
2474+  0ABF 3E 18           LD A,$18
2475+  0AC1 90              SUB B
2476+  0AC2 6F              LD L,A
2477+  0AC3 26 00           LD H,$00
2478+  0AC5 06 05           LD B,$05
2479+  0AC7             L_0AC7:
2480+  0AC7 29              ADD HL,HL
2481+  0AC8 10 FD           DJNZ L_0AC7
2482+  0ACA 09              ADD HL,BC
2483+  0ACB 4F              LD C,A
2484+  0ACC 09              ADD HL,BC
2485+  0ACD 01 7E 40        LD BC,$407E                         ; position of top left character (fixed DFILE location)
2486+  0AD0 09              ADD HL,BC                           ; add offset to get address of character
2487+  0AD1 22 0E 40        LD ($400E),HL                       ; Set DF.CC - Display file current character
2488+  0AD4 06 00           LD B,$00
2489+  0AD6 C9              RET
2490+  0AD7             
2491+  0AD7             ; ------------------------------
2492+  0AD7             ; THE 'EXPAND TOKENS' SUBROUTINE
2493+  0AD7             ; ------------------------------
2494+  0AD7             
2495+  0AD7             ; TOKENS
2496+  0AD7             SUB_0AD7:
2497+  0AD7 F5              PUSH AF
2498+  0AD8 CD 07 0B        CALL SUB_0B07
2499+  0ADB 30 08           JR NC,L_0AE5
2500+  0ADD FD CB 01 46     BIT 0,(IY+$01)
2501+  0AE1 20 02           JR NZ,L_0AE5
2502+  0AE3 AF              XOR A
2503+  0AE4 D7              RST 10H
2504+  0AE5             
2505+  0AE5             ; ALL-CHARS - different to ZX81
2506+  0AE5             L_0AE5:
2507+  0AE5 0A              LD A,(BC)
2508+  0AE6 E6 3F           AND $3F
2509+  0AE8 D7              RST 10H
2510+  0AE9 0A              LD A,(BC)
2511+  0AEA 03              INC BC
2512+  0AEB 87              ADD A,A
2513+  0AEC 30 F7           JR NC,L_0AE5
2514+  0AEE 4F              LD C,A
2515+  0AEF F1              POP AF
2516+  0AF0 FE C0           CP $C0
2517+  0AF2 30 03           JR NC,L_0AF7
2518+  0AF4 FE 43           CP $43
2519+  0AF6 D0              RET NC
2520+  0AF7             L_0AF7:
2521+  0AF7 79              LD A,C
2522+  0AF8 FE 1A           CP $1A
2523+  0AFA 28 03           JR Z,L_0AFF
2524+  0AFC FE 38           CP $38
2525+  0AFE D8              RET C
2526+  0AFF             
2527+  0AFF             ; TRAIL-SP
2528+  0AFF             L_0AFF:
2529+  0AFF AF              XOR A
2530+  0B00 FD CB 01 C6     SET 0,(IY+$01)
2531+  0B04 C3 96 09        JP L_0996
2532+  0B07             
2533+  0B07             ; TOKEN-ADD
2534+  0B07             SUB_0B07:
2535+  0B07 E5              PUSH HL
2536+  0B08 21 F0 00        LD HL,L_00F0                        ; Tokens table
2537+  0B0B CB 7F           BIT 7,A
2538+  0B0D 28 02           JR Z,L_0B11
2539+  0B0F E6 3F           AND $3F
2540+  0B11             
2541+  0B11             ; TEST-HIGH
2542+  0B11             L_0B11:
2543+  0B11 FE 46           CP $46                              ; $46 tokens in table
2544+  0B13 30 10           JR NC,L_0B25
2545+  0B15 47              LD B,A
2546+  0B16 04              INC B
2547+  0B17             
2548+  0B17             ; WORDS
2549+  0B17             L_0B17:
2550+  0B17 CB 7E           BIT 7,(HL)
2551+  0B19 23              INC HL
2552+  0B1A 28 FB           JR Z,L_0B17
2553+  0B1C 10 F9           DJNZ L_0B17
2554+  0B1E FE 43           CP $43                              ; different offsets here
2555+  0B20 30 03           JR NC,L_0B25
2556+  0B22 FE 16           CP $16                              ; and here
2557+  0B24             
2558+  0B24             ; COMP-FLAG
2559+  0B24 3F              CCF
2560+  0B25             
2561+  0B25             ; FOUND
2562+  0B25             L_0B25:
2563+  0B25 44              LD B,H
2564+  0B26 4D              LD C,L
2565+  0B27 E1              POP HL
2566+  0B28 D0              RET NC
2567+  0B29 0A              LD A,(BC)
2568+  0B2A C6 E4           ADD A,$E4
2569+  0B2C C9              RET
2570+  0B2D             
2571+  0B2D             ; --------------------------
2572+  0B2D             ; THE 'ONE SPACE' SUBROUTINE
2573+  0B2D             ; --------------------------
2574+  0B2D             
2575+  0B2D             ; ONE-SPACE
2576+  0B2D             SUB_0B2D:
2577+  0B2D 01 01 00        LD BC,$0001
2578+  0B30             
2579+  0B30             ; --------------------------
2580+  0B30             ; THE 'MAKE ROOM' SUBROUTINE
2581+  0B30             ; --------------------------
2582+  0B30             
2583+  0B30             ; Make room for DE bytes at HL
2584+  0B30             
2585+  0B30             ; MAKE-ROOM
2586+  0B30             SUB_0B30:
2587+  0B30 E5              PUSH HL                             ; Save HL
2588+  0B31 CD A0 10        CALL SUB_10A0                       ; Routine TEST-ROOM
2589+  0B34 E1              POP HL                              ; Restore HL
2590+  0B35 CD 3F 0B        CALL SUB_0B3F                       ; Routine POINTERS
2591+  0B38 2A 1C 40        LD HL,($401C)                       ; STKEND - End of calculator stack
2592+  0B3B EB              EX DE,HL                            ; DE=STKEND, HL=Location of bytes to be moved, BC=number of bytes to move
2593+  0B3C ED B8           LDDR                                ; Move bytes
2594+  0B3E C9              RET
2595+  0B3F             
2596+  0B3F             ; -------------------------
2597+  0B3F             ; THE 'POINTERS' SUBROUTINE
2598+  0B3F             ; -------------------------
2599+  0B3F             
2600+  0B3F             ; POINTERS
2601+  0B3F             SUB_0B3F:
2602+  0B3F F5              PUSH AF                             ; Save the Carry from the result of TEST-ROM
2603+  0B40 E5              PUSH HL                             ; Save HL, the destination
2604+  0B41 21 0A 40        LD HL,$400A                         ; NXTLIN - Address of next line to be executed (ZX81 was $4029)
2605+  0B44 3E 0A           LD A,$0A                            ; Number of pointers to test
2606+  0B46             
2607+  0B46             ; NEXT-PTR
2608+  0B46             L_0B46:
2609+  0B46 5E              LD E,(HL)
2610+  0B47 23              INC HL
2611+  0B48 56              LD D,(HL)
2612+  0B49 E3              EX (SP),HL                          ; Get destination from stack
2613+  0B4A A7              AND A                               ; Clear carry flag
2614+  0B4B ED 52           SBC HL,DE                           ; Subtract and restore to set flags
2615+  0B4D 19              ADD HL,DE                           ;
2616+  0B4E E3              EX (SP),HL                          ; Restore destination to stack
2617+  0B4F 30 09           JR NC,L_0B5A                        ; skip to PTR-DONE if pointer below destination
2618+  0B51             ; pointer is after point of insertion, so update pointer
2619+  0B51 D5              PUSH DE                             ; Save DE
2620+  0B52 EB              EX DE,HL
2621+  0B53 09              ADD HL,BC                           ; move pointer up by BC bytes
2622+  0B54 EB              EX DE,HL
2623+  0B55 72              LD (HL),D                           ; Update the pointer
2624+  0B56 2B              DEC HL
2625+  0B57 73              LD (HL),E
2626+  0B58 23              INC HL
2627+  0B59 D1              POP DE                              ; Restore DE
2628+  0B5A             
2629+  0B5A             ; PTR-DONE
2630+  0B5A             L_0B5A:
2631+  0B5A 23              INC HL                              ; Next pointer
2632+  0B5B 3D              DEC A                               ; Reduce number of pointers left to test
2633+  0B5C 20 E8           JR NZ,L_0B46                        ; Back to NEXT-PTR if there are more to do
2634+  0B5E             
2635+  0B5E             ; all pointers updated
2636+  0B5E EB              EX DE,HL                            ; HL now contains the end of the space to add + overheads
2637+  0B5F D1              POP DE                              ; DE contains the location of the new space
2638+  0B60 F1              POP AF
2639+  0B61 A7              AND A
2640+  0B62 ED 52           SBC HL,DE                           ; HL now contains the number of bytes required
2641+  0B64 44              LD B,H                              ; BC=HL
2642+  0B65 4D              LD C,L
2643+  0B66 03              INC BC                              ; +1
2644+  0B67 19              ADD HL,DE                           ; Add back
2645+  0B68 EB              EX DE,HL                            ; Finally DE=End of space, HL=Start of space, BC=Size of space
2646+  0B69 C9              RET
2647+  0B6A             
2648+  0B6A             ; -----------------------------
2649+  0B6A             ; THE 'LINE ADDRESS' SUBROUTINE
2650+  0B6A             ; -----------------------------
2651+  0B6A             
2652+  0B6A             ; LINE-ADDR
2653+  0B6A             SUB_0B6A:
2654+  0B6A E5              PUSH HL
2655+  0B6B 2A 0C 40        LD HL,($400C)                       ; PRGRM, start of user program
2656+  0B6E 54              LD D,H
2657+  0B6F 5D              LD E,L
2658+  0B70             
2659+  0B70             ; NEXT-TEST
2660+  0B70             L_0B70:
2661+  0B70 C1              POP BC
2662+  0B71 CD 7C 0B        CALL SUB_0B7C
2663+  0B74 D0              RET NC
2664+  0B75 C5              PUSH BC
2665+  0B76 CD 84 0B        CALL SUB_0B84
2666+  0B79 EB              EX DE,HL
2667+  0B7A 18 F4           JR L_0B70
2668+  0B7C             
2669+  0B7C             ; -------------------------------------
2670+  0B7C             ; THE 'COMPARE LINE NUMBERS' SUBROUTINE
2671+  0B7C             ; -------------------------------------
2672+  0B7C             
2673+  0B7C             ; CP-LINES
2674+  0B7C             SUB_0B7C:
2675+  0B7C 7E              LD A,(HL)
2676+  0B7D B8              CP B
2677+  0B7E C0              RET NZ
2678+  0B7F 23              INC HL
2679+  0B80 7E              LD A,(HL)
2680+  0B81 2B              DEC HL
2681+  0B82 B9              CP C
2682+  0B83 C9              RET
2683+  0B84             
2684+  0B84             ; --------------------------------------
2685+  0B84             ; THE 'NEXT LINE OR VARIABLE' SUBROUTINE
2686+  0B84             ; --------------------------------------
2687+  0B84             
2688+  0B84             ; NEXT-ONE
2689+  0B84             SUB_0B84:
2690+  0B84 E5              PUSH HL
2691+  0B85 7E              LD A,(HL)
2692+  0B86 FE 40           CP $40
2693+  0B88 38 17           JR C,L_0BA1
2694+  0B8A CB 6F           BIT 5,A
2695+  0B8C 28 14           JR Z,L_0BA2
2696+  0B8E 87              ADD A,A
2697+  0B8F FA 93 0B        JP M,L_0B93
2698+  0B92 3F              CCF
2699+  0B93             
2700+  0B93             ; NEXT+FIVE
2701+  0B93             L_0B93:
2702+  0B93 01 05 00        LD BC,$0005
2703+  0B96 30 02           JR NC,L_0B9A
2704+  0B98 0E 11           LD C,$11
2705+  0B9A             
2706+  0B9A             ; NEXT-LETT
2707+  0B9A             L_0B9A:
2708+  0B9A 17              RLA
2709+  0B9B 23              INC HL
2710+  0B9C 7E              LD A,(HL)
2711+  0B9D 30 FB           JR NC,L_0B9A
2712+  0B9F 18 06           JR L_0BA7
2713+  0BA1             
2714+  0BA1             ; LINES
2715+  0BA1             L_0BA1:
2716+  0BA1 23              INC HL
2717+  0BA2             
2718+  0BA2             ; NEXT-O-4
2719+  0BA2             L_0BA2:
2720+  0BA2 23              INC HL
2721+  0BA3 4E              LD C,(HL)
2722+  0BA4 23              INC HL
2723+  0BA5 46              LD B,(HL)
2724+  0BA6 23              INC HL
2725+  0BA7             
2726+  0BA7             ; NEXT-ADD
2727+  0BA7             L_0BA7:
2728+  0BA7 09              ADD HL,BC
2729+  0BA8 D1              POP DE
2730+  0BA9             
2731+  0BA9             ; ---------------------------
2732+  0BA9             ; THE 'DIFFERENCE' SUBROUTINE
2733+  0BA9             ; ---------------------------
2734+  0BA9             
2735+  0BA9             ; DIFFER
2736+  0BA9             SUB_0BA9:
2737+  0BA9 A7              AND A
2738+  0BAA ED 52           SBC HL,DE
2739+  0BAC 44              LD B,H
2740+  0BAD 4D              LD C,L
2741+  0BAE 19              ADD HL,DE
2742+  0BAF EB              EX DE,HL
2743+  0BB0 C9              RET
2744+  0BB1             
2745+  0BB1             ; -------------------------------
2746+  0BB1             ; THE 'SCROLL COMMAND' SUBROUTINE
2747+  0BB1             ; -------------------------------
2748+  0BB1             
2749+  0BB1             ; scrolling is easy with a fully expanded DFILE
2750+  0BB1             ; copy lines 2-24 to 1-23
2751+  0BB1             
2752+  0BB1             ; SCROLL
2753+  0BB1             SUB_0BB1:
2754+  0BB1 21 9F 40        LD HL,DFILE+$22                     ; Source, start of line 2
2755+  0BB4 11 7E 40        LD DE,DFILE+1                       ; Destination, start of line 1
2756+  0BB7 01 F6 02        LD BC,$02F6                         ; 23*33-1, 23 lines to copy
2757+  0BBA ED B0           LDIR                                ; copy
2758+  0BBC FD 46 22        LD B,(IY+$22)                       ; get DF.SZ - Size of editor part of screen
2759+  0BBF 04              INC B                               ; increase by 1 row
2760+  0BC0 18 10           JR L_0BD2                           ; routine B-LINES, clear the editor lines
2761+  0BC2             
2762+  0BC2             ; --------------------------
2763+  0BC2             ; THE 'LINE-ENDS' SUBROUTINE
2764+  0BC2             ; --------------------------
2765+  0BC2             
2766+  0BC2             ; LINE-ENDS
2767+  0BC2             SUB_0BC2:
2768+  0BC2 FD 46 22        LD B,(IY+$22)
2769+  0BC5 C5              PUSH BC
2770+  0BC6 CD D2 0B        CALL L_0BD2
2771+  0BC9 C1              POP BC
2772+  0BCA 05              DEC B
2773+  0BCB 0E 21           LD C,$21
2774+  0BCD C3 B7 0A        JP SUB_0AB7                         ; routine LOC-ADDR
2775+  0BD0             
2776+  0BD0             ; -------------------------
2777+  0BD0             ; THE 'CLS' COMMAND ROUTINE
2778+  0BD0             ; -------------------------
2779+  0BD0             
2780+  0BD0             ; Different as there is no collapsed display file
2781+  0BD0             
2782+  0BD0             ; CLS
2783+  0BD0             SUB_0BD0:
2784+  0BD0 06 18           LD B,$18                            ; 24 lines
2785+  0BD2             
2786+  0BD2             ; B-LINES
2787+  0BD2             L_0BD2:
2788+  0BD2 FD CB 01 8E     RES 1,(IY+$01)                      ; Clear FLAG - printer not in use
2789+  0BD6 FD 36 7C 00     LD (IY+$7C),$00                     ; Clear address of blinking curosr
2790+  0BDA FD CB 01 C6     SET 0,(IY+$01)                      ; Set FLAG  - Suppress leading space
2791+  0BDE 0E 21           LD C,$21
2792+  0BE0 C5              PUSH BC
2793+  0BE1 CD B7 0A        CALL SUB_0AB7                       ; routine LOC-ADDR
2794+  0BE4 C1              POP BC
2795+  0BE5 48              LD C,B
2796+  0BE6             
2797+  0BE6             ; CLEAR-SCREEN
2798+  0BE6 AF              XOR A                               ; A = 0 = SPACE
2799+  0BE7             L_0BE7:
2800+  0BE7 06 20           LD B,$20                            ; 32 characters
2801+  0BE9             L_0BE9:
2802+  0BE9 77              LD (HL),A                           ; clear character
2803+  0BEA 23              INC HL
2804+  0BEB 10 FC           DJNZ L_0BE9                         ; loop until EOL
2805+  0BED 23              INC HL                              ; skip over NEWLINE
2806+  0BEE 0D              DEC C                               ; line counter
2807+  0BEF 20 F6           JR NZ,L_0BE7                        ; loop back until complete
2808+  0BF1 C9              RET
2809+  0BF2             
2810+  0BF2             ; ----------------------------
2811+  0BF2             ; THE 'RECLAIMING' SUBROUTINES
2812+  0BF2             ; ----------------------------
2813+  0BF2             
2814+  0BF2             ; RECLAIM-1
2815+  0BF2             SUB_0BF2:
2816+  0BF2 CD A9 0B        CALL SUB_0BA9
2817+  0BF5             
2818+  0BF5             ; RECLAIM-2
2819+  0BF5             SUB_0BF5:
2820+  0BF5 C5              PUSH BC
2821+  0BF6 78              LD A,B
2822+  0BF7 2F              CPL
2823+  0BF8 47              LD B,A
2824+  0BF9 79              LD A,C
2825+  0BFA 2F              CPL
2826+  0BFB 4F              LD C,A
2827+  0BFC 03              INC BC
2828+  0BFD CD 3F 0B        CALL SUB_0B3F
2829+  0C00 EB              EX DE,HL
2830+  0C01 E1              POP HL
2831+  0C02 19              ADD HL,DE
2832+  0C03 D5              PUSH DE
2833+  0C04 ED B0           LDIR
2834+  0C06 E1              POP HL
2835+  0C07 C9              RET
2836+  0C08             
2837+  0C08             ; ------------------------------
2838+  0C08             ; THE 'E-LINE NUMBER' SUBROUTINE
2839+  0C08             ; ------------------------------
2840+  0C08             
2841+  0C08             ; E-LINE-NO
2842+  0C08             SUB_0C08:
2843+  0C08 2A 14 40        LD HL,($4014)
2844+  0C0B CD 4E 00        CALL SUB_004E
2845+  0C0E DF              RST 18H
2846+  0C0F             ;SUB_0C0F:
2847+  0C0F FD CB 2D 6E     BIT 5,(IY+$2D)
2848+  0C13 C0              RET NZ
2849+  0C14 21 5D 40        LD HL,$405D
2850+  0C17 22 1C 40        LD ($401C),HL
2851+  0C1A CD 40 17        CALL SUB_1740
2852+  0C1D CD 82 17        CALL SUB_1782
2853+  0C20 38 04           JR C,L_0C26
2854+  0C22 21 F0 D8        LD HL,$D8F0
2855+  0C25 09              ADD HL,BC
2856+  0C26             
2857+  0C26             ; NO-NUMBER
2858+  0C26             L_0C26:
2859+  0C26 DA 17 0F        JP C,L_0F17                         ; to REPORT-C - Invalid Expression
2860+  0C29 BF              CP A
2861+  0C2A C3 B4 16        JP L_16B4
2862+  0C2D             
2863+  0C2D             ; -------------------------------------------------
2864+  0C2D             ; THE 'REPORT AND LINE NUMBER' PRINTING SUBROUTINES
2865+  0C2D             ; -------------------------------------------------
2866+  0C2D             
2867+  0C2D             ; OUT-NUM
2868+  0C2D             SUB_0C2D:
2869+  0C2D D5              PUSH DE
2870+  0C2E E5              PUSH HL
2871+  0C2F                                                     ; missing call to UNITS here
2872+  0C2F 60              LD H,B
2873+  0C30 69              LD L,C
2874+  0C31 1E FF           LD E,$FF
2875+  0C33 18 08           JR L_0C3D
2876+  0C35             
2877+  0C35             ; OUT-NO
2878+  0C35             SUB_0C35:
2879+  0C35 D5              PUSH DE
2880+  0C36 56              LD D,(HL)
2881+  0C37 23              INC HL
2882+  0C38 5E              LD E,(HL)
2883+  0C39 E5              PUSH HL
2884+  0C3A EB              EX DE,HL
2885+  0C3B 1E 00           LD E,$00
2886+  0C3D             
2887+  0C3D             ; THOUSAND
2888+  0C3D             L_0C3D:
2889+  0C3D 01 18 FC        LD BC,$FC18
2890+  0C40 CD 82 09        CALL SUB_0982
2891+  0C43 01 9C FF        LD BC,$FF9C
2892+  0C46 CD 82 09        CALL SUB_0982
2893+  0C49 0E F6           LD C,$F6
2894+  0C4B CD 82 09        CALL SUB_0982
2895+  0C4E 7D              LD A,L
2896+  0C4F             
2897+  0C4F             ; UNITS
2898+  0C4F CD 8C 09        CALL SUB_098C
2899+  0C52 E1              POP HL
2900+  0C53 D1              POP DE
2901+  0C54 C9              RET
2902+  0C55             
2903+  0C55             ; --------------------------
2904+  0C55             ; THE 'UNSTACK-Z' SUBROUTINE
2905+  0C55             ; --------------------------
2906+  0C55             
2907+  0C55             ; UNSTACK-Z
2908+  0C55             SUB_0C55:
2909+  0C55 CD 23 0F        CALL SUB_0F23
2910+  0C58 E1              POP HL
2911+  0C59 C8              RET Z
2912+  0C5A E9              JP (HL)
2913+  0C5B             
2914+  0C5B             ; ----------------------------
2915+  0C5B             ; THE 'LPRINT' COMMAND ROUTINE
2916+  0C5B             ; ----------------------------
2917+  0C5B             
2918+  0C5B             ; LPRINT
2919+  0C5B             SUB_0C5B:
2920+  0C5B FD CB 01 CE     SET 1,(IY+$01)
2921+  0C5F             
2922+  0C5F             ; ---------------------------
2923+  0C5F             ; THE 'PRINT' COMMAND ROUTINE
2924+  0C5F             ; ---------------------------
2925+  0C5F             
2926+  0C5F             ; PRINT
2927+  0C5F             SUB_0C5F:
2928+  0C5F 7E              LD A,(HL)
2929+  0C60 FE 76           CP $76
2930+  0C62 CA 0B 0D        JP Z,L_0D0B
2931+  0C65             
2932+  0C65             ; PRINT-1
2933+  0C65             L_0C65:
2934+  0C65 D6 1A           SUB $1A
2935+  0C67 CE 00           ADC A,$00
2936+  0C69 28 66           JR Z,L_0CD1
2937+  0C6B FE BA           CP $BA
2938+  0C6D 20 1B           JR NZ,L_0C8A
2939+  0C6F E7              RST 20H
2940+  0C70 CD 0F 0F        CALL SUB_0F0F
2941+  0C73 FE 1A           CP $1A
2942+  0C75 C2 17 0F        JP NZ,L_0F17                        ; to REPORT-C - Invalid Expression
2943+  0C78 E7              RST 20H
2944+  0C79 CD 0F 0F        CALL SUB_0F0F
2945+  0C7C CD DB 0C        CALL SUB_0CDB
2946+  0C7F EF              RST 28H                             ; FP-CALC
2947+  0C80 01              .BYTE $01                           ; exchange
2948+  0C81 34              .BYTE $34                           ; end-calc
2949+  0C82 CD 7A 0D        CALL SUB_0D7A
2950+  0C85 CD 94 0A        CALL SUB_0A94
2951+  0C88 18 3A           JR L_0CC4
2952+  0C8A             
2953+  0C8A             ; NOT-AT
2954+  0C8A             L_0C8A:
2955+  0C8A FE BB           CP $BB                              ; different token on ZX81
2956+  0C8C 20 30           JR NZ,L_0CBE
2957+  0C8E E7              RST 20H
2958+  0C8F CD 0F 0F        CALL SUB_0F0F
2959+  0C92 CD DB 0C        CALL SUB_0CDB
2960+  0C95 CD 83 10        CALL SUB_1083
2961+  0C98 E6 1F           AND $1F
2962+  0C9A 4F              LD C,A
2963+  0C9B FD CB 01 4E     BIT 1,(IY+$01)
2964+  0C9F 28 0A           JR Z,L_0CAB
2965+  0CA1 FD 96 38        SUB (IY+$38)
2966+  0CA4 CB FF           SET 7,A
2967+  0CA6 C6 3C           ADD A,$3C
2968+  0CA8 D4 11 0A        CALL NC,SUB_0A11
2969+  0CAB             
2970+  0CAB             ; TAB-TEST
2971+  0CAB             L_0CAB:
2972+  0CAB FD 86 39        ADD A,(IY+$39)
2973+  0CAE FE 21           CP $21
2974+  0CB0 3A 3A 40        LD A,($403A)
2975+  0CB3 DE 01           SBC A,$01
2976+  0CB5 CD 99 0A        CALL SUB_0A99
2977+  0CB8 FD CB 01 C6     SET 0,(IY+$01)
2978+  0CBC 18 06           JR L_0CC4
2979+  0CBE             
2980+  0CBE             ; NOT-TAB
2981+  0CBE             L_0CBE:
2982+  0CBE CD 4A 11        CALL SUB_114A                       ; routine SCANNING
2983+  0CC1 CD E2 0C        CALL SUB_0CE2
2984+  0CC4             
2985+  0CC4             ; PRINT-ON
2986+  0CC4             L_0CC4:
2987+  0CC4 DF              RST 18H
2988+  0CC5 D6 1A           SUB $1A
2989+  0CC7 CE 00           ADC A,$00
2990+  0CC9 28 06           JR Z,L_0CD1
2991+  0CCB CD 9A 0E        CALL SUB_0E9A                       ; routine CHECK-END
2992+  0CCE C3 0B 0D        JP L_0D0B
2993+  0CD1             
2994+  0CD1             ; SPACING
2995+  0CD1             L_0CD1:
2996+  0CD1 D4 12 0D        CALL NC,SUB_0D12
2997+  0CD4 E7              RST 20H
2998+  0CD5 FE 76           CP $76
2999+  0CD7 C8              RET Z
3000+  0CD8 C3 65 0C        JP L_0C65
3001+  0CDB             
3002+  0CDB             ; SYNTAX-ON
3003+  0CDB             SUB_0CDB:
3004+  0CDB CD 23 0F        CALL SUB_0F23
3005+  0CDE C0              RET NZ
3006+  0CDF E1              POP HL
3007+  0CE0 18 E2           JR L_0CC4
3008+  0CE2             
3009+  0CE2             ; PRINT-STK
3010+  0CE2             SUB_0CE2:
3011+  0CE2 CD 55 0C        CALL SUB_0C55
3012+  0CE5 FD CB 01 76     BIT 6,(IY+$01)                      ; check FLAGS - 0 = string or 1 = numeric result
3013+  0CE9 CC ED 15        CALL Z,SUB_15ED                     ; routine STK-FETCH
3014+  0CEC 28 08           JR Z,L_0CF6
3015+  0CEE C3 D3 17        JP L_17D3
3016+  0CF1             
3017+  0CF1             ; PR-STR-1
3018+  0CF1             ; missing ?
3019+  0CF1             
3020+  0CF1             ; PR-STR-2
3021+  0CF1             L_0CF1:
3022+  0CF1 D7              RST 10H
3023+  0CF2             
3024+  0CF2             ; PR-STR-3
3025+  0CF2             L_0CF2:
3026+  0CF2 ED 5B 18 40     LD DE,($4018)
3027+  0CF6             
3028+  0CF6             ; PR-STR-4
3029+  0CF6             L_0CF6:
3030+  0CF6 78              LD A,B
3031+  0CF7 B1              OR C
3032+  0CF8 0B              DEC BC
3033+  0CF9 C8              RET Z
3034+  0CFA 1A              LD A,(DE)
3035+  0CFB 13              INC DE
3036+  0CFC ED 53 18 40     LD ($4018),DE
3037+  0D00 CB 77           BIT 6,A
3038+  0D02 28 ED           JR Z,L_0CF1
3039+  0D04 C5              PUSH BC
3040+  0D05 CD D7 0A        CALL SUB_0AD7
3041+  0D08 C1              POP BC
3042+  0D09 18 E7           JR L_0CF2
3043+  0D0B             
3044+  0D0B             ; PRINT-END
3045+  0D0B             L_0D0B:
3046+  0D0B CD 55 0C        CALL SUB_0C55
3047+  0D0E 3E 76           LD A,$76
3048+  0D10 D7              RST 10H
3049+  0D11 C9              RET
3050+  0D12             
3051+  0D12             ; FIELD
3052+  0D12             SUB_0D12:
3053+  0D12 CD 55 0C        CALL SUB_0C55
3054+  0D15 FD CB 01 C6     SET 0,(IY+$01)
3055+  0D19 AF              XOR A
3056+  0D1A D7              RST 10H
3057+  0D1B ED 4B 39 40     LD BC,($4039)
3058+  0D1F 79              LD A,C
3059+  0D20 FD CB 01 4E     BIT 1,(IY+$01)
3060+  0D24 28 05           JR Z,L_0D2B
3061+  0D26 3E 5D           LD A,$5D
3062+  0D28 FD 96 38        SUB (IY+$38)
3063+  0D2B             
3064+  0D2B             ; CENTRE
3065+  0D2B             L_0D2B:
3066+  0D2B 0E 11           LD C,$11
3067+  0D2D B9              CP C
3068+  0D2E 30 02           JR NC,L_0D32
3069+  0D30 0E 01           LD C,$01
3070+  0D32             
3071+  0D32             ; RIGHT
3072+  0D32             L_0D32:
3073+  0D32 CD AA 0A        CALL SUB_0AAA
3074+  0D35 C9              RET
3075+  0D36             
3076+  0D36             ; --------------------------------------
3077+  0D36             ; THE 'PLOT AND UNPLOT' COMMAND ROUTINES
3078+  0D36             ; --------------------------------------
3079+  0D36             
3080+  0D36             ; PLOT/UNP
3081+  0D36             SUB_0D36:
3082+  0D36 CD 7A 0D        CALL SUB_0D7A
3083+  0D39 ED 43 36 40     LD ($4036),BC
3084+  0D3D 3E 2B           LD A,$2B
3085+  0D3F 90              SUB B
3086+  0D40 DA 8E 10        JP C,L_108E
3087+  0D43 47              LD B,A
3088+  0D44 3E 01           LD A,$01
3089+  0D46 CB 28           SRA B
3090+  0D48 30 02           JR NC,L_0D4C
3091+  0D4A 3E 04           LD A,$04
3092+  0D4C             
3093+  0D4C             ; COLUMNS
3094+  0D4C             L_0D4C:
3095+  0D4C CB 29           SRA C
3096+  0D4E 30 01           JR NC,L_0D51
3097+  0D50 07              RLCA
3098+  0D51             
3099+  0D51             ; FIND-ADDR
3100+  0D51             L_0D51:
3101+  0D51 F5              PUSH AF
3102+  0D52 CD 94 0A        CALL SUB_0A94
3103+  0D55 7E              LD A,(HL)
3104+  0D56 07              RLCA
3105+  0D57 FE 10           CP $10
3106+  0D59 30 06           JR NC,L_0D61
3107+  0D5B 0F              RRCA
3108+  0D5C 30 02           JR NC,L_0D60
3109+  0D5E EE 8F           XOR $8F
3110+  0D60             
3111+  0D60             ; SQ-SAVED
3112+  0D60             L_0D60:
3113+  0D60 47              LD B,A
3114+  0D61             
3115+  0D61             ; TABLE-PTR
3116+  0D61             L_0D61:
3117+  0D61 11 12 0E        LD DE,L_0E12                        ; Address: P-UNPLOT
3118+  0D64 3A 30 40        LD A,($4030)
3119+  0D67 93              SUB E
3120+  0D68 FA 70 0D        JP M,L_0D70
3121+  0D6B F1              POP AF
3122+  0D6C 2F              CPL
3123+  0D6D A0              AND B
3124+  0D6E 18 02           JR L_0D72
3125+  0D70             
3126+  0D70             ; PLOT
3127+  0D70             L_0D70:
3128+  0D70 F1              POP AF
3129+  0D71 B0              OR B
3130+  0D72             
3131+  0D72             ; UNPLOT
3132+  0D72             L_0D72:
3133+  0D72 FE 08           CP $08
3134+  0D74 38 02           JR C,L_0D78
3135+  0D76 EE 8F           XOR $8F
3136+  0D78             
3137+  0D78             ; PLOT-END
3138+  0D78             L_0D78:
3139+  0D78                                                     ; Missing EXX before and after RST 10H
3140+  0D78 D7              RST 10H
3141+  0D79                                                     ;
3142+  0D79 C9              RET
3143+  0D7A             
3144+  0D7A             ; ----------------------------
3145+  0D7A             ; THE 'STACK-TO-BC' SUBROUTINE
3146+  0D7A             ; ----------------------------
3147+  0D7A             
3148+  0D7A             ; STK-TO-BC
3149+  0D7A             SUB_0D7A:
3150+  0D7A CD 83 10        CALL SUB_1083
3151+  0D7D 47              LD B,A
3152+  0D7E C5              PUSH BC
3153+  0D7F CD 83 10        CALL SUB_1083
3154+  0D82 C1              POP BC                              ; missing setting E and D to previous values of C
3155+  0D83 4F              LD C,A
3156+  0D84 C9              RET
3157+  0D85             
3158+  0D85             ; -------------------
3159+  0D85             ; THE 'SYNTAX' TABLES
3160+  0D85             ; -------------------
3161+  0D85             
3162+  0D85             ; i) The Offset table
3163+  0D85             
3164+  0D85             ; offset-t
3165+  0D85             L_0D85:
3166+  0D85 24              .BYTE    L_0DA9 - $                 ; offset of $24 for TEMPO
3167+  0D86 27              .BYTE    L_0DAD - $                 ; offset of $27 for MUSIC
3168+  0D87 29              .BYTE    L_0DB0 - $                 ; offset of $29 for SOUND
3169+  0D88 2E              .BYTE    L_0DB6 - $                 ; offset of $2E for BEEP
3170+  0D89 30              .BYTE    L_0DB9 - $                 ; offset of $30 for NOBEEP
3171+  0D8A 9E              .BYTE    L_0E28 - $                 ; offset of $9E for LPRINT
3172+  0D8B A0              .BYTE    L_0E2B - $                 ; offset of $A0 for LLIST
3173+  0D8C 40              .BYTE    L_0DCC - $                 ; offset of $40 for STOP
3174+  0D8D 92              .BYTE    L_0E1F - $                 ; offset of $92 for SLOW
3175+  0D8E 94              .BYTE    L_0E22 - $                 ; offset of $94 for FAST
3176+  0D8F 5C              .BYTE    L_0DEB - $                 ; offset of $5C for NEW
3177+  0D90 88              .BYTE    L_0E18 - $                 ; offset of $88 for SCROLL
3178+  0D91 72              .BYTE    L_0E03 - $                 ; offset of $72 for CONT
3179+  0D92 53              .BYTE    L_0DE5 - $                 ; offset of $53 for DIM
3180+  0D93 55              .BYTE    L_0DE8 - $                 ; offset of $55 for REM
3181+  0D94 3E              .BYTE    L_0DD2 - $                 ; offset of $3E for FOR
3182+  0D95 2A              .BYTE    L_0DBF - $                 ; offset of $2A for GOTO
3183+  0D96 32              .BYTE    L_0DC8 - $                 ; offset of $32 for GOSUB
3184+  0D97 4A              .BYTE    L_0DE1 - $                 ; offset of $4A for INPUT
3185+  0D98 65              .BYTE    L_0DFD - $                 ; offset of $65 for LOAD
3186+  0D99 58              .BYTE    L_0DF1 - $                 ; offset of $58 for LIST
3187+  0D9A 22              .BYTE    L_0DBC - $                 ; offset of $22 for LET
3188+  0D9B 80              .BYTE    L_0E1B - $                 ; offset of $80 for PAUSE
3189+  0D9C 3E              .BYTE    L_0DDA - $                 ; offset of $3E for NEXT
3190+  0D9D 57              .BYTE    L_0DF4 - $                 ; offset of $57 for POKE
3191+  0D9E 40              .BYTE    L_0DDE - $                 ; offset of $40 for PRINT
3192+  0D9F 6D              .BYTE    L_0E0C - $                 ; offset of $6D for PLOT
3193+  0DA0 4E              .BYTE    L_0DEE - $                 ; offset of $4E for RUN
3194+  0DA1 5F              .BYTE    L_0E00 - $                 ; offset of $5F for SAVE
3195+  0DA2 58              .BYTE    L_0DFA - $                 ; offset of $58 for RAND
3196+  0DA3 20              .BYTE    L_0DC3 - $                 ; offset of $20 for IF
3197+  0DA4 65              .BYTE    L_0E09 - $                 ; offset of $65 for CLS
3198+  0DA5 6D              .BYTE    L_0E12 - $                 ; offset of $6D for UNPLOT
3199+  0DA6 60              .BYTE    L_0E06 - $                 ; offset of $60 for CLEAR
3200+  0DA7 28              .BYTE    L_0DCF - $                 ; offset of $28 for RETURN
3201+  0DA8 7D              .BYTE    L_0E25 - $                 ; offset of $7D for COPY
3202+  0DA9             
3203+  0DA9             ; P-TEMPO
3204+  0DA9             L_0DA9:
3205+  0DA9 06              .BYTE    $06                        ; Class-06 - A numeric expression must follow.
3206+  0DAA 00              .BYTE    $00                        ; Class-00 - No further operands.
3207+  0DAB 5C 10           .WORD    SUB_105C                   ; TEMPO
3208+  0DAD             
3209+  0DAD             ; P-MUSIC
3210+  0DAD             L_0DAD:
3211+  0DAD 05              .BYTE    $05                        ; Class-05 - Variable syntax checked entirely by routine.
3212+  0DAE 4D 0F           .WORD    SUB_0F4D                   ; MUSIC
3213+  0DB0             
3214+  0DB0             ; P-SOUND
3215+  0DB0             L_0DB0:
3216+  0DB0 06              .BYTE    $06                        ; Class-06 - A numeric expression must follow.
3217+  0DB1 1A              .BYTE    $1A                        ; Separator:  ','
3218+  0DB2 06              .BYTE    $06                        ; Class-06 - A numeric expression must follow.
3219+  0DB3 00              .BYTE    $00                        ; Class-00 - No further operands.
3220+  0DB4 57 04           .WORD   SUB_0457                    ; SOUND
3221+  0DB6             
3222+  0DB6             L_0DB6:
3223+  0DB6             ; P-BEEP
3224+  0DB6 00              .BYTE    $00                        ; Class-00 - No further operands.
3225+  0DB7 31 11           .WORD    SUB_1131                   ; BEEP
3226+  0DB9             
3227+  0DB9             ; P-NOBEEP
3228+  0DB9             L_0DB9:
3229+  0DB9 00              .BYTE    $00                        ; Class-00 - No further operands.
3230+  0DBA 36 11           .WORD    SUB_1136                   ; NOBEEP
3231+  0DBC             
3232+  0DBC             ; P-LET
3233+  0DBC             L_0DBC:
3234+  0DBC 01              .BYTE    $01                        ; Class-01 - A variable is required.
3235+  0DBD 14              .BYTE    $14                        ; Separator:  '='
3236+  0DBE 02              .BYTE    $02                        ; Class-02 - An expression, numeric or string, must follow.
3237+  0DBF                                                     ; no function to call
3238+  0DBF             ; P-GOTO
3239+  0DBF             L_0DBF:
3240+  0DBF 06              .BYTE    $06                        ; Class-06 - A numeric expression must follow.
3241+  0DC0 00              .BYTE    $00                        ; Class-00 - No further operands.
3242+  0DC1 68 10           .WORD    SUB_1068                   ; GOTO
3243+  0DC3             
3244+  0DC3             ; P-IF
3245+  0DC3             L_0DC3:
3246+  0DC3 06              .BYTE    $06            ; CLASS-06 - A NUMERIC EXPRESSION MUST FOLLOW.                                    ;
3247+  0DC4 40              .BYTE    $40                        ; Separator:  'THEN' ($DE on ZX81)
3248+  0DC5 05              .BYTE    $05                        ; Class-05 - Variable syntax checked entirely by routine.
3249+  0DC6 2E 0E           .WORD    SUB_0E2E                   ; IF
3250+  0DC8             
3251+  0DC8             ; P-GOSUB
3252+  0DC8             L_0DC8:
3253+  0DC8 06              .BYTE    $06                        ; Class-06 - A numeric expression must follow.
3254+  0DC9 00              .BYTE    $00                        ; Class-00 - No further operands.
3255+  0DCA 90 10           .WORD    SUB_1090                   ; GOSUB
3256+  0DCC             
3257+  0DCC             ; P-STOP
3258+  0DCC             L_0DCC:
3259+  0DCC 00              .BYTE    $00            ; CLASS-00 - NO FURTHER OPERANDS.                          ;
3260+  0DCD 91 0E           .WORD    SUB_0E91                   ; STOP
3261+  0DCF             
3262+  0DCF             ; P-RETURN
3263+  0DCF             L_0DCF:
3264+  0DCF 00              .BYTE    $00                        ; Class-00 - No further operands.
3265+  0DD0 B3 10           .WORD    SUB_10B3                   ; RETURN
3266+  0DD2             
3267+  0DD2             ; P-FOR
3268+  0DD2             L_0DD2:
3269+  0DD2 04              .BYTE    $04                        ; Class-04 - A single character variable must follow.
3270+  0DD3 14              .BYTE    $14                        ; Separator:  '='
3271+  0DD4 06              .BYTE    $06                        ; Class-06 - A numeric expression must follow.
3272+  0DD5 41              .BYTE    $41                        ; Separator:  'TO' (was $DF on ZX81)
3273+  0DD6 06              .BYTE    $06                        ; Class-06 - A numeric expression must follow.
3274+  0DD7 05              .BYTE    $05                        ; Class-05 - Variable syntax checked entirely by routine.
3275+  0DD8 C9 0F           .WORD    SUB_0FC9                   ; FOR
3276+  0DDA             
3277+  0DDA             ; P-NEXT
3278+  0DDA             L_0DDA:
3279+  0DDA 04              .BYTE    $04                        ; Class-04 - A single character variable must follow.
3280+  0DDB 00              .BYTE    $00                        ; Class-00 - No further operands.
3281+  0DDC 0E 10           .WORD    SUB_100E                   ; NEXT
3282+  0DDE             
3283+  0DDE             ; P-PRINT
3284+  0DDE             L_0DDE:
3285+  0DDE 05              .BYTE    $05                        ; Class-05 - Variable syntax checked entirely by routine.
3286+  0DDF 5F 0C           .WORD    SUB_0C5F                   ; PRINT
3287+  0DE1             
3288+  0DE1             ; P-INPUT
3289+  0DE1             L_0DE1:
3290+  0DE1 01              .BYTE    $01                        ; Class-01 - A variable is required.
3291+  0DE2 00              .BYTE    $00                        ; Class-00 - No further operands.
3292+  0DE3 C4 10           .WORD    SUB_10C4                   ; INPUT
3293+  0DE5             
3294+  0DE5             ; P-DIM
3295+  0DE5             L_0DE5:
3296+  0DE5 05              .BYTE    $05                        ; Class-05 - Variable syntax checked entirely by routine.
3297+  0DE6 FE 15           .WORD    SUB_15FE                   ;
3298+  0DE8             
3299+  0DE8             ; P-REM
3300+  0DE8             L_0DE8:
3301+  0DE8 05              .BYTE    $05                        ; Class-05 - Variable syntax checked entirely by routine.
3302+  0DE9 E7 0E           .WORD    SUB_0EE7                   ; REM
3303+  0DEB             
3304+  0DEB             ; P-NEW
3305+  0DEB             L_0DEB:
3306+  0DEB 00              .BYTE    $00                        ; Class-00 - No further operands.
3307+  0DEC 81 04           .WORD    SUB_0481                   ; NEW
3308+  0DEE             
3309+  0DEE             ; P-RUN
3310+  0DEE             L_0DEE:
3311+  0DEE 03              .BYTE    $03                        ; Class-03 - A numeric expression may follow else default to zero.
3312+  0DEF 8F 16           .WORD    SUB_168F                   ; RUN
3313+  0DF1             
3314+  0DF1             ; P-LIST
3315+  0DF1             L_0DF1:
3316+  0DF1 03              .BYTE    $03                        ; Class-03 - A numeric expression may follow else default to zero.
3317+  0DF2 BF 08           .WORD    SUB_08BF                   ; LIST
3318+  0DF4             
3319+  0DF4             ; P-POKE
3320+  0DF4             L_0DF4:
3321+  0DF4 06              .BYTE    $06                        ; Class-06 - A numeric expression must follow.
3322+  0DF5 1A              .BYTE    $1A                        ; Separator:  ','
3323+  0DF6 06              .BYTE    $06                        ; Class-06 - A numeric expression must follow.
3324+  0DF7 00              .BYTE    $00                        ; Class-00 - No further operands.
3325+  0DF8 79 10           .WORD    SUB_1079                   ; POKE
3326+  0DFA             
3327+  0DFA             ; P-RAND
3328+  0DFA             L_0DFA:
3329+  0DFA 03              .BYTE    $03                        ; Class-03 - A numeric expression may follow else default to zero.
3330+  0DFB 4C 10           .WORD    SUB_104C                   ; RAND
3331+  0DFD             
3332+  0DFD             ; P-LOAD
3333+  0DFD             L_0DFD:
3334+  0DFD 05              .BYTE    $05                        ; Class-05 - Variable syntax checked entirely by routine.
3335+  0DFE CD 03           .WORD    SUB_03CD                   ; LOAD
3336+  0E00             
3337+  0E00             ; P-SAVE
3338+  0E00             L_0E00:
3339+  0E00 05              .BYTE    $05                        ; Class-05 - Variable syntax checked entirely by routine.
3340+  0E01 7F 03           .WORD    SUB_037F                   ; SAVE
3341+  0E03             
3342+  0E03             ; P-CONT
3343+  0E03             L_0E03:
3344+  0E03 00              .BYTE    $00                        ; Class-00 - No further operands.
3345+  0E04 63 10           .WORD    SUB_1063                   ; CONT
3346+  0E06             
3347+  0E06             ; P-CLEAR
3348+  0E06             L_0E06:
3349+  0E06 00              .BYTE    $00                        ; Class-00 - No further operands.
3350+  0E07 92 16           .WORD    SUB_1692                   ; CLEAR
3351+  0E09             
3352+  0E09             ; P-CLS
3353+  0E09             L_0E09:
3354+  0E09 00              .BYTE    $00                        ; Class-00 - No further operands.
3355+  0E0A D0 0B           .WORD    SUB_0BD0                   ; CLS
3356+  0E0C             
3357+  0E0C             ; P-PLOT
3358+  0E0C             L_0E0C:
3359+  0E0C 06              .BYTE    $06                        ; Class-06 - A numeric expression must follow.
3360+  0E0D 1A              .BYTE    $1A                        ; Separator:  ','
3361+  0E0E 06              .BYTE    $06                        ; Class-06 - A numeric expression must follow.
3362+  0E0F 00              .BYTE    $00                        ; Class-00 - No further operands.
3363+  0E10 36 0D           .WORD    SUB_0D36                   ; PLOT/UNPLOT
3364+  0E12             
3365+  0E12             ; P-UNPLOT
3366+  0E12             L_0E12:
3367+  0E12 06              .BYTE    $06                        ; Class-06 - A numeric expression must follow.
3368+  0E13 1A              .BYTE    $1A                        ; Separator:  ','
3369+  0E14 06              .BYTE    $06                        ; Class-06 - A numeric expression must follow.
3370+  0E15 00              .BYTE    $00                        ; Class-00 - No further operands.
3371+  0E16 36 0D           .WORD    SUB_0D36                   ; PLOT/UNPLOT
3372+  0E18             
3373+  0E18             ; P-SCROLL
3374+  0E18             L_0E18:
3375+  0E18 00              .BYTE    $00                        ; Class-00 - No further operands.
3376+  0E19 B1 0B           .WORD    SUB_0BB1                   ; SCROLL
3377+  0E1B             
3378+  0E1B             ; P-PAUSE
3379+  0E1B             L_0E1B:
3380+  0E1B 06              .BYTE    $06                        ; Class-06 - A numeric expression must follow.
3381+  0E1C 00              .BYTE    $00                        ; Class-00 - No further operands.
3382+  0E1D FE 10           .WORD    SUB_10FE                   ; PAUSE
3383+  0E1F             
3384+  0E1F             ; P-SLOW
3385+  0E1F             L_0E1F:
3386+  0E1F 00              .BYTE    $00                        ; Class-00 - No further operands.
3387+  0E20 81 02           .WORD    SUB_0281                   ; SLOW
3388+  0E22             
3389+  0E22             ; P-FAST
3390+  0E22             L_0E22:
3391+  0E22 00              .BYTE    $00                        ; Class-00 - No further operands.
3392+  0E23 6C 03           .WORD    SUB_036C                   ; FAST
3393+  0E25             
3394+  0E25             ; P-COPY
3395+  0E25             L_0E25:
3396+  0E25 00              .BYTE    $00                        ; Class-00 - No further operands.
3397+  0E26 0A 0A           .WORD    SUB_0101                   ; COPY
3398+  0E28             
3399+  0E28             ; P-LPRINT
3400+  0E28             L_0E28:
3401+  0E28 05              .BYTE    $05                        ; Class-05 - Variable syntax checked entirely by routine.
3402+  0E29 5B 0C           .WORD    SUB_0C5B                   ; LPRINT
3403+  0E2B             
3404+  0E2B             ; P-LLIST
3405+  0E2B             L_0E2B:
3406+  0E2B 03              .BYTE    $03                        ; Class-03 - A numeric expression may follow else default to zero.
3407+  0E2C BB 08           .WORD    SUB_08BB                   ; LLIST
3408+  0E2E             
3409+  0E2E             ; ------------------------
3410+  0E2E             ; THE 'IF' COMMAND ROUTINE
3411+  0E2E             ; ------------------------
3412+  0E2E             
3413+  0E2E             ; IF
3414+  0E2E             SUB_0E2E
3415+  0E2E CD 23 0F        CALL SUB_0F23
3416+  0E31 28 06           JR Z,L_0E39
3417+  0E33 EF              RST 28H                             ; FP-CALC
3418+  0E34 02              .BYTE    $02                        ; delete
3419+  0E35 34              .BYTE    $34                        ; end-calc
3420+  0E36 1A              LD A,(DE)
3421+  0E37 A7              AND A
3422+  0E38 C8              RET Z
3423+  0E39             
3424+  0E39             ; IF-END
3425+  0E39             L_0E39:
3426+  0E39 18 18           JR L_0E53
3427+  0E3B             
3428+  0E3B             ; ---------------------------
3429+  0E3B             ; THE 'LINE SCANNING' ROUTINE
3430+  0E3B             ; ---------------------------
3431+  0E3B             
3432+  0E3B             ; LINE-SCAN
3433+  0E3B             SUB_0E3B:
3434+  0E3B FD 36 01 01     LD (IY+$01),$01
3435+  0E3F CD 08 0C        CALL SUB_0C08
3436+  0E42             
3437+  0E42             ; LINE-RUN    
3438+  0E42             SUB_0E42:
3439+  0E42 CD B4 16        CALL L_16B4
3440+  0E45 21 00 40        LD HL,$4000
3441+  0E48 36 FF           LD (HL),$FF
3442+  0E4A 21 2D 40        LD HL,$402D
3443+  0E4D CB 6E           BIT 5,(HL)
3444+  0E4F 7E              LD A,(HL)
3445+  0E50 C2 EC 0E        JP NZ,L_0EEC
3446+  0E53             
3447+  0E53             ; LINE-NULL    
3448+  0E53             L_0E53:
3449+  0E53 DF              RST 18H                             ; GET-CHAR
3450+  0E54 06 00           LD B,$00
3451+  0E56 FE 76           CP $76
3452+  0E58 C8              RET Z
3453+  0E59 4F              LD C,A
3454+  0E5A FE 40           CP $40                              ; different to ZX81
3455+  0E5C 3E F1           LD A,$F1                            ;
3456+  0E5E 38 02           JR C,L_0E62                         ;
3457+  0E60             
3458+  0E60 E7              RST 20H                             ; NEXT-CHAR advances
3459+  0E61 79              LD A,C
3460+  0E62             L_0E62:
3461+  0E62 D6 DC           SUB $DC                             ; Subtract lower command (Was $E1, LPRINT in ZX81)
3462+  0E64 38 3D           JR C,L_0EA3                         ; different
3463+  0E66 4F              LD C,A                              ;
3464+  0E67 21 85 0D        LD HL,L_0D85                        ;
3465+  0E6A 09              ADD HL,BC
3466+  0E6B             
3467+  0E6B 4E              LD C,(HL)
3468+  0E6C 09              ADD HL,BC
3469+  0E6D 18 03           JR L_0E72
3470+  0E6F             
3471+  0E6F             ; SCAN-LOOP    
3472+  0E6F             L_0E6F:
3473+  0E6F 2A 30 40        LD HL,($4030)
3474+  0E72             
3475+  0E72             ; GET-PARAM    
3476+  0E72             L_0E72:
3477+  0E72 7E              LD A,(HL)
3478+  0E73 23              INC HL
3479+  0E74 22 30 40        LD ($4030),HL
3480+  0E77 01 6F 0E        LD BC,L_0E6F
3481+  0E7A C5              PUSH BC
3482+  0E7B 4F              LD C,A
3483+  0E7C FE 0B           CP $0B
3484+  0E7E 30 0B           JR NC,L_0E8B
3485+  0E80 21 93 0E        LD HL,L_0E93                        ; Command class table             
3486+  0E83 06 00           LD B,$00
3487+  0E85 09              ADD HL,BC
3488+  0E86 4E              LD C,(HL)
3489+  0E87 09              ADD HL,BC
3490+  0E88 E5              PUSH HL
3491+  0E89 DF              RST 18H
3492+  0E8A C9              RET
3493+  0E8B             L_0E8B:
3494+  0E8B DF              RST 18H
3495+  0E8C B9              CP C
3496+  0E8D 20 14           JR NZ,L_0EA3
3497+  0E8F E7              RST 20H                             ; was RST 18H on ZX81
3498+  0E90 C9              RET
3499+  0E91             
3500+  0E91             ; --------------------------
3501+  0E91             ; THE 'STOP' COMMAND ROUTINE
3502+  0E91             ; --------------------------
3503+  0E91             
3504+  0E91             ; STOP
3505+  0E91             SUB_0E91:
3506+  0E91 CF              RST 08H                             ; ERROR-1
3507+  0E92 08              .BYTE $08                           ; ST - STopped
3508+  0E93             
3509+  0E93             ; -------------------------
3510+  0E93             ; THE 'COMMAND CLASS' TABLE
3511+  0E93             ; -------------------------
3512+  0E93             
3513+  0E93             ; class-tbl
3514+  0E93             L_0E93:
3515+  0E93 17              .BYTE SUB_0EAA - $                  ; offset of $17 to CLASS-0
3516+  0E94 25              .BYTE SUB_0EB9 - $                  ; offset of $25 to CLASS-1
3517+  0E95 53              .BYTE SUB_0EE8 - $                  ; offset of $53 to CLASS-2
3518+  0E96 0F              .BYTE SUB_0EA5 - $                  ; offset of $0F to CLASS-3
3519+  0E97 6B              .BYTE SUB_0F02 - $                  ; offset of $6B to CLASS-4
3520+  0E98 13              .BYTE SUB_0EAB - $                  ; offset of $13 to CLASS-5
3521+  0E99 76              .BYTE SUB_0F0F - $                  ; offset of $76 to CLASS-6
3522+  0E9A             
3523+  0E9A             ; --------------------------
3524+  0E9A             ; THE 'CHECK END' SUBROUTINE
3525+  0E9A             ; --------------------------
3526+  0E9A             
3527+  0E9A             ; CHECK-END
3528+  0E9A             SUB_0E9A:
3529+  0E9A CD 23 0F        CALL SUB_0F23
3530+  0E9D C0              RET NZ
3531+  0E9E C1              POP BC
3532+  0E9F             
3533+  0E9F             ; CHECK-2
3534+  0E9F             L_0E9F:
3535+  0E9F 7E              LD A,(HL)
3536+  0EA0 FE 76           CP $76
3537+  0EA2 C8              RET Z
3538+  0EA3             
3539+  0EA3             ; REPORT-C2
3540+  0EA3             L_0EA3:
3541+  0EA3 18 72           JR L_0F17                           ; to REPORT-C - Invalid Expression
3542+  0EA5             
3543+  0EA5             ; --------------------------
3544+  0EA5             ; COMMAND CLASSES 03, 00, 05
3545+  0EA5             ; --------------------------
3546+  0EA5             
3547+  0EA5             ; CLASS-3
3548+  0EA5             SUB_0EA5:
3549+  0EA5 FE 76           CP $76
3550+  0EA7 CD 19 0F        CALL SUB_0F19
3551+  0EAA             
3552+  0EAA             ; CLASS-0
3553+  0EAA             SUB_0EAA:
3554+  0EAA BF              CP A
3555+  0EAB             
3556+  0EAB             ; CLASS-5
3557+  0EAB             SUB_0EAB:
3558+  0EAB C1              POP BC
3559+  0EAC CC 9A 0E        CALL Z,SUB_0E9A                     ; routine CHECK-END
3560+  0EAF EB              EX DE,HL
3561+  0EB0 2A 30 40        LD HL,($4030)
3562+  0EB3 4E              LD C,(HL)
3563+  0EB4 23              INC HL
3564+  0EB5 46              LD B,(HL)
3565+  0EB6 EB              EX DE,HL
3566+  0EB7             
3567+  0EB7             ; CLASS-END
3568+  0EB7             L_0EB7:
3569+  0EB7 C5              PUSH BC
3570+  0EB8 C9              RET
3571+  0EB9             
3572+  0EB9             ; ------------------------------
3573+  0EB9             ; COMMAND CLASSES 01, 02, 04, 06
3574+  0EB9             ; ------------------------------
3575+  0EB9             
3576+  0EB9             ; CLASS-1
3577+  0EB9             SUB_0EB9:
3578+  0EB9 CD 11 13        CALL $1311
3579+  0EBC             
3580+  0EBC             ; CLASS-4-2
3581+  0EBC             L_0EBC:
3582+  0EBC FD 36 2D 00     LD (IY+$2D),$00
3583+  0EC0 30 08           JR NC,$+10
3584+  0EC2 FD CB 2D CE     SET 1,(IY+$2D)
3585+  0EC6 20 18           JR NZ,L_0EE0
3586+  0EC8             
3587+  0EC8             
3588+  0EC8             ; REPORT-2
3589+  0EC8             L_0EC8:
3590+  0EC8 CF              RST 08H                             ; ERROR-1
3591+  0EC9 01              .BYTE $01                           ; UV - Unidentified Variable
3592+  0ECA             
3593+  0ECA             ; SET-STK
3594+  0ECA CC 9C 13        CALL Z,SUB_139C
3595+  0ECD FD CB 01 76     BIT 6,(IY+$01)                      ; check FLAGS - 0 = string or 1 = numeric result
3596+  0ED1 20 0D           JR NZ,L_0EE0
3597+  0ED3 AF              XOR A
3598+  0ED4 CD 23 0F        CALL SUB_0F23
3599+  0ED7 C4 ED 15        CALL NZ,SUB_15ED                    ; routine STK-FETCH
3600+  0EDA 21 2D 40        LD HL,$402D
3601+  0EDD B6              OR (HL)
3602+  0EDE 77              LD (HL),A
3603+  0EDF EB              EX DE,HL
3604+  0EE0             
3605+  0EE0             ; SET-STRLN
3606+  0EE0             L_0EE0:
3607+  0EE0 ED 43 2E 40     LD ($402E),BC
3608+  0EE4 22 12 40        LD ($4012),HL
3609+  0EE7                                           ; drops through
3610+  0EE7             
3611+  0EE7             ; THE 'REM' COMMAND ROUTINE
3612+  0EE7             
3613+  0EE7             ; REM
3614+  0EE7             SUB_0EE7:
3615+  0EE7 C9              RET
3616+  0EE8             
3617+  0EE8             ; CLASS-2
3618+  0EE8             SUB_0EE8:
3619+  0EE8 C1              POP BC
3620+  0EE9 3A 01 40        LD A,($4001)
3621+  0EEC             
3622+  0EEC             ; INPUT-REP
3623+  0EEC             L_0EEC:
3624+  0EEC F5              PUSH AF
3625+  0EED CD 4A 11        CALL SUB_114A                       ; routine SCANNING
3626+  0EF0 F1              POP AF
3627+  0EF1 01 16 15        LD BC,L_1516
3628+  0EF4 FD 56 01        LD D,(IY+$01)
3629+  0EF7 AA              XOR D
3630+  0EF8 E6 40           AND $40
3631+  0EFA 20 1B           JR NZ,L_0F17                        ; to REPORT-C - Invalid Expression
3632+  0EFC CB 7A           BIT 7,D
3633+  0EFE 20 B7           JR NZ,L_0EB7
3634+  0F00 18 9D           JR L_0E9F
3635+  0F02             
3636+  0F02             ; CLASS-4
3637+  0F02             SUB_0F02:
3638+  0F02 CD 11 13        CALL $1311
3639+  0F05 F5              PUSH AF
3640+  0F06 79              LD A,C
3641+  0F07 F6 9F           OR $9F
3642+  0F09 3C              INC A
3643+  0F0A 20 0B           JR NZ,L_0F17                        ; to REPORT-C - Invalid Expression
3644+  0F0C F1              POP AF
3645+  0F0D 18 AD           JR L_0EBC
3646+  0F0F             
3647+  0F0F             ; CLASS-6
3648+  0F0F             SUB_0F0F:
3649+  0F0F CD 4A 11        CALL SUB_114A                       ; routine SCANNING
3650+  0F12 FD CB 01 76     BIT 6,(IY+$01)                      ; check FLAGS - 0 = string or 1 = numeric result
3651+  0F16 C0              RET NZ
3652+  0F17             
3653+  0F17             ; REPORT-C
3654+  0F17             L_0F17:
3655+  0F17 CF              RST 08H                             ; ERROR-1
3656+  0F18 0B              .BYTE $0B                           ; IE - Invalid Expression
3657+  0F19             
3658+  0F19             ; --------------------------------
3659+  0F19             ; THE 'NUMBER TO STACK' SUBROUTINE
3660+  0F19             ; --------------------------------
3661+  0F19             
3662+  0F19             ; NO-TO-STK
3663+  0F19             SUB_0F19:
3664+  0F19 20 F4           JR NZ,SUB_0F0F
3665+  0F1B CD 23 0F        CALL SUB_0F23
3666+  0F1E C8              RET Z
3667+  0F1F EF              RST 28H                             ; FP-CALC
3668+  0F20 A0              .BYTE $A0                           ; stk-zero
3669+  0F21 34              .BYTE $34                           ; end-calc
3670+  0F22 C9              RET
3671+  0F23             
3672+  0F23             ; -------------------------
3673+  0F23             ; THE 'SYNTAX-Z' SUBROUTINE
3674+  0F23             ; -------------------------
3675+  0F23             
3676+  0F23             ; SYNTAX-Z
3677+  0F23             SUB_0F23:
3678+  0F23 FD CB 01 7E     BIT 7,(IY+$01)
3679+  0F27 C9              RET
3680+  0F28             
3681+  0F28             ; ---------------------
3682+  0F28             ; MORE 'MUSIC' ROUTINES
3683+  0F28             ; ---------------------
3684+  0F28             
3685+  0F28             ; MUSIC-TABLE
3686+  0F28             L_0F28:
3687+  0F28 94              .BYTE $94                           ; A
3688+  0F29 8B              .BYTE $8B                           ; A#
3689+  0F2A 84              .BYTE $84                           ; B
3690+  0F2B 7C              .BYTE $7C                           ; B#
3691+  0F2C F8              .BYTE $F8                           ; C
3692+  0F2D EB              .BYTE $EB                           ; C#
3693+  0F2E DD              .BYTE $DD                           ; D
3694+  0F2F D1              .BYTE $D1                           ; D#
3695+  0F30 C5              .BYTE $C5                           ; E
3696+  0F31 BA              .BYTE $BA                           ; (=F)
3697+  0F32 BA              .BYTE $BA                           ; F
3698+  0F33 B0              .BYTE $B0                           ; F#
3699+  0F34 A6              .BYTE $A6                           ; G
3700+  0F35 9D              .BYTE $9D                           ; G#
3701+  0F36             
3702+  0F36             ; MUSIC-9
3703+  0F36             SUB_0F36:
3704+  0F36 FE 26           CP $26
3705+  0F38 D0              RET NC
3706+  0F39 D6 1C           SUB $1C
3707+  0F3B 3F              CCF
3708+  0F3C C9              RET
3709+  0F3D             
3710+  0F3D             ; MUSIC-10
3711+  0F3D             L_0F3D:
3712+  0F3D 78              LD A,B
3713+  0F3E B1              OR C
3714+  0F3F C8              RET Z                               ; return if A and B are 0
3715+  0F40 7E              LD A,(HL)                           ; get character
3716+  0F41 23              INC HL                              ; step pointer
3717+  0F42 0B              DEC BC                              ; decrement length
3718+  0F43 A7              AND A                               ; check character
3719+  0F44 C0              RET NZ                              ; return if not a space
3720+  0F45 18 F6           JR L_0F3D                           ; to MUSIC-10
3721+  0F47             
3722+  0F47             ; MUSIC-11
3723+  0F47             SUB_0F47:
3724+  0F47 CD 3D 0F        CALL L_0F3D                         ; to MUSIC-10
3725+  0F4A C0              RET NZ
3726+  0F4B             
3727+  0F4B             ; REPORT-MF
3728+  0F4B             L_0F4B:
3729+  0F4B CF              RST 08H                             ; ERROR-1
3730+  0F4C 0E              .BYTE $0E                           ; MF - Music Format incorrect
3731+  0F4D             
3732+  0F4D             ; ---------------------------
3733+  0F4D             ; THE 'MUSIC' COMMAND ROUTINE
3734+  0F4D             ; ---------------------------
3735+  0F4D             
3736+  0F4D             ; MUSIC
3737+  0F4D             SUB_0F4D:
3738+  0F4D CD 4A 11        CALL SUB_114A                       ; routine SCANNING
3739+  0F50 FD CB 01 76     BIT 6,(IY+$01)                      ; check FLAGS - 0 = string or 1 = numeric result
3740+  0F54 20 C1           JR NZ,L_0F17                        ; to REPORT-C - Invalid Expression
3741+  0F56 CD 9A 0E        CALL SUB_0E9A                       ; routine CHECK-END
3742+  0F59 CD ED 15        CALL SUB_15ED                       ; routine STK-FETCH
3743+  0F5C EB              EX DE,HL                            ; DE now start address, HL string length
3744+  0F5D CD 70 03        CALL SUB_0370                       ; routine SET-FAST
3745+  0F60             
3746+  0F60             ; MUSIC-1
3747+  0F60             L_0F60:
3748+  0F60 CD 3D 0F        CALL L_0F3D                         ; routine MUSIC-10 (get next character)
3749+  0F63 CA 85 02        JP Z,SUB_0285                       ; check in FAST mode
3750+  0F66 FE 1B           CP $1B                              ; is character '"'
3751+  0F68 1E 01           LD E,$01
3752+  0F6A 28 22           JR Z,L_0F8E                         ; to MUSIC-2 if it is
3753+  0F6C 07              RLCA                                ; character x2
3754+  0F6D FE 5A           CP $5A                              ; Before the rotate, A would have been $2D, 'H', so checking A-G
3755+  0F6F 30 DA           JR NC,L_0F4B                        ; to REPORT, Music Format incorrect
3756+  0F71 D6 4C           SUB $4C
3757+  0F73 38 D6           JR C,L_0F4B                         ; to REPORT, Music Format incorrect
3758+  0F75             
3759+  0F75             ; get note
3760+  0F75 E5              PUSH HL
3761+  0F76 16 00           LD D,$00
3762+  0F78 5F              LD E,A
3763+  0F79 21 28 0F        LD HL,L_0F28                        ; address of MUSIC-TABLE
3764+  0F7C 19              ADD HL,DE                           ; offset by 2x letter - 4C
3765+  0F7D 5E              LD E,(HL)                           ; get note
3766+  0F7E E1              POP HL
3767+  0F7F             
3768+  0F7F CD 47 0F        CALL SUB_0F47                       ; routine MUSIC-11
3769+  0F82 FE 13           CP $13                              ; is character '<'
3770+  0F84 28 08           JR Z,L_0F8E                         ; to MUSIC-2 if it is
3771+  0F86 CB 3B           SRL E                               ; down an octave
3772+  0F88 FE 12           CP $12                              ; is character '>'
3773+  0F8A 20 05           JR NZ,L_0F91                        ; to MUSIC-3 if it isn't
3774+  0F8C CB 3B           SRL E                               ; down an octave
3775+  0F8E             
3776+  0F8E             ; MUSIC-2
3777+  0F8E             L_0F8E:
3778+  0F8E CD 47 0F        CALL SUB_0F47                       ; routine MUSIC-11
3779+  0F91             
3780+  0F91             ; MUSIC-3 - get duration
3781+  0F91             L_0F91:
3782+  0F91 CD 36 0F        CALL SUB_0F36                       ; routine MUSIC-9
3783+  0F94 30 B5           JR NC,L_0F4B                        ; to REPORT, Music Format incorrect
3784+  0F96 57              LD D,A
3785+  0F97 CD 3D 0F        CALL L_0F3D                         ; routine MUSIC-10
3786+  0F9A 28 12           JR Z,L_0FAE                         ; to MUSIC-5
3787+  0F9C CD 36 0F        CALL SUB_0F36                       ; routine MUSIC-9
3788+  0F9F 38 04           JR C,L_0FA5
3789+  0FA1 2B              DEC HL
3790+  0FA2 03              INC BC
3791+  0FA3 18 09           JR L_0FAE                           ; to MUSIC-5
3792+  0FA5             
3793+  0FA5             ; MUSIC-4
3794+  0FA5             L_0FA5:
3795+  0FA5 CB 22           SLA D
3796+  0FA7 82              ADD A,D
3797+  0FA8 CB 22           SLA D
3798+  0FAA CB 22           SLA D
3799+  0FAC 82              ADD A,D
3800+  0FAD 57              LD D,A
3801+  0FAE             
3802+  0FAE             ; MUSIC-5 - play note
3803+  0FAE             L_0FAE:
3804+  0FAE E5              PUSH HL
3805+  0FAF C5              PUSH BC
3806+  0FB0 62              LD H,D                              ; prepare note
3807+  0FB1 FD 6E 21        LD L,(IY+$21)                       ; TEMPO
3808+  0FB4 0E 00           LD C,$00
3809+  0FB6 53              LD D,E
3810+  0FB7             
3811+  0FB7             ; MUSIC-6
3812+  0FB7             L_0FB7:
3813+  0FB7 45              LD B,L
3814+  0FB8             ; by this point E = note (adjusted from table), BC = duration (from TEMPO)
3815+  0FB8 CD 63 04        CALL L_0463                         ; routine PLAY-NOTE-2
3816+  0FBB 25              DEC H
3817+  0FBC 20 F9           JR NZ,L_0FB7                        ; loop back to MUSIC-6
3818+  0FBE 06 05           LD B,$05
3819+  0FC0             
3820+  0FC0             ; MUSIC-7
3821+  0FC0             L_0FC0:
3822+  0FC0 0B              DEC BC
3823+  0FC1 78              LD A,B
3824+  0FC2 B1              OR C
3825+  0FC3 20 FB           JR NZ,L_0FC0                        ; loop until BC = 0
3826+  0FC5 C1              POP BC
3827+  0FC6 E1              POP HL
3828+  0FC7 18 97           JR L_0F60                           ; back to MUSIC-1
3829+  0FC9             
3830+  0FC9             
3831+  0FC9             ; -------------------------
3832+  0FC9             ; THE 'FOR' COMMAND ROUTINE
3833+  0FC9             ; -------------------------
3834+  0FC9             
3835+  0FC9             ; FOR
3836+  0FC9             SUB_0FC9:
3837+  0FC9 FE 42           CP $42                              ; STEP ($E0 on ZX81)
3838+  0FCB 20 09           JR NZ,L_0FD6
3839+  0FCD E7              RST 20H
3840+  0FCE CD 0F 0F        CALL SUB_0F0F
3841+  0FD1 CD 9A 0E        CALL SUB_0E9A                       ; routine CHECK-END
3842+  0FD4 18 06           JR L_0FDC
3843+  0FD6             
3844+  0FD6             ; F-USE-ONE
3845+  0FD6             L_0FD6:
3846+  0FD6 CD 9A 0E        CALL SUB_0E9A                       ; routine CHECK-END
3847+  0FD9 EF              RST 28H                             ; FP-CALC
3848+  0FDA A1              .BYTE $A1                           ; stk-one
3849+  0FDB 34              .BYTE $34                           ; end-calc
3850+  0FDC             
3851+  0FDC             ; F-REORDER
3852+  0FDC             L_0FDC:
3853+  0FDC EF              RST 28H                             ; FP-CALC      v, l, s.
3854+  0FDD C0              .BYTE $C0                           ; st-mem-0      v, l, s.
3855+  0FDE 02              .BYTE $02                           ; delete        v, l.
3856+  0FDF 01              .BYTE $01                           ; exchange      l, v.
3857+  0FE0 E0              .BYTE $E0                           ; get-mem-0     l, v, s.
3858+  0FE1 01              .BYTE $01                           ; exchange      l, s, v.
3859+  0FE2 34              .BYTE $34                           ; end-calc      l, s, v.
3860+  0FE3 CD 16 15        CALL L_1516
3861+  0FE6 22 1F 40        LD ($401F),HL
3862+  0FE9 2B              DEC HL
3863+  0FEA 7E              LD A,(HL)
3864+  0FEB CB FE           SET 7,(HL)
3865+  0FED 01 06 00        LD BC,$0006
3866+  0FF0 09              ADD HL,BC
3867+  0FF1 07              RLCA
3868+  0FF2 38 06           JR C,L_0FFA
3869+  0FF4 CB 21           SLA C
3870+  0FF6 CD 30 0B        CALL SUB_0B30                       ; MAKE-ROOM
3871+  0FF9 23              INC HL
3872+  0FFA             
3873+  0FFA             ; F-LMT-STP
3874+  0FFA             L_0FFA:
3875+  0FFA E5              PUSH HL
3876+  0FFB EF              RST 28H                             ; FP-CALC
3877+  0FFC 02              .BYTE $02                           ; delete
3878+  0FFD 02              .BYTE $02                           ; delete
3879+  0FFE 34              .BYTE $34                           ; end-calc
3880+  0FFF E1              POP HL
3881+  1000 EB              EX DE,HL
3882+  1001 0E 0A           LD C,$0A
3883+  1003 ED B0           LDIR
3884+  1005 2A 07 40        LD HL,($4007)
3885+  1008 EB              EX DE,HL
3886+  1009 13              INC DE
3887+  100A 73              LD (HL),E
3888+  100B 23              INC HL
3889+  100C 72              LD (HL),D
3890+  100D C9              RET                                 ; skips call to NEXT-LOOP
3891+  100E             
3892+  100E             ; --------------------------
3893+  100E             ; THE 'NEXT' COMMAND ROUTINE
3894+  100E             ; --------------------------
3895+  100E             
3896+  100E             ; NEXT
3897+  100E             SUB_100E:
3898+  100E FD CB 2D 4E     BIT 1,(IY+$2D)
3899+  1012 C2 C8 0E        JP NZ,L_0EC8
3900+  1015 2A 12 40        LD HL,($4012)
3901+  1018 CB 7E           BIT 7,(HL)
3902+  101A 28 1C           JR Z,L_1038
3903+  101C 23              INC HL
3904+  101D 22 1F 40        LD ($401F),HL
3905+  1020 EF              RST 28H                             ; FP-CALC
3906+  1021 E0              .BYTE $E0                           ; get-mem-0
3907+  1022 E2              .BYTE $E2                           ; get-mem-2
3908+  1023 0F              .BYTE $0F                           ; addition
3909+  1024 C0              .BYTE $C0                           ; st-mem-0
3910+  1025 02              .BYTE $02                           ; delete
3911+  1026 34              .BYTE $34                           ; end-calc
3912+  1027 CD 3A 10        CALL SUB_103A
3913+  102A D8              RET C
3914+  102B 2A 1F 40        LD HL,($401F)
3915+  102E 11 0F 00        LD DE,$000F
3916+  1031 19              ADD HL,DE
3917+  1032 5E              LD E,(HL)
3918+  1033 23              INC HL
3919+  1034 56              LD D,(HL)
3920+  1035 EB              EX DE,HL
3921+  1036 18 35           JR L_106D
3922+  1038             
3923+  1038             ; REPORT-1
3924+  1038             L_1038:
3925+  1038 CF              RST 08H                             ; ERROR-1
3926+  1039 00              .BYTE $00                           ; NF - Next without For
3927+  103A             
3928+  103A             ; --------------------------
3929+  103A             ; THE 'NEXT-LOOP' SUBROUTINE
3930+  103A             ; --------------------------
3931+  103A             
3932+  103A             ; NEXT-LOOP
3933+  103A             SUB_103A:
3934+  103A EF              RST 28H                             ; FP-CALC
3935+  103B E1              .BYTE $E1                           ; get-mem-1
3936+  103C E0              .BYTE $E0                           ; get-mem-0
3937+  103D E2              .BYTE $E2                           ; get-mem-2
3938+  103E 32              .BYTE $32                           ; less-0
3939+  103F 00              .BYTE $00                           ; jump-true
3940+  1040 02              .BYTE $02                           ; to LMT-V-VAL
3941+  1041 01              .BYTE $01                           ; exchange
3942+  1042             ; LMT-V-VAL
3943+  1042 03              .BYTE $03                           ; subtract
3944+  1043 33              .BYTE $33                           ; greater-0
3945+  1044 00              .BYTE $00                           ; jump-true
3946+  1045 04              .BYTE $04                           ; to L0E69, IMPOSS
3947+  1046 34              .BYTE $34                           ; end-calc
3948+  1047             
3949+  1047 A7              AND A
3950+  1048 C9              RET
3951+  1049             
3952+  1049             ; ?
3953+  1049 34              INC (HL)
3954+  104A 37              SCF
3955+  104B C9              RET
3956+  104C             
3957+  104C             ; --------------------------
3958+  104C             ; THE 'RAND' COMMAND ROUTINE
3959+  104C             ; --------------------------
3960+  104C             
3961+  104C             ; RAND
3962+  104C             SUB_104C:
3963+  104C CD 88 10        CALL SUB_1088
3964+  104F 78              LD A,B
3965+  1050 B1              OR C
3966+  1051 20 04           JR NZ,L_1057
3967+  1053 ED 4B 34 40     LD BC,($4034)                       ; If 0, use FRAMES value
3968+  1057             
3969+  1057             ; SET-SEED
3970+  1057             L_1057:
3971+  1057 ED 43 32 40     LD ($4032),BC                       ; Store SEED
3972+  105B C9              RET
3973+  105C             
3974+  105C             
3975+  105C             ; ---------------------------
3976+  105C             ; THE 'TEMPO' COMMAND ROUTINE
3977+  105C             ; ---------------------------
3978+  105C             
3979+  105C             ; TEMPO
3980+  105C             SUB_105C:
3981+  105C CD 83 10        CALL SUB_1083
3982+  105F 32 21 40        LD ($4021),A
3983+  1062 C9              RET
3984+  1063             
3985+  1063             ; --------------------------
3986+  1063             ; THE 'CONT' COMMAND ROUTINE
3987+  1063             ; --------------------------
3988+  1063             
3989+  1063             ; CONT
3990+  1063             SUB_1063:
3991+  1063 2A 2B 40        LD HL,($402B)
3992+  1066 18 05           JR L_106D
3993+  1068             
3994+  1068             ; --------------------------
3995+  1068             ; THE 'GOTO' COMMAND ROUTINE
3996+  1068             ; --------------------------
3997+  1068             
3998+  1068             ; GOTO
3999+  1068             SUB_1068:
4000+  1068 CD 88 10        CALL SUB_1088
4001+  106B 60              LD H,B
4002+  106C 69              LD L,C
4003+  106D             
4004+  106D             ; GOTO-2
4005+  106D             L_106D:
4006+  106D 7C              LD A,H
4007+  106E FE 28           CP $28
4008+  1070 30 1C           JR NC,L_108E
4009+  1072 CD 6A 0B        CALL SUB_0B6A
4010+  1075 22 0A 40        LD ($400A),HL                       ; NXTLIN - Address of next line to be executed (ZX81 was $4029)
4011+  1078 C9              RET
4012+  1079             
4013+  1079             ; --------------------------
4014+  1079             ; THE 'POKE' COMMAND ROUTINE
4015+  1079             ; --------------------------
4016+  1079             ; POKE
4017+  1079             SUB_1079
4018+  1079 CD 83 10        CALL SUB_1083
4019+  107C                                                     ; missing negative checks
4020+  107C F5              PUSH AF
4021+  107D CD 88 10        CALL SUB_1088
4022+  1080 F1              POP AF
4023+  1081                                                     ; missing code that was in the ZX81 ROM, left over from the ZX80 and not requried
4024+  1081 02              LD (BC),A
4025+  1082 C9              RET
4026+  1083             
4027+  1083             ; FIND-SHORT
4028+  1083             SUB_1083:
4029+  1083 CD C5 17        CALL SUB_17C5                       ; routine FP-TO-A
4030+  1086 18 03           JR L_108B
4031+  1088             
4032+  1088             ; -----------------------------
4033+  1088             ; THE 'FIND INTEGER' SUBROUTINE
4034+  1088             ; -----------------------------
4035+  1088             
4036+  1088             ; FIND-INT
4037+  1088             SUB_1088:
4038+  1088 CD 82 17        CALL SUB_1782                       ; routine FP-TO-BC
4039+  108B             L_108B:
4040+  108B 38 01           JR C,L_108E                         ; error
4041+  108D C8              RET Z                               ; Return if valid (0-65535)
4042+  108E             
4043+  108E             ; REPORT-B
4044+  108E             L_108E:
4045+  108E CF              RST 08H                             ; ERROR-1
4046+  108F 0A              .BYTE $0A                           ; IR - Integer out of Range
4047+  1090             
4048+  1090             ; ---------------------------
4049+  1090             ; THE 'GOSUB' COMMAND ROUTINE
4050+  1090             ; ---------------------------
4051+  1090             
4052+  1090             ; GOSUB
4053+  1090             SUB_1090:
4054+  1090 2A 07 40        LD HL,($4007)
4055+  1093 23              INC HL
4056+  1094 E3              EX (SP),HL
4057+  1095 E5              PUSH HL
4058+  1096 ED 73 02 40     LD ($4002),SP
4059+  109A CD 68 10        CALL SUB_1068
4060+  109D 01 06 00        LD BC,$0006
4061+  10A0             
4062+  10A0             ; --------------------------
4063+  10A0             ; THE 'TEST ROOM' SUBROUTINE
4064+  10A0             ; --------------------------
4065+  10A0             
4066+  10A0             ; TEST-ROOM
4067+  10A0             SUB_10A0:
4068+  10A0 2A 1C 40        LD HL,($401C)                       ; Get STKEND - End of calculator stack
4069+  10A3 09              ADD HL,BC                           ; Add the number of bytes space needed
4070+  10A4 38 08           JR C,L_10AE                         ; to REPORT-4
4071+  10A6 EB              EX DE,HL                            ; Save HL
4072+  10A7 21 24 00        LD HL,$0024                         ; Safety margin past the end of stack?
4073+  10AA 19              ADD HL,DE                           ; Add this margin to the bytes required
4074+  10AB ED 72           SBC HL,SP                           ; Subtract the she stack pointer from the new total
4075+  10AD D8              RET C                               ; Return with carry set if there is room, if not OM error
4076+  10AE             
4077+  10AE             ; REPORT-4
4078+  10AE             L_10AE:
4079+  10AE 2E 03           LD L,$03                            ; Raise OM - Out of Memory
4080+  10B0 C3 59 00        JP L_0059                           ; to ERROR-3
4081+  10B3             
4082+  10B3             ; ----------------------------
4083+  10B3             ; THE 'RETURN' COMMAND ROUTINE
4084+  10B3             ; ----------------------------
4085+  10B3             
4086+  10B3             ; RETURN
4087+  10B3             SUB_10B3:
4088+  10B3 E1              POP HL
4089+  10B4 E3              EX (SP),HL
4090+  10B5 7C              LD A,H
4091+  10B6 FE 3E           CP $3E
4092+  10B8 28 06           JR Z,L_10C0
4093+  10BA ED 73 02 40     LD ($4002),SP
4094+  10BE 18 AD           JR L_106D
4095+  10C0             
4096+  10C0             ; REPORT-7
4097+  10C0             L_10C0:
4098+  10C0 E3              EX (SP),HL
4099+  10C1 E5              PUSH HL
4100+  10C2 CF              RST 08H                             ; ERROR-1
4101+  10C3 06              .BYTE   $06                         ; RG - RETURN without GOSUB
4102+  10C4             
4103+  10C4             ; ---------------------------
4104+  10C4             ; THE 'INPUT' COMMAND ROUTINE
4105+  10C4             ; ---------------------------
4106+  10C4             
4107+  10C4             ; INPUT
4108+  10C4             SUB_10C4:
4109+  10C4 FD CB 08 7E     BIT 7,(IY+$08)
4110+  10C8 20 32           JR NZ,L_10FC
4111+  10CA CD 9B 16        CALL SUB_169B
4112+  10CD 21 2D 40        LD HL,$402D
4113+  10D0 CB EE           SET 5,(HL)
4114+  10D2 CB B6           RES 6,(HL)
4115+  10D4 3A 01 40        LD A,($4001)
4116+  10D7 E6 40           AND $40
4117+  10D9 01 02 00        LD BC,$0002
4118+  10DC 20 02           JR NZ,L_10E0
4119+  10DE 0E 04           LD C,$04
4120+  10E0             L_10E0:
4121+  10E0 B6              OR (HL)
4122+  10E1 77              LD (HL),A
4123+  10E2 F7              RST 30H
4124+  10E3 36 76           LD (HL),$76
4125+  10E5 79              LD A,C
4126+  10E6 0F              RRCA
4127+  10E7             L_10E7:
4128+  10E7 0F              RRCA
4129+  10E8 38 05           JR C,L_10EF
4130+  10EA 3E 0B           LD A,$0B
4131+  10EC 12              LD (DE),A
4132+  10ED 2B              DEC HL
4133+  10EE 77              LD (HL),A
4134+  10EF             L_10EF:
4135+  10EF 2B              DEC HL
4136+  10F0 36 7F           LD (HL),$7F
4137+  10F2 2A 39 40        LD HL,($4039)
4138+  10F5 22 30 40        LD ($4030),HL
4139+  10F8 E1              POP HL
4140+  10F9 C3 58 05        JP L_0558                           ; routine LOWER
4141+  10FC             
4142+  10FC             L_10FC:
4143+  10FC CF              RST 08H                             ; ERROR-1
4144+  10FD 07              .BYTE $07                           ; II - Illegal Input
4145+  10FE             
4146+  10FE             ; ---------------------------
4147+  10FE             ; THE 'PAUSE' COMMAND ROUTINE
4148+  10FE             ; ---------------------------
4149+  10FE             
4150+  10FE             ; PAUSE
4151+  10FE             SUB_10FE:
4152+  10FE CD 88 10        CALL SUB_1088                       ; routine FIND-INT => BC
4153+  1101 21 3B 40        LD HL,$403B                         ; CDFLAG
4154+  1104 CB 7E           BIT 7,(HL)                          ; check FAST mode
4155+  1106 20 0E           JR NZ,L_1116                        ; skip to PAUSE-3 if slow
4156+  1108 03              INC BC                              ; Pause value++
4157+  1109 ED 43 34 40     LD ($4034),BC                       ; Store this in the frame counter
4158+  110D CD 93 02        CALL SUB_0293                       ; Routine PRE-DISPLAY-1
4159+  1110             
4160+  1110             ; PAUSE-2
4161+  1110             L_1110:
4162+  1110 FD 36 35 FF     LD (IY+$35),$FF                     ; COORDS - Last point plotted?
4163+  1114 18 2A           JR SUB_1140                         ; routine DEBOUNCE
4164+  1116             
4165+  1116             ; PAUSE-3
4166+  1116             L_1116:
4167+  1116 78              LD A,B                              ; A = bit 7 of B
4168+  1117 E6 80           AND $80
4169+  1119 57              LD D,A                              ; D = old bit 7 of B
4170+  111A CB F8           SET 7,B                             ; Set bit 7, indicatin PAUSE mode
4171+  111C ED 43 34 40     LD ($4034),BC                       ; Alternate value in frame counter
4172+  1120             
4173+  1120             ; PAUSE-4
4174+  1120             L_1120:
4175+  1120 ED 4B 34 40     LD BC,($4034)                       ; Get frame counter
4176+  1124 CB B8           RES 7,B                             ; ignore bit 7
4177+  1126 78              LD A,B                              ; check if MSB
4178+  1127 B1              OR C                                ; LSB
4179+  1128 B2              OR D                                ; and old bit 7 are all zero (i.e. we have waited long enough)
4180+  1129 28 E5           JR Z,L_1110                         ; finished, back to PAUSE-2
4181+  112B 7E              LD A,(HL)                           ; get CDFLAG
4182+  112C 1F              RRA                                 ; test bit 7 for fast mode
4183+  112D 38 E1           JR C,L_1110                         ; finished, back to PAUSE-2
4184+  112F 18 EF           JR L_1120                           ; loop back to PAUSE-4
4185+  1131             
4186+  1131             ; ---------------------------------
4187+  1131             ; THE 'BEEP' AND 'NOBEEP' FUNCTIONS
4188+  1131             ; ---------------------------------
4189+  1131             
4190+  1131             ; These functions use bit 5 of the CDFLAG to control the keyboard sounds
4191+  1131             ; 0 to make sounds, 1 for silence
4192+  1131             
4193+  1131             ; BEEP
4194+  1131             SUB_1131:
4195+  1131 FD CB 3B AE     RES 5,(IY+$3B)                      ; Clear bit 5 of CDFLAG
4196+  1135 C9              RET
4197+  1136             
4198+  1136             ; NOBEEP
4199+  1136             SUB_1136:
4200+  1136 FD CB 3B EE     SET 5,(IY+$3B)                      ; Set bit 5 of CDFLAG
4201+  113A C9              RET
4202+  113B             
4203+  113B             ; ----------------------
4204+  113B             ; THE 'BREAK' SUBROUTINE
4205+  113B             ; ----------------------
4206+  113B             
4207+  113B             ; BREAK-1
4208+  113B             SUB_113B:
4209+  113B 3E 7F           LD A,$7F
4210+  113D DB FE           IN A,($FE)
4211+  113F 1F              RRA
4212+  1140             
4213+  1140             ; -------------------------
4214+  1140             ; THE 'DEBOUNCE' SUBROUTINE
4215+  1140             ; -------------------------
4216+  1140             
4217+  1140             ; DEBOUNCE
4218+  1140             SUB_1140:
4219+  1140 FD CB 3B 86     RES 0,(IY+$3B)
4220+  1144 3E FF           LD A,$FF
4221+  1146 32 27 40        LD ($4027),A
4222+  1149 C9              RET
4223+  114A             
4224+  114A             ; -------------------------
4225+  114A             ; THE 'SCANNING' SUBROUTINE
4226+  114A             ; -------------------------
4227+  114A             
4228+  114A             ; SCANNING
4229+  114A             SUB_114A:
4230+  114A DF              RST 18H
4231+  114B 06 00           LD B,$00
4232+  114D C5              PUSH BC
4233+  114E             
4234+  114E             ; S-LOOP-1
4235+  114E             L_114E:
4236+  114E FE 43           CP $43
4237+  1150 20 2F           JR NZ,L_1181
4238+  1152             
4239+  1152             ; ------------------
4240+  1152             ; THE 'RND' FUNCTION
4241+  1152             ; ------------------
4242+  1152 CD 23 0F        CALL SUB_0F23
4243+  1155 28 28           JR Z,L_117F
4244+  1157 ED 4B 32 40     LD BC,($4032)
4245+  115B CD 18 17        CALL SUB_1718
4246+  115E EF              RST 28H                             ; FP-CALC
4247+  115F A1              .BYTE    $A1                        ; stk-one
4248+  1160 0F              .BYTE    $0F                        ; addition
4249+  1161 30              .BYTE    $30                        ; stk-data
4250+  1162 37              .BYTE    $37                        ; Exponent: $87, Bytes: 1
4251+  1163 16              .BYTE    $16                        ; (+00,+00,+00)
4252+  1164 04              .BYTE    $04                        ; multiply
4253+  1165 30              .BYTE    $30                        ; stk-data
4254+  1166 80              .BYTE    $80                        ; Bytes: 3
4255+  1167 41              .BYTE    $41                        ; Exponent $91
4256+  1168 00 00 80        .BYTE    $00,$00,$80                ; (+00)
4257+  116B 2E              .BYTE    $2E                        ; n-mod-m
4258+  116C 02              .BYTE    $02                        ; delete
4259+  116D A1              .BYTE    $A1                        ; stk-one
4260+  116E 03              .BYTE    $03                        ; subtract
4261+  116F 2D              .BYTE    $2D                        ; duplicate
4262+  1170 34              .BYTE    $34                        ; end-calc
4263+  1171 CD 82 17        CALL SUB_1782
4264+  1174 ED 43 32 40     LD ($4032),BC
4265+  1178 7E              LD A,(HL)
4266+  1179 A7              AND A
4267+  117A 28 03           JR Z,L_117F
4268+  117C D6 10           SUB $10
4269+  117E 77              LD (HL),A
4270+  117F             L_117F:
4271+  117F 18 0D           JR L_118E
4272+  1181             
4273+  1181             ; S-TEST-PI
4274+  1181             L_1181:
4275+  1181 FE 45           CP $45
4276+  1183 20 0D           JR NZ,L_1192
4277+  1185             
4278+  1185             ; -------------------
4279+  1185             ; THE 'PI' EVALUATION
4280+  1185             ; -------------------
4281+  1185             
4282+  1185 CD 23 0F        CALL SUB_0F23
4283+  1188 28 04           JR Z,L_118E
4284+  118A EF              RST 28H                             ; FP-CALC
4285+  118B A3              .BYTE $A3                           ; stk-pi/2
4286+  118C 34              .BYTE $34                           ;end-calc
4287+  118D 34              INC (HL)
4288+  118E             
4289+  118E             ; S-PI-END
4290+  118E             L_118E:
4291+  118E E7              RST 20H
4292+  118F C3 78 12        JP L_1278
4293+  1192             
4294+  1192             
4295+  1192             ; not S-TST-INK
4296+  1192             L_1192:
4297+  1192 FE 44           CP $44
4298+  1194 20 11           JR NZ,L_11A7
4299+  1196 CD 3D 03        CALL SUB_033D
4300+  1199 44              LD B,H
4301+  119A             L_119A:
4302+  119A 4D              LD C,L
4303+  119B 51              LD D,C
4304+  119C 14              INC D
4305+  119D C4 5E 09        CALL NZ,SUB_095E                    ; routine DECODE
4306+  11A0 7A              LD A,D
4307+  11A1 8A              ADC A,D
4308+  11A2 42              LD B,D
4309+  11A3 4F              LD C,A
4310+  11A4 EB              EX DE,HL
4311+  11A5 18 3B           JR L_11E2
4312+  11A7             
4313+  11A7             ; S-ALPHANUM
4314+  11A7             L_11A7:
4315+  11A7 CD CA 16        CALL SUB_16CA
4316+  11AA 38 6E           JR C,L_121A
4317+  11AC FE 1B           CP $1B
4318+  11AE CA 3C 12        JP Z,L_123C
4319+  11B1 01 D8 09        LD BC,$09D8
4320+  11B4 FE 16           CP $16
4321+  11B6 28 5D           JR Z,L_1215
4322+  11B8 FE 10           CP $10
4323+  11BA 20 0F           JR NZ,L_11CB
4324+  11BC CD 4A 00        CALL SUB_004A
4325+  11BF CD 4A 11        CALL SUB_114A                       ; routine SCANNING
4326+  11C2 FE 11           CP $11
4327+  11C4 20 2E           JR NZ,L_11F4
4328+  11C6 CD 4A 00        CALL SUB_004A
4329+  11C9 18 22           JR L_11ED
4330+  11CB             
4331+  11CB             ; S-QUOTE
4332+  11CB             L_11CB:
4333+  11CB FE 0B           CP $0B
4334+  11CD 20 28           JR NZ,L_11F7
4335+  11CF CD 4A 00        CALL SUB_004A
4336+  11D2 E5              PUSH HL
4337+  11D3 18 03           JR L_11D8
4338+  11D5             
4339+  11D5             ; S-Q-AGAIN
4340+  11D5             L_11D5:
4341+  11D5 CD 4A 00        CALL SUB_004A
4342+  11D8             
4343+  11D8             ; S-QUOTE-S
4344+  11D8             L_11D8:
4345+  11D8 FE 0B           CP $0B
4346+  11DA 20 14           JR NZ,L_11F0
4347+  11DC D1              POP DE
4348+  11DD A7              AND A
4349+  11DE ED 52           SBC HL,DE
4350+  11E0 44              LD B,H
4351+  11E1 4D              LD C,L
4352+  11E2             
4353+  11E2             ; S-STRING
4354+  11E2             L_11E2:
4355+  11E2 21 01 40        LD HL,$4001
4356+  11E5 CB B6           RES 6,(HL)
4357+  11E7 CB 7E           BIT 7,(HL)
4358+  11E9 C4 B8 14        CALL NZ,SUB_14B8
4359+  11EC E7              RST 20H
4360+  11ED             
4361+  11ED             ; S-J-CONT-3
4362+  11ED             L_11ED:
4363+  11ED C3 7D 12        JP L_127D
4364+  11F0             
4365+  11F0             ; S-Q-NL
4366+  11F0             L_11F0:
4367+  11F0 FE 76           CP $76
4368+  11F2 20 E1           JR NZ,L_11D5
4369+  11F4             
4370+  11F4             ; S-RPT-C
4371+  11F4             L_11F4:
4372+  11F4 C3 17 0F        JP L_0F17                           ; to REPORT-C - Invalid Expression
4373+  11F7             
4374+  11F7             ; S-FUNCTION
4375+  11F7             L_11F7:
4376+  11F7 D6 C0           SUB $C0
4377+  11F9 38 F9           JR C,L_11F4
4378+  11FB 01 EC 04        LD BC,$04EC
4379+  11FE FE 13           CP $13
4380+  1200 28 13           JR Z,L_1215
4381+  1202 30 F0           JR NC,L_11F4
4382+  1204 06 10           LD B,$10
4383+  1206 C6 D9           ADD A,$D9
4384+  1208 4F              LD C,A
4385+  1209 FE DC           CP $DC
4386+  120B 30 02           JR NC,L_120F
4387+  120D CB B1           RES 6,C
4388+  120F             
4389+  120F             ; S-NO-TO-$
4390+  120F             L_120F:
4391+  120F FE EA           CP $EA
4392+  1211 38 02           JR C,L_1215
4393+  1213 CB B9           RES 7,C
4394+  1215             
4395+  1215             ; S-PUSH-PO
4396+  1215             L_1215:
4397+  1215 C5              PUSH BC
4398+  1216 E7              RST 20H
4399+  1217 C3 4E 11        JP L_114E
4400+  121A             
4401+  121A             ; S-LTR-DGT
4402+  121A             L_121A:
4403+  121A FE 26           CP $26
4404+  121C 38 1E           JR C,L_123C
4405+  121E CD 11 13        CALL $1311
4406+  1221 DA C8 0E        JP C,L_0EC8
4407+  1224 CC 9C 13        CALL Z,SUB_139C
4408+  1227 3A 01 40        LD A,($4001)
4409+  122A FE C0           CP $C0
4410+  122C 38 4E           JR C,L_127C
4411+  122E 23              INC HL
4412+  122F ED 5B 1C 40     LD DE,($401C)
4413+  1233 CD ED 1B        CALL SUB_1BED
4414+  1236 EB              EX DE,HL
4415+  1237 22 1C 40        LD ($401C),HL
4416+  123A 18 40           JR L_127C
4417+  123C             
4418+  123C             ; S-DECIMAL
4419+  123C             L_123C:
4420+  123C CD 23 0F        CALL SUB_0F23
4421+  123F 20 23           JR NZ,L_1264
4422+  1241 CD D1 16        CALL SUB_16D1
4423+  1244 DF              RST 18H
4424+  1245 01 06 00        LD BC,$0006
4425+  1248 CD 30 0B        CALL SUB_0B30                       ; MAKE-ROOM
4426+  124B 23              INC HL
4427+  124C 36 7E           LD (HL),$7E
4428+  124E 23              INC HL
4429+  124F EB              EX DE,HL
4430+  1250 2A 1C 40        LD HL,($401C)
4431+  1253 0E 05           LD C,$05
4432+  1255 A7              AND A
4433+  1256 ED 42           SBC HL,BC
4434+  1258 22 1C 40        LD ($401C),HL
4435+  125B ED B0           LDIR
4436+  125D EB              EX DE,HL
4437+  125E 2B              DEC HL
4438+  125F CD 4D 00        CALL L_004D
4439+  1262 18 14           JR L_1278
4440+  1264             
4441+  1264             ; S-STK-DEC
4442+  1264             L_1264:
4443+  1264 E7              RST 20H
4444+  1265 FE 7E           CP $7E
4445+  1267 20 FB           JR NZ,L_1264
4446+  1269 23              INC HL
4447+  126A ED 5B 1C 40     LD DE,($401C)
4448+  126E CD ED 1B        CALL SUB_1BED
4449+  1271 ED 53 1C 40     LD ($401C),DE
4450+  1275 22 16 40        LD ($4016),HL                       ; CH.ADD - Address of next character to interpret
4451+  1278             
4452+  1278             ; S-NUMERIC
4453+  1278             L_1278:
4454+  1278 FD CB 01 F6     SET 6,(IY+$01)                      ; set FLAGS  - 1 = Numeric result
4455+  127C             
4456+  127C             ; S-CONT-2
4457+  127C             L_127C:
4458+  127C DF              RST 18H
4459+  127D             
4460+  127D             ; S-CONT-3
4461+  127D             L_127D:
4462+  127D FE 10           CP $10
4463+  127F 20 0C           JR NZ,L_128D
4464+  1281 FD CB 01 76     BIT 6,(IY+$01)                      ; check FLAGS - 0 = string or 1 = numeric result
4465+  1285 20 2A           JR NZ,L_12B1
4466+  1287 CD 58 14        CALL SUB_1458
4467+  128A E7              RST 20H
4468+  128B 18 F0           JR L_127D
4469+  128D             
4470+  128D             ; S-OPERTR
4471+  128D             L_128D:
4472+  128D 01 C3 00        LD BC,$00C3
4473+  1290 FE 12           CP $12
4474+  1292 38 1D           JR C,L_12B1
4475+  1294 D6 16           SUB $16
4476+  1296 30 04           JR NC,L_129C
4477+  1298 C6 0D           ADD A,$0D
4478+  129A 18 0E           JR L_12AA
4479+  129C             
4480+  129C             ; SUBMLTDIV
4481+  129C             L_129C:
4482+  129C FE 03           CP $03
4483+  129E 38 0A           JR C,L_12AA
4484+  12A0 D6 C0           SUB $C0
4485+  12A2 38 0D           JR C,L_12B1
4486+  12A4 FE 06           CP $06
4487+  12A6 30 09           JR NC,L_12B1
4488+  12A8 C6 03           ADD A,$03
4489+  12AA             
4490+  12AA             ; GET-PRIO
4491+  12AA             L_12AA:
4492+  12AA 81              ADD A,C
4493+  12AB 4F              LD C,A
4494+  12AC 21 41 12        LD HL, L_1304 - $C3                 ; offset to base of the priorities table (=$1241)
4495+  12AF 09              ADD HL,BC
4496+  12B0 46              LD B,(HL)
4497+  12B1             
4498+  12B1             ; S-LOOP
4499+  12B1             L_12B1:
4500+  12B1 D1              POP DE
4501+  12B2 7A              LD A,D
4502+  12B3 B8              CP B
4503+  12B4 38 2C           JR C,L_12E2
4504+  12B6 A7              AND A
4505+  12B7 CA 18 00        JP Z,L_0018
4506+  12BA C5              PUSH BC
4507+  12BB D5              PUSH DE
4508+  12BC CD 23 0F        CALL SUB_0F23
4509+  12BF 28 09           JR Z,L_12CA
4510+  12C1 7B              LD A,E
4511+  12C2 E6 3F           AND $3F
4512+  12C4 47              LD B,A
4513+  12C5 EF              RST 28H
4514+  12C6 37              SCF
4515+  12C7 34              INC (HL)
4516+  12C8 18 09           JR L_12D3
4517+  12CA             
4518+  12CA             ; S-SYNTEST
4519+  12CA             L_12CA:
4520+  12CA 7B              LD A,E
4521+  12CB FD AE 01        XOR (IY+$01)
4522+  12CE E6 40           AND $40
4523+  12D0             
4524+  12D0             ; S-RPORT-C
4525+  12D0             L_12D0:
4526+  12D0 C2 17 0F        JP NZ,L_0F17                        ; to REPORT-C - Invalid Expression
4527+  12D3             
4528+  12D3             ; S-RUNTEST
4529+  12D3             L_12D3:
4530+  12D3 D1              POP DE
4531+  12D4 21 01 40        LD HL,$4001
4532+  12D7 CB F6           SET 6,(HL)
4533+  12D9 CB 7B           BIT 7,E
4534+  12DB 20 02           JR NZ,L_12DF
4535+  12DD CB B6           RES 6,(HL)
4536+  12DF             
4537+  12DF             ; S-LOOPEND
4538+  12DF             L_12DF:
4539+  12DF C1              POP BC
4540+  12E0 18 CF           JR L_12B1
4541+  12E2             
4542+  12E2             ; S-TIGHTER
4543+  12E2             L_12E2:
4544+  12E2 D5              PUSH DE
4545+  12E3 79              LD A,C
4546+  12E4 FD CB 01 76     BIT 6,(IY+$01)                      ; check FLAGS - 0 = string or 1 = numeric result
4547+  12E8 20 15           JR NZ,L_12FF
4548+  12EA E6 3F           AND $3F
4549+  12EC C6 08           ADD A,$08
4550+  12EE 4F              LD C,A
4551+  12EF FE 10           CP $10
4552+  12F1 20 04           JR NZ,L_12F7
4553+  12F3 CB F1           SET 6,C
4554+  12F5 18 08           JR L_12FF
4555+  12F7             
4556+  12F7             ; S-NOT-AND
4557+  12F7             L_12F7:
4558+  12F7 38 D7           JR C,L_12D0
4559+  12F9 FE 17           CP $17
4560+  12FB 28 02           JR Z,L_12FF
4561+  12FD CB F9           SET 7,C
4562+  12FF             
4563+  12FF             ; S-NEXT
4564+  12FF             L_12FF:
4565+  12FF C5              PUSH BC
4566+  1300 E7              RST 20H
4567+  1301 C3 4E 11        JP L_114E
4568+  1304             
4569+  1304             ; -------------------------
4570+  1304             ; THE 'TABLE OF PRIORITIES'
4571+  1304             ; -------------------------
4572+  1304             
4573+  1304             ; tbl-pri
4574+  1304             L_1304:
4575+  1304 06              .BYTE    $06                        ;       '-'
4576+  1305 08              .BYTE    $08                        ;       '*'
4577+  1306 08              .BYTE    $08                        ;       '/'
4578+  1307 0A              .BYTE    $0A                        ;       '**'
4579+  1308 02              .BYTE    $02                        ;       'OR'
4580+  1309 03              .BYTE    $03                        ;       'AND'
4581+  130A 05              .BYTE    $05                        ;       '<='
4582+  130B 05              .BYTE    $05                        ;       '>='
4583+  130C 05              .BYTE    $05                        ;       '<>'
4584+  130D 05              .BYTE    $05                        ;       '>'
4585+  130E 05              .BYTE    $05                        ;       '<'
4586+  130F 05              .BYTE    $05                        ;       '='
4587+  1310 06              .BYTE    $06                        ;       '+'
4588+  1311             
4589+  1311             
4590+  1311             ; --------------------------
4591+  1311             ; THE 'LOOK-VARS' SUBROUTINE
4592+  1311             ; --------------------------
4593+  1311             
4594+  1311             ; LOOK-VARS
4595+  1311             SUB_1311:
4596+  1311 FD CB 01 F6     SET 6,(IY+$01)                      ; set FLAGS - 1 = numeric result
4597+  1315 DF              RST 18H
4598+  1316 CD C6 16        CALL SUB_16C6
4599+  1319 D2 17 0F        JP NC,L_0F17                        ; to REPORT-C - Invalid Expression
4600+  131C E5              PUSH HL
4601+  131D 4F              LD C,A
4602+  131E E7              RST 20H
4603+  131F E5              PUSH HL
4604+  1320 CB A9           RES 5,C
4605+  1322 FE 10           CP $10
4606+  1324 28 17           JR Z,L_133D
4607+  1326 CB F1           SET 6,C
4608+  1328 FE 0D           CP $0D
4609+  132A 28 0C           JR Z,L_1338
4610+  132C CB E9           SET 5,C
4611+  132E             
4612+  132E             ; V-CHAR
4613+  132E             L_132E:
4614+  132E CD CA 16        CALL SUB_16CA
4615+  1331 30 0A           JR NC,L_133D
4616+  1333 CB B1           RES 6,C
4617+  1335 E7              RST 20H
4618+  1336 18 F6           JR L_132E
4619+  1338             
4620+  1338             ; V-STR-VAR
4621+  1338             L_1338:
4622+  1338 E7              RST 20H
4623+  1339 FD CB 01 B6     RES 6,(IY+$01)                      ; set FLAGS - 0 = string result
4624+  133D             
4625+  133D             ; V-RUN/SYN
4626+  133D             L_133D:
4627+  133D 41              LD B,C
4628+  133E CD 23 0F        CALL SUB_0F23
4629+  1341 20 08           JR NZ,L_134B
4630+  1343 79              LD A,C
4631+  1344 E6 E0           AND $E0
4632+  1346 CB FF           SET 7,A
4633+  1348 4F              LD C,A
4634+  1349 18 34           JR L_137F
4635+  134B             
4636+  134B             ; V-RUN
4637+  134B             L_134B:
4638+  134B 2A 10 40        LD HL,($4010)
4639+  134E             
4640+  134E             ; V-EACH
4641+  134E             L_134E:
4642+  134E 7E              LD A,(HL)
4643+  134F E6 7F           AND $7F
4644+  1351 28 2A           JR Z,L_137D
4645+  1353 B9              CP C
4646+  1354 20 1F           JR NZ,L_1375
4647+  1356 17              RLA
4648+  1357 87              ADD A,A
4649+  1358 F2 8A 13        JP P,L_138A
4650+  135B 38 2D           JR C,L_138A
4651+  135D D1              POP DE
4652+  135E D5              PUSH DE
4653+  135F E5              PUSH HL
4654+  1360             
4655+  1360             ; V-MATCHES
4656+  1360             L_1360:
4657+  1360 23              INC HL
4658+  1361             
4659+  1361             ; V-SPACES
4660+  1361             L_1361:
4661+  1361 1A              LD A,(DE)
4662+  1362 13              INC DE
4663+  1363 A7              AND A
4664+  1364 28 FB           JR Z,L_1361
4665+  1366 BE              CP (HL)
4666+  1367 28 F7           JR Z,L_1360
4667+  1369 F6 80           OR $80
4668+  136B BE              CP (HL)
4669+  136C 20 06           JR NZ,L_1374
4670+  136E 1A              LD A,(DE)
4671+  136F CD CA 16        CALL SUB_16CA
4672+  1372 30 15           JR NC,L_1389
4673+  1374             
4674+  1374             ; V-GET-PTR
4675+  1374             L_1374:
4676+  1374 E1              POP HL
4677+  1375             
4678+  1375             ; V-NEXT
4679+  1375             L_1375:
4680+  1375 C5              PUSH BC
4681+  1376 CD 84 0B        CALL SUB_0B84
4682+  1379 EB              EX DE,HL
4683+  137A C1              POP BC
4684+  137B 18 D1           JR L_134E
4685+  137D             
4686+  137D             ; V-80-BYTE
4687+  137D             L_137D:
4688+  137D CB F8           SET 7,B
4689+  137F             
4690+  137F             ; V-SYNTAX
4691+  137F             L_137F:
4692+  137F D1              POP DE
4693+  1380 DF              RST 18H
4694+  1381 FE 10           CP $10
4695+  1383 28 09           JR Z,L_138E
4696+  1385 CB E8           SET 5,B
4697+  1387 18 0D           JR L_1396
4698+  1389             
4699+  1389             ; V-FOUND-1
4700+  1389             L_1389:
4701+  1389 D1              POP DE
4702+  138A             
4703+  138A             ; V-FOUND-2
4704+  138A             L_138A:
4705+  138A D1              POP DE
4706+  138B D1              POP DE
4707+  138C E5              PUSH HL
4708+  138D DF              RST 18H
4709+  138E             
4710+  138E             ; V-PASS
4711+  138E             L_138E:
4712+  138E CD CA 16        CALL SUB_16CA
4713+  1391 30 03           JR NC,L_1396
4714+  1393 E7              RST 20H
4715+  1394 18 F8           JR L_138E
4716+  1396             
4717+  1396             ; V-END
4718+  1396             L_1396:
4719+  1396 E1              POP HL
4720+  1397 CB 10           RL B
4721+  1399 CB 70           BIT 6,B
4722+  139B C9              RET
4723+  139C             
4724+  139C             ; ------------------------
4725+  139C             ; THE 'STK-VAR' SUBROUTINE
4726+  139C             ; ------------------------
4727+  139C             
4728+  139C             ; STK-VAR
4729+  139C             SUB_139C:
4730+  139C AF              XOR A
4731+  139D 47              LD B,A
4732+  139E CB 79           BIT 7,C
4733+  13A0 20 4B           JR NZ,L_13ED
4734+  13A2 CB 7E           BIT 7,(HL)
4735+  13A4 20 0E           JR NZ,L_13B4
4736+  13A6 3C              INC A
4737+  13A7             
4738+  13A7             ; SV-SIMPLE$
4739+  13A7             L_13A7:
4740+  13A7 23              INC HL
4741+  13A8 4E              LD C,(HL)
4742+  13A9 23              INC HL
4743+  13AA 46              LD B,(HL)
4744+  13AB 23              INC HL
4745+  13AC EB              EX DE,HL
4746+  13AD CD B8 14        CALL SUB_14B8
4747+  13B0 DF              RST 18H
4748+  13B1 C3 4F 14        JP L_144F
4749+  13B4             
4750+  13B4             ; SV-ARRAYS
4751+  13B4             L_13B4:
4752+  13B4 23              INC HL
4753+  13B5 23              INC HL
4754+  13B6 23              INC HL
4755+  13B7 46              LD B,(HL)
4756+  13B8 CB 71           BIT 6,C
4757+  13BA 28 0A           JR Z,L_13C6
4758+  13BC 05              DEC B
4759+  13BD 28 E8           JR Z,L_13A7
4760+  13BF EB              EX DE,HL
4761+  13C0 DF              RST 18H
4762+  13C1 FE 10           CP $10
4763+  13C3 20 61           JR NZ,L_1426
4764+  13C5 EB              EX DE,HL
4765+  13C6             
4766+  13C6             ; SV-PTR
4767+  13C6             L_13C6:
4768+  13C6 EB              EX DE,HL
4769+  13C7 18 24           JR L_13ED
4770+  13C9             
4771+  13C9             ; SV-COMMA
4772+  13C9             L_13C9:
4773+  13C9 E5              PUSH HL
4774+  13CA DF              RST 18H
4775+  13CB E1              POP HL
4776+  13CC FE 1A           CP $1A
4777+  13CE 28 20           JR Z,L_13F0
4778+  13D0 CB 79           BIT 7,C
4779+  13D2 28 52           JR Z,L_1426
4780+  13D4 CB 71           BIT 6,C
4781+  13D6 20 06           JR NZ,L_13DE
4782+  13D8 FE 11           CP $11
4783+  13DA 20 3C           JR NZ,L_1418
4784+  13DC E7              RST 20H
4785+  13DD C9              RET
4786+  13DE             
4787+  13DE             ; SV-CLOSE
4788+  13DE             L_13DE:
4789+  13DE FE 11           CP $11
4790+  13E0 28 6C           JR Z,L_144E
4791+  13E2 FE 41           CP $41
4792+  13E4 20 32           JR NZ,L_1418
4793+  13E6             
4794+  13E6             ; SV-CH-ADD
4795+  13E6             L_13E6:
4796+  13E6 DF              RST 18H
4797+  13E7 2B              DEC HL
4798+  13E8 22 16 40        LD ($4016),HL                       ; CH.ADD - Address of next character to interpret
4799+  13EB 18 5E           JR L_144B
4800+  13ED             
4801+  13ED             ; SV-COUNT
4802+  13ED             L_13ED:
4803+  13ED 21 00 00        LD HL,$0000
4804+  13F0             
4805+  13F0             ; SV-LOOP
4806+  13F0             L_13F0:
4807+  13F0 E5              PUSH HL
4808+  13F1 E7              RST 20H
4809+  13F2 E1              POP HL
4810+  13F3 79              LD A,C
4811+  13F4 FE C0           CP $C0
4812+  13F6 20 09           JR NZ,L_1401
4813+  13F8 DF              RST 18H
4814+  13F9 FE 11           CP $11
4815+  13FB 28 51           JR Z,L_144E
4816+  13FD FE 41           CP $41
4817+  13FF 28 E5           JR Z,L_13E6
4818+  1401             
4819+  1401             ; SV-MULT
4820+  1401             L_1401:
4821+  1401 C5              PUSH BC
4822+  1402 E5              PUSH HL
4823+  1403 CD F4 14        CALL SUB_14F4
4824+  1406 E3              EX (SP),HL
4825+  1407 EB              EX DE,HL
4826+  1408 CD D2 14        CALL SUB_14D2
4827+  140B 38 19           JR C,L_1426
4828+  140D 0B              DEC BC
4829+  140E CD FA 14        CALL SUB_14FA
4830+  1411 09              ADD HL,BC
4831+  1412 D1              POP DE
4832+  1413 C1              POP BC
4833+  1414 10 B3           DJNZ L_13C9
4834+  1416 CB 79           BIT 7,C
4835+  1418             
4836+  1418             ; SV-RPT-C
4837+  1418             L_1418:
4838+  1418 20 66           JR NZ,L_1480
4839+  141A E5              PUSH HL
4840+  141B CB 71           BIT 6,C
4841+  141D 20 13           JR NZ,L_1432
4842+  141F 42              LD B,D
4843+  1420 4B              LD C,E
4844+  1421 DF              RST 18H
4845+  1422 FE 11           CP $11
4846+  1424 28 02           JR Z,L_1428
4847+  1426             
4848+  1426             ; REPORT-3
4849+  1426             L_1426:
4850+  1426 CF              RST 08H                             ; ERROR-1
4851+  1427 02              .BYTE $02                           ; BS - Bad Subscript
4852+  1428             
4853+  1428             ; SV-NUMBER
4854+  1428             L_1428:
4855+  1428 E7              RST 20H
4856+  1429 E1              POP HL
4857+  142A 11 05 00        LD DE,$0005
4858+  142D CD FA 14        CALL SUB_14FA
4859+  1430 09              ADD HL,BC
4860+  1431 C9              RET
4861+  1432             
4862+  1432             ; SV-ELEM$
4863+  1432             L_1432:
4864+  1432 CD F4 14        CALL SUB_14F4
4865+  1435 E3              EX (SP),HL
4866+  1436 CD FA 14        CALL SUB_14FA
4867+  1439 C1              POP BC
4868+  143A 09              ADD HL,BC
4869+  143B 23              INC HL
4870+  143C 42              LD B,D
4871+  143D 4B              LD C,E
4872+  143E EB              EX DE,HL
4873+  143F CD B7 14        CALL SUB_14B7
4874+  1442 DF              RST 18H
4875+  1443 FE 11           CP $11
4876+  1445 28 07           JR Z,L_144E
4877+  1447 FE 1A           CP $1A
4878+  1449 20 DB           JR NZ,L_1426
4879+  144B             
4880+  144B             ; SV-SLICE
4881+  144B             L_144B:
4882+  144B CD 58 14        CALL SUB_1458
4883+  144E             
4884+  144E             ; SV-DIM
4885+  144E             L_144E:
4886+  144E E7              RST 20H
4887+  144F             
4888+  144F             ; SV-SLICE?
4889+  144F             L_144F:
4890+  144F FE 10           CP $10
4891+  1451 28 F8           JR Z,L_144B
4892+  1453 FD CB 01 B6     RES 6,(IY+$01)                      ; set FLAGS - 0 = string result
4893+  1457 C9              RET
4894+  1458             
4895+  1458             ; ------------------------
4896+  1458             ; THE 'SLICING' SUBROUTINE
4897+  1458             ; ------------------------
4898+  1458             
4899+  1458             ; SLICING
4900+  1458             SUB_1458:
4901+  1458 CD 23 0F        CALL SUB_0F23
4902+  145B C4 ED 15        CALL NZ,SUB_15ED                    ; routine STK-FETCH
4903+  145E E7              RST 20H
4904+  145F FE 11           CP $11
4905+  1461 28 50           JR Z,L_14B3
4906+  1463 D5              PUSH DE
4907+  1464 AF              XOR A
4908+  1465 F5              PUSH AF
4909+  1466 C5              PUSH BC
4910+  1467 11 01 00        LD DE,$0001
4911+  146A DF              RST 18H
4912+  146B E1              POP HL
4913+  146C FE 41           CP $41
4914+  146E 28 17           JR Z,L_1487
4915+  1470 F1              POP AF
4916+  1471 CD D3 14        CALL SUB_14D3
4917+  1474 F5              PUSH AF
4918+  1475 50              LD D,B
4919+  1476 59              LD E,C
4920+  1477 E5              PUSH HL
4921+  1478 DF              RST 18H
4922+  1479 E1              POP HL
4923+  147A FE 41           CP $41
4924+  147C 28 09           JR Z,L_1487
4925+  147E FE 11           CP $11
4926+  1480             
4927+  1480             ; SL-RPT-C
4928+  1480             L_1480:
4929+  1480 C2 17 0F        JP NZ,L_0F17                        ; to REPORT-C - Invalid Expression
4930+  1483 62              LD H,D
4931+  1484 6B              LD L,E
4932+  1485 18 13           JR L_149A
4933+  1487             
4934+  1487             ; SL-SECOND
4935+  1487             L_1487:
4936+  1487 E5              PUSH HL
4937+  1488 E7              RST 20H
4938+  1489 E1              POP HL
4939+  148A FE 11           CP $11
4940+  148C 28 0C           JR Z,L_149A
4941+  148E F1              POP AF
4942+  148F CD D3 14        CALL SUB_14D3
4943+  1492 F5              PUSH AF
4944+  1493 DF              RST 18H
4945+  1494 60              LD H,B
4946+  1495 69              LD L,C
4947+  1496 FE 11           CP $11
4948+  1498 20 E6           JR NZ,L_1480
4949+  149A             
4950+  149A             ; SL-DEFINE
4951+  149A             L_149A:
4952+  149A F1              POP AF
4953+  149B E3              EX (SP),HL
4954+  149C 19              ADD HL,DE
4955+  149D 2B              DEC HL
4956+  149E E3              EX (SP),HL
4957+  149F A7              AND A
4958+  14A0 ED 52           SBC HL,DE
4959+  14A2 01 00 00        LD BC,$0000
4960+  14A5 38 07           JR C,L_14AE
4961+  14A7 23              INC HL
4962+  14A8 A7              AND A
4963+  14A9 FA 26 14        JP M,L_1426
4964+  14AC 44              LD B,H
4965+  14AD 4D              LD C,L
4966+  14AE             
4967+  14AE             ; SL-OVER
4968+  14AE             L_14AE:
4969+  14AE D1              POP DE
4970+  14AF FD CB 01 B6     RES 6,(IY+$01)                      ; set FLAGS - 0 = string result
4971+  14B3             
4972+  14B3             ; SL-STORE
4973+  14B3             L_14B3:
4974+  14B3 CD 23 0F        CALL SUB_0F23
4975+  14B6 C8              RET Z
4976+  14B7             
4977+  14B7             ; --------------------------
4978+  14B7             ; THE 'STK-STORE' SUBROUTINE
4979+  14B7             ; --------------------------
4980+  14B7             
4981+  14B7             ; STK-ST-0
4982+  14B7             SUB_14B7:
4983+  14B7 AF              XOR A
4984+  14B8             
4985+  14B8             ; STK-STO-$
4986+  14B8             SUB_14B8:
4987+  14B8 C5              PUSH BC
4988+  14B9 CD E2 1B        CALL SUB_1BE2
4989+  14BC C1              POP BC
4990+  14BD 2A 1C 40        LD HL,($401C)
4991+  14C0 77              LD (HL),A
4992+  14C1 23              INC HL
4993+  14C2 73              LD (HL),E
4994+  14C3 23              INC HL
4995+  14C4 72              LD (HL),D
4996+  14C5 23              INC HL
4997+  14C6 71              LD (HL),C
4998+  14C7 23              INC HL
4999+  14C8 70              LD (HL),B
5000+  14C9 23              INC HL
5001+  14CA 22 1C 40        LD ($401C),HL
5002+  14CD FD CB 01 B6     RES 6,(IY+$01)                      ; set FLAGS - 0 = string result
5003+  14D1 C9              RET
5004+  14D2             
5005+  14D2             ; -------------------------
5006+  14D2             ; THE 'INT EXP' SUBROUTINES
5007+  14D2             ; -------------------------
5008+  14D2             
5009+  14D2             ; INT-EXP1
5010+  14D2             SUB_14D2:
5011+  14D2 AF              XOR A
5012+  14D3             
5013+  14D3             ; INT-EXP2
5014+  14D3             SUB_14D3:
5015+  14D3 D5              PUSH DE
5016+  14D4 E5              PUSH HL
5017+  14D5 F5              PUSH AF
5018+  14D6 CD 0F 0F        CALL SUB_0F0F
5019+  14D9 F1              POP AF
5020+  14DA CD 23 0F        CALL SUB_0F23
5021+  14DD 28 12           JR Z,L_14F1
5022+  14DF F5              PUSH AF
5023+  14E0 CD 88 10        CALL SUB_1088
5024+  14E3 D1              POP DE
5025+  14E4 78              LD A,B
5026+  14E5 B1              OR C
5027+  14E6 37              SCF
5028+  14E7 28 05           JR Z,L_14EE
5029+  14E9 E1              POP HL
5030+  14EA E5              PUSH HL
5031+  14EB A7              AND A
5032+  14EC ED 42           SBC HL,BC
5033+  14EE             
5034+  14EE             ; I-CARRY
5035+  14EE             L_14EE:
5036+  14EE 7A              LD A,D
5037+  14EF DE 00           SBC A,$00
5038+  14F1             
5039+  14F1             ; I-RESTORE
5040+  14F1             L_14F1:
5041+  14F1 E1              POP HL
5042+  14F2 D1              POP DE
5043+  14F3 C9              RET
5044+  14F4             
5045+  14F4             ; --------------------------
5046+  14F4             ; THE 'DE,(DE+1)' SUBROUTINE
5047+  14F4             ; --------------------------
5048+  14F4             
5049+  14F4             ; DE,(DE+1)
5050+  14F4             SUB_14F4:
5051+  14F4 EB              EX DE,HL
5052+  14F5 23              INC HL
5053+  14F6 5E              LD E,(HL)
5054+  14F7 23              INC HL
5055+  14F8 56              LD D,(HL)
5056+  14F9 C9              RET
5057+  14FA             
5058+  14FA             ; --------------------------
5059+  14FA             ; THE 'GET-HL*DE' SUBROUTINE
5060+  14FA             ; --------------------------
5061+  14FA             
5062+  14FA             ; GET-HL*DE
5063+  14FA             SUB_14FA:
5064+  14FA CD 23 0F        CALL SUB_0F23
5065+  14FD C8              RET Z
5066+  14FE C5              PUSH BC
5067+  14FF 06 10           LD B,$10
5068+  1501 7C              LD A,H
5069+  1502 4D              LD C,L
5070+  1503 21 00 00        LD HL,$0000
5071+  1506             
5072+  1506             ; HL-LOOP
5073+  1506             L_1506:
5074+  1506 29              ADD HL,HL
5075+  1507 38 06           JR C,L_150F
5076+  1509 CB 11           RL C
5077+  150B 17              RLA
5078+  150C 30 04           JR NC,L_1512
5079+  150E 19              ADD HL,DE
5080+  150F             
5081+  150F             ; HL-END
5082+  150F             L_150F:
5083+  150F DA AE 10        JP C,L_10AE
5084+  1512             
5085+  1512             ; HL-AGAIN
5086+  1512             L_1512:
5087+  1512 10 F2           DJNZ L_1506
5088+  1514 C1              POP BC
5089+  1515 C9              RET
5090+  1516             
5091+  1516             ; --------------------
5092+  1516             ; THE 'LET' SUBROUTINE
5093+  1516             ; --------------------
5094+  1516             
5095+  1516             ; LET
5096+  1516             L_1516:
5097+  1516 2A 12 40        LD HL,($4012)
5098+  1519 FD CB 2D 4E     BIT 1,(IY+$2D)
5099+  151D 28 44           JR Z,L_1563
5100+  151F 01 05 00        LD BC,$0005
5101+  1522             
5102+  1522             ; L-EACH-CH
5103+  1522             L_1522:
5104+  1522 03              INC BC
5105+  1523             
5106+  1523             ; L-NO-SP
5107+  1523             L_1523:
5108+  1523 23              INC HL
5109+  1524 7E              LD A,(HL)
5110+  1525 A7              AND A
5111+  1526 28 FB           JR Z,L_1523
5112+  1528 CD CA 16        CALL SUB_16CA
5113+  152B 38 F5           JR C,L_1522
5114+  152D FE 0D           CP $0D
5115+  152F CA BD 15        JP Z,L_15BD
5116+  1532 F7              RST 30H
5117+  1533 D5              PUSH DE
5118+  1534 2A 12 40        LD HL,($4012)
5119+  1537 1B              DEC DE
5120+  1538 79              LD A,C
5121+  1539 D6 06           SUB $06
5122+  153B 47              LD B,A
5123+  153C 3E 40           LD A,$40
5124+  153E 28 0E           JR Z,L_154E
5125+  1540             
5126+  1540             ; L-CHAR
5127+  1540             L_1540:
5128+  1540 23              INC HL
5129+  1541 7E              LD A,(HL)
5130+  1542 A7              AND A
5131+  1543 28 FB           JR Z,L_1540
5132+  1545 13              INC DE
5133+  1546 12              LD (DE),A
5134+  1547 10 F7           DJNZ L_1540
5135+  1549 F6 80           OR $80
5136+  154B 12              LD (DE),A
5137+  154C 3E 80           LD A,$80
5138+  154E             
5139+  154E             ; L-SINGLE
5140+  154E             L_154E:
5141+  154E 2A 12 40        LD HL,($4012)
5142+  1551 AE              XOR (HL)
5143+  1552 E1              POP HL
5144+  1553 CD DC 15        CALL SUB_15DC
5145+  1556             
5146+  1556             ; L-NUMERIC
5147+  1556             L_1556:
5148+  1556 E5              PUSH HL
5149+  1557 EF              RST 28H
5150+  1558 02              LD (BC),A
5151+  1559 34              INC (HL)
5152+  155A E1              POP HL
5153+  155B 01 05 00        LD BC,$0005
5154+  155E A7              AND A
5155+  155F ED 42           SBC HL,BC
5156+  1561 18 40           JR L_15A3
5157+  1563             
5158+  1563             ; L-EXISTS
5159+  1563             L_1563:
5160+  1563 FD CB 01 76     BIT 6,(IY+$01)                      ; check FLAGS - 0 = string or 1 = numeric result
5161+  1567 28 06           JR Z,L_156F
5162+  1569 11 06 00        LD DE,$0006
5163+  156C 19              ADD HL,DE
5164+  156D 18 E7           JR L_1556
5165+  156F             
5166+  156F             ; L-DELETE$
5167+  156F             L_156F:
5168+  156F 2A 12 40        LD HL,($4012)
5169+  1572 ED 4B 2E 40     LD BC,($402E)
5170+  1576 FD CB 2D 46     BIT 0,(IY+$2D)
5171+  157A 20 30           JR NZ,L_15AC
5172+  157C 78              LD A,B
5173+  157D B1              OR C
5174+  157E C8              RET Z
5175+  157F E5              PUSH HL
5176+  1580 F7              RST 30H
5177+  1581 D5              PUSH DE
5178+  1582 C5              PUSH BC
5179+  1583 54              LD D,H
5180+  1584 5D              LD E,L
5181+  1585 23              INC HL
5182+  1586 36 00           LD (HL),$00
5183+  1588 ED B8           LDDR
5184+  158A E5              PUSH HL
5185+  158B CD ED 15        CALL SUB_15ED                       ; routine STK-FETCH
5186+  158E E1              POP HL
5187+  158F E3              EX (SP),HL
5188+  1590 A7              AND A
5189+  1591 ED 42           SBC HL,BC
5190+  1593 09              ADD HL,BC
5191+  1594 30 02           JR NC,L_1598
5192+  1596 44              LD B,H
5193+  1597 4D              LD C,L
5194+  1598             
5195+  1598             ; L-LENGTH
5196+  1598             L_1598:
5197+  1598 E3              EX (SP),HL
5198+  1599 EB              EX DE,HL
5199+  159A 78              LD A,B
5200+  159B B1              OR C
5201+  159C 28 02           JR Z,L_15A0
5202+  159E ED B0           LDIR
5203+  15A0             
5204+  15A0             ; L-IN-W/S
5205+  15A0             L_15A0:
5206+  15A0 C1              POP BC
5207+  15A1 D1              POP DE
5208+  15A2 E1              POP HL
5209+  15A3             
5210+  15A3             ; L-ENTER
5211+  15A3             L_15A3:
5212+  15A3 EB              EX DE,HL
5213+  15A4 78              LD A,B
5214+  15A5 B1              OR C
5215+  15A6 C8              RET Z
5216+  15A7 D5              PUSH DE
5217+  15A8 ED B0           LDIR
5218+  15AA E1              POP HL
5219+  15AB C9              RET
5220+  15AC             
5221+  15AC             ; L-ADD$
5222+  15AC             L_15AC:
5223+  15AC 2B              DEC HL
5224+  15AD 2B              DEC HL
5225+  15AE 2B              DEC HL
5226+  15AF 7E              LD A,(HL)
5227+  15B0 E5              PUSH HL
5228+  15B1 C5              PUSH BC
5229+  15B2 CD C3 15        CALL SUB_15C3
5230+  15B5 C1              POP BC
5231+  15B6 E1              POP HL
5232+  15B7 03              INC BC
5233+  15B8 03              INC BC
5234+  15B9 03              INC BC
5235+  15BA C3 F5 0B        JP SUB_0BF5                         ; routine RECLAIM-2
5236+  15BD             
5237+  15BD             ; L-NEWS
5238+  15BD             L_15BD:
5239+  15BD 3E 60           LD A,$60
5240+  15BF 2A 12 40        LD HL,($4012)
5241+  15C2 AE              XOR (HL)
5242+  15C3             
5243+  15C3             ; L-STRING
5244+  15C3             SUB_15C3:
5245+  15C3 F5              PUSH AF
5246+  15C4 CD ED 15        CALL SUB_15ED                       ; routine STK-FETCH
5247+  15C7 EB              EX DE,HL
5248+  15C8 09              ADD HL,BC
5249+  15C9 E5              PUSH HL
5250+  15CA 03              INC BC
5251+  15CB 03              INC BC
5252+  15CC 03              INC BC
5253+  15CD F7              RST 30H
5254+  15CE EB              EX DE,HL
5255+  15CF E1              POP HL
5256+  15D0 0B              DEC BC
5257+  15D1 0B              DEC BC
5258+  15D2 C5              PUSH BC
5259+  15D3 ED B8           LDDR
5260+  15D5 EB              EX DE,HL
5261+  15D6 C1              POP BC
5262+  15D7 0B              DEC BC
5263+  15D8 70              LD (HL),B
5264+  15D9 2B              DEC HL
5265+  15DA 71              LD (HL),C
5266+  15DB F1              POP AF
5267+  15DC             
5268+  15DC             ; L-FIRST
5269+  15DC             SUB_15DC:
5270+  15DC F5              PUSH AF
5271+  15DD CD BF 16        CALL SUB_16BF
5272+  15E0 F1              POP AF
5273+  15E1 2B              DEC HL
5274+  15E2 77              LD (HL),A
5275+  15E3 2A 1A 40        LD HL,($401A)
5276+  15E6 22 14 40        LD ($4014),HL
5277+  15E9 2B              DEC HL
5278+  15EA 36 80           LD (HL),$80
5279+  15EC C9              RET
5280+  15ED             
5281+  15ED             ; --------------------------
5282+  15ED             ; THE 'STK-FETCH' SUBROUTINE
5283+  15ED             ; --------------------------
5284+  15ED             ; For a floating-point number the exponent is in A and the mantissa
5285+  15ED             ; is the thirty-two bits EDCB.
5286+  15ED             ; For strings, the start of the string is in DE and the length in BC.
5287+  15ED             ; A is unused.
5288+  15ED             
5289+  15ED             ; STK-FETCH
5290+  15ED             SUB_15ED:
5291+  15ED 2A 1C 40        LD HL,($401C)
5292+  15F0 2B              DEC HL
5293+  15F1 46              LD B,(HL)
5294+  15F2 2B              DEC HL
5295+  15F3 4E              LD C,(HL)
5296+  15F4 2B              DEC HL
5297+  15F5 56              LD D,(HL)
5298+  15F6 2B              DEC HL
5299+  15F7 5E              LD E,(HL)
5300+  15F8 2B              DEC HL
5301+  15F9 7E              LD A,(HL)
5302+  15FA 22 1C 40        LD ($401C),HL
5303+  15FD C9              RET
5304+  15FE             
5305+  15FE             ; -------------------------
5306+  15FE             ; THE 'DIM' COMMAND ROUTINE
5307+  15FE             ; -------------------------
5308+  15FE             
5309+  15FE             ; DIM
5310+  15FE             SUB_15FE
5311+  15FE CD 11 13        CALL SUB_1311                       ; LOOK-VARS
5312+  1601             
5313+  1601             ; D-RPORT-C
5314+  1601             L_1601:
5315+  1601 C2 17 0F        JP NZ,L_0F17                        ; to REPORT-C - Invalid Expression
5316+  1604 CD 23 0F        CALL SUB_0F23
5317+  1607 20 08           JR NZ,L_1611
5318+  1609 CB B1           RES 6,C
5319+  160B CD 9C 13        CALL SUB_139C
5320+  160E CD 9A 0E        CALL SUB_0E9A                       ; routine CHECK-END
5321+  1611             
5322+  1611             ; D-RUN
5323+  1611             L_1611:
5324+  1611 38 08           JR C,L_161B
5325+  1613 C5              PUSH BC
5326+  1614 CD 84 0B        CALL SUB_0B84
5327+  1617 CD F5 0B        CALL SUB_0BF5                       ; routine RECLAIM-2
5328+  161A C1              POP BC
5329+  161B             
5330+  161B             ; D-LETTER
5331+  161B             L_161B:
5332+  161B CB F9           SET 7,C
5333+  161D 06 00           LD B,$00
5334+  161F C5              PUSH BC
5335+  1620 21 01 00        LD HL,$0001
5336+  1623 CB 71           BIT 6,C
5337+  1625 20 02           JR NZ,L_1629
5338+  1627 2E 05           LD L,$05
5339+  1629             
5340+  1629             ; D-SIZE
5341+  1629             L_1629:
5342+  1629 EB              EX DE,HL
5343+  162A             
5344+  162A             ; D-NO-LOOP
5345+  162A             L_162A:
5346+  162A E7              RST 20H
5347+  162B 26 40           LD H,$40
5348+  162D CD D2 14        CALL SUB_14D2
5349+  1630 DA 26 14        JP C,L_1426
5350+  1633 E1              POP HL
5351+  1634 C5              PUSH BC
5352+  1635 24              INC H
5353+  1636 E5              PUSH HL
5354+  1637 60              LD H,B
5355+  1638 69              LD L,C
5356+  1639 CD FA 14        CALL SUB_14FA
5357+  163C EB              EX DE,HL
5358+  163D DF              RST 18H
5359+  163E FE 1A           CP $1A
5360+  1640 28 E8           JR Z,L_162A
5361+  1642 FE 11           CP $11
5362+  1644 20 BB           JR NZ,L_1601
5363+  1646 E7              RST 20H
5364+  1647 C1              POP BC
5365+  1648 79              LD A,C
5366+  1649 68              LD L,B
5367+  164A 26 00           LD H,$00
5368+  164C 23              INC HL
5369+  164D 23              INC HL
5370+  164E 29              ADD HL,HL
5371+  164F 19              ADD HL,DE
5372+  1650 DA AE 10        JP C,L_10AE
5373+  1653 D5              PUSH DE
5374+  1654 C5              PUSH BC
5375+  1655 E5              PUSH HL
5376+  1656 44              LD B,H
5377+  1657 4D              LD C,L
5378+  1658 2A 14 40        LD HL,($4014)
5379+  165B 2B              DEC HL
5380+  165C CD 30 0B        CALL SUB_0B30
5381+  165F 23              INC HL
5382+  1660 77              LD (HL),A
5383+  1661 C1              POP BC
5384+  1662 0B              DEC BC
5385+  1663 0B              DEC BC
5386+  1664 0B              DEC BC
5387+  1665 23              INC HL
5388+  1666 71              LD (HL),C
5389+  1667 23              INC HL
5390+  1668 70              LD (HL),B
5391+  1669 F1              POP AF
5392+  166A 23              INC HL
5393+  166B 77              LD (HL),A
5394+  166C 62              LD H,D
5395+  166D 6B              LD L,E
5396+  166E 1B              DEC DE
5397+  166F 36 00           LD (HL),$00
5398+  1671 C1              POP BC
5399+  1672 ED B8           LDDR
5400+  1674             
5401+  1674             ; DIM-SIZES
5402+  1674             L_1674:
5403+  1674 C1              POP BC
5404+  1675 70              LD (HL),B
5405+  1676 2B              DEC HL
5406+  1677 71              LD (HL),C
5407+  1678 2B              DEC HL
5408+  1679 3D              DEC A
5409+  167A 20 F8           JR NZ,L_1674
5410+  167C C9              RET
5411+  167D             
5412+  167D             ; RESERVE
5413+  167D             L_167D:
5414+  167D 2A 1A 40        LD HL,($401A)                       ; address STKBOT
5415+  1680 2B              DEC HL
5416+  1681 CD 30 0B        CALL SUB_0B30                       ; routine MAKE-ROOM
5417+  1684 23              INC HL
5418+  1685 23              INC HL
5419+  1686 C1              POP BC
5420+  1687 ED 43 14 40     LD ($4014),BC
5421+  168B C1              POP BC
5422+  168C EB              EX DE,HL
5423+  168D 23              INC HL
5424+  168E C9              RET
5425+  168F             
5426+  168F             
5427+  168F             ; -------------------------
5428+  168F             ; THE 'RUN' COMMAND ROUTINE
5429+  168F             ; -------------------------
5430+  168F             
5431+  168F             ; RUN
5432+  168F             SUB_168F:
5433+  168F CD 68 10        CALL SUB_1068                       ; GOTO with implied 0
5434+  1692             
5435+  1692             ; ---------------------------
5436+  1692             ; THE 'CLEAR' COMMAND ROUTINE
5437+  1692             ; ---------------------------
5438+  1692             
5439+  1692             ; CLEAR
5440+  1692             SUB_1692:
5441+  1692 2A 10 40        LD HL,($4010)
5442+  1695 36 80           LD (HL),$80
5443+  1697 23              INC HL
5444+  1698 22 14 40        LD ($4014),HL
5445+  169B             
5446+  169B             ; X-TEMP
5447+  169B             SUB_169B:
5448+  169B 2A 14 40        LD HL,($4014)                       ; save E_LINE_lo
5449+  169E             
5450+  169E             ; set STK-B
5451+  169E             SUB_169E:
5452+  169E 22 1A 40        LD ($401A),HL                       ; save STKBOT
5453+  16A1             
5454+  16A1             ; set STK-E
5455+  16A1             L_16A1:
5456+  16A1 22 1C 40        LD ($401C),HL                       ; save STKEND
5457+  16A4 C9              RET
5458+  16A5             
5459+  16A5             ; -----------------------
5460+  16A5             ; THE 'CURSOR-IN' ROUTINE
5461+  16A5             ; -----------------------
5462+  16A5             
5463+  16A5             ; CURSOR-IN
5464+  16A5             SUB_16A5:
5465+  16A5 2A 14 40        LD HL,($4014)
5466+  16A8 36 7F           LD (HL),$7F
5467+  16AA 23              INC HL
5468+  16AB 36 76           LD (HL),$76
5469+  16AD 23              INC HL
5470+  16AE FD 36 22 02     LD (IY+$22),$02
5471+  16B2 18 EA           JR SUB_169E
5472+  16B4             
5473+  16B4             ; ------------------------
5474+  16B4             ; THE 'SET-MIN' SUBROUTINE
5475+  16B4             ; ------------------------
5476+  16B4             
5477+  16B4             ; SET-MIN
5478+  16B4             L_16B4:
5479+  16B4 21 5D 40        LD HL,$405D
5480+  16B7 22 1F 40        LD ($401F),HL
5481+  16BA 2A 1A 40        LD HL,($401A)
5482+  16BD 18 E2           JR L_16A1
5483+  16BF             
5484+  16BF             ; ------------------------------------
5485+  16BF             ; THE 'RECLAIM THE END-MARKER' ROUTINE
5486+  16BF             ; ------------------------------------
5487+  16BF             
5488+  16BF             ; REC-V80
5489+  16BF             SUB_16BF:
5490+  16BF ED 5B 14 40     LD DE,($4014)
5491+  16C3 C3 F2 0B        JP SUB_0BF2
5492+  16C6             
5493+  16C6             ; ----------------------
5494+  16C6             ; THE 'ALPHA' SUBROUTINE
5495+  16C6             ; ----------------------
5496+  16C6             
5497+  16C6             ; ALPHA
5498+  16C6             SUB_16C6:
5499+  16C6 FE 26           CP $26
5500+  16C8 18 02           JR L_16CC
5501+  16CA             
5502+  16CA             ; -------------------------
5503+  16CA             ; THE 'ALPHANUM' SUBROUTINE
5504+  16CA             ; -------------------------
5505+  16CA             
5506+  16CA             ; ALPHANUM
5507+  16CA             SUB_16CA:
5508+  16CA FE 1C           CP $1C
5509+  16CC             
5510+  16CC             ; ALPHA-2
5511+  16CC             L_16CC:
5512+  16CC 3F              CCF
5513+  16CD D0              RET NC
5514+  16CE FE 40           CP $40
5515+  16D0 C9              RET
5516+  16D1             
5517+  16D1             ; ------------------------------------------
5518+  16D1             ; THE 'DECIMAL TO FLOATING POINT' SUBROUTINE
5519+  16D1             ; ------------------------------------------
5520+  16D1             
5521+  16D1             ; DEC-TO-FP
5522+  16D1             SUB_16D1:
5523+  16D1 CD 40 17        CALL SUB_1740
5524+  16D4 FE 1B           CP $1B
5525+  16D6 20 15           JR NZ,L_16ED
5526+  16D8 EF              RST 28H                             ; FP-CALC
5527+  16D9 A1              .BYTE    $A1                        ; stk-one
5528+  16DA C0              .BYTE    $C0                        ; st-mem-0
5529+  16DB 02              .BYTE    $02                        ; delete
5530+  16DC 34              .BYTE    $34                        ; end-calc
5531+  16DD             
5532+  16DD             ; NXT-DGT-1
5533+  16DD             L_16DD:
5534+  16DD E7              RST 20H
5535+  16DE CD 0C 17        CALL SUB_170C
5536+  16E1 38 0A           JR C,L_16ED
5537+  16E3 EF              RST 28H                             ; FP-CALC
5538+  16E4 E0              .BYTE    $E0                        ; get-mem-0
5539+  16E5 A4              .BYTE    $A4                        ; stk-ten
5540+  16E6 05              .BYTE    $05                        ; division
5541+  16E7 C0              .BYTE    $C0                        ; st-mem-0
5542+  16E8 04              .BYTE    $04                        ; multiply
5543+  16E9 0F              .BYTE    $0F                        ; addition
5544+  16EA 34              .BYTE    $34                        ; end-calc
5545+  16EB 18 F0           JR L_16DD
5546+  16ED             
5547+  16ED             ; E-FORMAT
5548+  16ED             L_16ED:
5549+  16ED FE 2A           CP $2A
5550+  16EF C0              RET NZ
5551+  16F0 FD 36 5D FF     LD (IY+$5D),$FF
5552+  16F4 E7              RST 20H
5553+  16F5 FE 15           CP $15
5554+  16F7 28 07           JR Z,L_1700
5555+  16F9 FE 16           CP $16
5556+  16FB 20 04           JR NZ,L_1701
5557+  16FD FD 34 5D        INC (IY+$5D)
5558+  1700             
5559+  1700             ; SIGN-DONE
5560+  1700             L_1700:
5561+  1700 E7              RST 20H
5562+  1701             
5563+  1701             ; ST-E-PART
5564+  1701             L_1701:
5565+  1701 CD 40 17        CALL SUB_1740
5566+  1704 EF              RST 28H                             ; FP-CALC              m, e.
5567+  1705 E0              .BYTE    $E0                        ; get-mem-0             m, e, (1/0) TRUE/FALSE
5568+  1706 00              .BYTE    $00                        ; jump-true
5569+  1707 02              .BYTE    $02                        ; to L1511, E-POSTVE
5570+  1708 18              .BYTE    $18                        ; neg                   m, -e
5571+  1709             ;; E-POSTVE
5572+  1709 38              .BYTE    $38                        ; e-to-fp               x.
5573+  170A 34              .BYTE    $34                        ; end-calc              x.
5574+  170B C9              RET
5575+  170C             
5576+  170C             ; --------------------------
5577+  170C             ; THE 'STK-DIGIT' SUBROUTINE
5578+  170C             ; --------------------------
5579+  170C             
5580+  170C             ; STK-DIGIT
5581+  170C             SUB_170C:
5582+  170C FE 1C           CP $1C
5583+  170E D8              RET C
5584+  170F FE 26           CP $26
5585+  1711 3F              CCF
5586+  1712 D8              RET C
5587+  1713 D6 1C           SUB $1C
5588+  1715             
5589+  1715             ; ------------------------
5590+  1715             ; THE 'STACK-A' SUBROUTINE
5591+  1715             ; ------------------------
5592+  1715             
5593+  1715             ; STACK-A
5594+  1715             SUB_1715:
5595+  1715 4F              LD C,A
5596+  1716 06 00           LD B,$00
5597+  1718             
5598+  1718             ; -------------------------
5599+  1718             ; THE 'STACK-BC' SUBROUTINE
5600+  1718             ; -------------------------
5601+  1718             
5602+  1718             ; STACK-BC
5603+  1718             SUB_1718:
5604+  1718 FD 21 00 40     LD IY,$4000
5605+  171C C5              PUSH BC
5606+  171D EF              RST 28H                             ; FP-CALC
5607+  171E A0              .BYTE    $A0                        ; stk-zero                      0.
5608+  171F 34              .BYTE    $34                        ; end-calc
5609+  1720 C1              POP BC
5610+  1721 36 91           LD (HL),$91
5611+  1723 78              LD A,B
5612+  1724 A7              AND A
5613+  1725 20 07           JR NZ,L_172E
5614+  1727 77              LD (HL),A
5615+  1728 B1              OR C
5616+  1729 C8              RET Z
5617+  172A 41              LD B,C
5618+  172B 4E              LD C,(HL)
5619+  172C 36 89           LD (HL),$89
5620+  172E             
5621+  172E             ; STK-BC-2
5622+  172E             L_172E:
5623+  172E 35              DEC (HL)
5624+  172F CB 21           SLA C
5625+  1731 CB 10           RL B
5626+  1733 30 F9           JR NC,L_172E
5627+  1735 CB 38           SRL B
5628+  1737 CB 19           RR C
5629+  1739 23              INC HL
5630+  173A 70              LD (HL),B
5631+  173B 23              INC HL
5632+  173C 71              LD (HL),C
5633+  173D 2B              DEC HL
5634+  173E 2B              DEC HL
5635+  173F C9              RET
5636+  1740             
5637+  1740             ; ------------------------------------------
5638+  1740             ; THE 'INTEGER TO FLOATING POINT' SUBROUTINE
5639+  1740             ; ------------------------------------------
5640+  1740             
5641+  1740             ; INT-TO-FP
5642+  1740             SUB_1740:
5643+  1740 F5              PUSH AF
5644+  1741 EF              RST 28H                             ; FP-CALC
5645+  1742 A0              .BYTE    $A0                        ; stk-zero
5646+  1743 34              .BYTE    $34                        ; end-calc
5647+  1744 F1              POP AF
5648+  1745             
5649+  1745             ; NXT-DGT-2
5650+  1745             L_1745:
5651+  1745 CD 0C 17        CALL SUB_170C
5652+  1748 D8              RET C
5653+  1749 EF              RST 28H                             ; FP-CALC
5654+  174A 01              .BYTE    $01                        ; exchange
5655+  174B A4              .BYTE    $A4                        ; stk-ten
5656+  174C 04              .BYTE    $04                        ; multiply
5657+  174D 0F              .BYTE    $0F                        ; addition
5658+  174E 34              .BYTE    $34                        ; end-calc
5659+  174F E7              RST 20H
5660+  1750 18 F3           JR L_1745
5661+  1752             
5662+  1752             ; ------------------------------------------------
5663+  1752             ; THE 'E-FORMAT TO FLOATING POINT' SUBROUTINE (38)
5664+  1752             ; ------------------------------------------------
5665+  1752             SUB_1752:
5666+  1752 EF              RST 28H                             ; FP-CALC              x, m.
5667+  1753 2D              .BYTE    $2D                        ; duplicate             x, m, m.
5668+  1754 32              .BYTE    $32                        ; less-0                x, m, (1/0).
5669+  1755 C0              .BYTE    $C0                        ; st-mem-0              x, m, (1/0).
5670+  1756 02              .BYTE    $02                        ; delete                x, m.
5671+  1757 27              .BYTE    $27                        ; abs                   x, +m.
5672+  1758             
5673+  1758             ;; E-LOOP
5674+  1758 A1              .BYTE    $A1                        ; stk-one               x, m,1.
5675+  1759 03              .BYTE    $03                        ; subtract              x, m-1.
5676+  175A 2D              .BYTE    $2D                        ; duplicate             x, m-1,m-1.
5677+  175B 32              .BYTE    $32                        ; less-0                x, m-1, (1/0).
5678+  175C 00              .BYTE    $00                        ; jump-true             x, m-1.
5679+  175D 22              .BYTE    $22                        ; to L1587, E-END       x, m-1.
5680+  175E             
5681+  175E 2D              .BYTE    $2D                        ; duplicate             x, m-1, m-1.
5682+  175F 30              .BYTE    $30                        ; stk-data
5683+  1760 33              .BYTE    $33                        ; Exponent: $83, Bytes: 1
5684+  1761             
5685+  1761 40              .BYTE    $40                        ; (+00,+00,+00)         x, m-1, m-1, 6.
5686+  1762 03              .BYTE    $03                        ; subtract              x, m-1, m-7.
5687+  1763 2D              .BYTE    $2D                        ; duplicate             x, m-1, m-7, m-7.
5688+  1764 32              .BYTE    $32                        ; less-0                x, m-1, m-7, (1/0).
5689+  1765 00              .BYTE    $00                        ; jump-true             x, m-1, m-7.
5690+  1766 0C              .BYTE    $0C                        ; to L157A, E-LOW
5691+  1767             
5692+  1767             ; but if exponent m is higher than 7 do a bigger chunk.
5693+  1767             ; multiplying (or dividing if negative) by 10 million - 1e7.
5694+  1767             
5695+  1767 01              .BYTE    $01                        ; exchange              x, m-7, m-1.
5696+  1768 02              .BYTE    $02                        ; delete                x, m-7.
5697+  1769 01              .BYTE    $01                        ; exchange              m-7, x.
5698+  176A 30              .BYTE    $30                        ; stk-data
5699+  176B 80              .BYTE    $80                        ; Bytes: 3
5700+  176C 48              .BYTE    $48                        ; Exponent $98
5701+  176D 18 96 80        .BYTE    $18,$96,$80                ; (+00)                 m-7, x, 10,000,000 (=f)
5702+  1770 2F              .BYTE    $2F                        ; jump
5703+  1771 04              .BYTE    $04                        ; to L157D, E-CHUNK
5704+  1772             
5705+  1772             ; ---
5706+  1772             
5707+  1772             ;; E-LOW
5708+  1772 02              .BYTE    $02                        ; delete                x, m-1.
5709+  1773 01              .BYTE    $01                        ; exchange              m-1, x.
5710+  1774 A4              .BYTE    $A4                        ; stk-ten               m-1, x, 10 (=f).
5711+  1775             
5712+  1775             ;; E-CHUNK
5713+  1775 E0              .BYTE    $E0                        ; get-mem-0             m-1, x, f, (1/0)
5714+  1776 00              .BYTE    $00                        ; jump-true             m-1, x, f
5715+  1777 04              .BYTE    $04                        ; to L1583, E-DIVSN
5716+  1778             
5717+  1778 04              .BYTE    $04                        ; multiply              m-1, x*f.
5718+  1779 2F              .BYTE    $2F                        ; jump
5719+  177A 02              .BYTE    $02                        ; to L1584, E-SWAP
5720+  177B             
5721+  177B             ; ---
5722+  177B             
5723+  177B             ;; E-DIVSN
5724+  177B 05              .BYTE    $05                        ; division              m-1, x/f (= new x).
5725+  177C             
5726+  177C             ;; E-SWAP
5727+  177C 01              .BYTE    $01                        ; exchange              x, m-1 (= new m).
5728+  177D 2F              .BYTE    $2F                        ; jump                  x, m.
5729+  177E DA              .BYTE    $DA                        ; to L1560, E-LOOP
5730+  177F             
5731+  177F             ; ---
5732+  177F             
5733+  177F             ;; E-END
5734+  177F 02              .BYTE    $02                        ; delete                x. (-1)
5735+  1780 34              .BYTE    $34                        ; end-calc              x.
5736+  1781             
5737+  1781 C9              RET
5738+  1782             
5739+  1782             ; -------------------------------------
5740+  1782             ; THE 'FLOATING-POINT TO BC' SUBROUTINE
5741+  1782             ; -------------------------------------
5742+  1782             
5743+  1782             ; FP-TO-BC
5744+  1782             SUB_1782:
5745+  1782 CD ED 15        CALL SUB_15ED                       ; routine STK-FETCH
5746+  1785 A7              AND A
5747+  1786 20 05           JR NZ,L_178D
5748+  1788 47              LD B,A
5749+  1789 4F              LD C,A
5750+  178A F5              PUSH AF
5751+  178B 18 31           JR L_17BE
5752+  178D             
5753+  178D             ; FPBC-NZRO
5754+  178D             L_178D:
5755+  178D 43              LD B,E
5756+  178E 59              LD E,C
5757+  178F 4A              LD C,D
5758+  1790 D6 91           SUB $91
5759+  1792 3F              CCF
5760+  1793 CB 78           BIT 7,B
5761+  1795 F5              PUSH AF
5762+  1796 CB F8           SET 7,B
5763+  1798 38 24           JR C,L_17BE
5764+  179A 3C              INC A
5765+  179B ED 44           NEG
5766+  179D FE 08           CP $08
5767+  179F 38 06           JR C,L_17A7
5768+  17A1 59              LD E,C
5769+  17A2 48              LD C,B
5770+  17A3 06 00           LD B,$00
5771+  17A5 D6 08           SUB $08
5772+  17A7             
5773+  17A7             ; BIG-INT
5774+  17A7             L_17A7:
5775+  17A7 A7              AND A
5776+  17A8 57              LD D,A
5777+  17A9 7B              LD A,E
5778+  17AA 07              RLCA
5779+  17AB 28 07           JR Z,L_17B4
5780+  17AD             
5781+  17AD             ; FPBC-NORM
5782+  17AD             L_17AD:
5783+  17AD CB 38           SRL B
5784+  17AF CB 19           RR C
5785+  17B1 15              DEC D
5786+  17B2 20 F9           JR NZ,L_17AD
5787+  17B4             
5788+  17B4             ; EXP-ZERO
5789+  17B4             L_17B4:
5790+  17B4 30 08           JR NC,L_17BE
5791+  17B6 03              INC BC
5792+  17B7 78              LD A,B
5793+  17B8 B1              OR C
5794+  17B9 20 03           JR NZ,L_17BE
5795+  17BB F1              POP AF
5796+  17BC 37              SCF
5797+  17BD F5              PUSH AF
5798+  17BE             
5799+  17BE             ; FPBC-END
5800+  17BE             L_17BE:
5801+  17BE C5              PUSH BC
5802+  17BF EF              RST 28H                             ; FP-CALC
5803+  17C0 34              .BYTE    $34                        ; end-calc
5804+  17C1 C1              POP BC
5805+  17C2 F1              POP AF
5806+  17C3 79              LD A,C
5807+  17C4 C9              RET
5808+  17C5             
5809+  17C5             ; ------------------------------------
5810+  17C5             ; THE 'FLOATING-POINT TO A' SUBROUTINE
5811+  17C5             ; ------------------------------------
5812+  17C5             
5813+  17C5             ; FP-TO-A
5814+  17C5             SUB_17C5:
5815+  17C5 CD 82 17        CALL SUB_1782
5816+  17C8 D8              RET C
5817+  17C9 F5              PUSH AF
5818+  17CA 05              DEC B
5819+  17CB 04              INC B
5820+  17CC 28 03           JR Z,L_17D1
5821+  17CE F1              POP AF
5822+  17CF 37              SCF
5823+  17D0 C9              RET
5824+  17D1             
5825+  17D1             ; FP-A-END
5826+  17D1             L_17D1:
5827+  17D1 F1              POP AF
5828+  17D2 C9              RET
5829+  17D3             
5830+  17D3             ; ----------------------------------------------
5831+  17D3             ; THE 'PRINT A FLOATING-POINT NUMBER' SUBROUTINE
5832+  17D3             ; ----------------------------------------------
5833+  17D3             
5834+  17D3             ; PRINT-FP
5835+  17D3             L_17D3:
5836+  17D3 EF              RST 28H                             ; FP-CALC              x.
5837+  17D4 2D              .BYTE    $2D                        ; duplicate             x, x.
5838+  17D5 32              .BYTE    $32                        ; less-0                x, (1/0).
5839+  17D6 00              .BYTE    $00                        ; jump-true
5840+  17D7 0B              .BYTE    $0B                        ; to L15EA, PF-NGTVE    x.
5841+  17D8             
5842+  17D8 2D              .BYTE    $2D                        ; duplicate             x, x
5843+  17D9 33              .BYTE    $33                        ; greater-0             x, (1/0).
5844+  17DA 00              .BYTE    $00                        ; jump-true
5845+  17DB 0D              .BYTE    $0D                        ; to L15F0, PF-POSTVE   x.
5846+  17DC             
5847+  17DC 02              .BYTE    $02                        ; delete                .
5848+  17DD 34              .BYTE    $34                        ; end-calc              .
5849+  17DE 3E 1C           LD A,$1C
5850+  17E0 D7              RST 10H
5851+  17E1 C9              RET
5852+  17E2             
5853+  17E2             ; PF-NEGTVE
5854+  17E2 27              .BYTE    $27                        ; abs                   +x.
5855+  17E3 34              .BYTE    $34                        ; end-calc              x.
5856+  17E4 3E 16           LD A,$16
5857+  17E6 D7              RST 10H
5858+  17E7 EF              RST 28H                             ; FP-CALC              x.
5859+  17E8             
5860+  17E8             ; PF-POSTVE
5861+  17E8 34              .BYTE    $34                        ; end-calc              x.
5862+  17E9 7E              LD A,(HL)
5863+  17EA CD 15 17        CALL SUB_1715
5864+  17ED EF              RST 28H                             ; FP-CALC              x, e.
5865+  17EE 30              .BYTE    $30                        ; stk-data
5866+  17EF 78              .BYTE    $78                        ; Exponent: $88, Bytes: 2
5867+  17F0 00 80           .BYTE    $00,$80                    ; (+00,+00)             x, e, 128.5.
5868+  17F2 03              .BYTE    $03                        ; subtract              x, e -.5.
5869+  17F3 30              .BYTE    $30                        ; stk-data
5870+  17F4 EF              .BYTE    $EF                        ; Exponent: $7F, Bytes: 4
5871+  17F5 1A 20 9A 85     .BYTE    $1A,$20,$9A,$85            ; .30103 (log10 2)
5872+  17F9 04              .BYTE    $04                        ; multiply              x,
5873+  17FA 24              .BYTE    $24                        ; int
5874+  17FB C1              .BYTE    $C1                        ; st-mem-1              x, n.
5875+  17FC             
5876+  17FC             
5877+  17FC 30              .BYTE    $30                        ; stk-data
5878+  17FD 34              .BYTE    $34                        ; Exponent: $84, Bytes: 1
5879+  17FE 00              .BYTE    $00                        ; (+00,+00,+00)         x, n, 8.
5880+  17FF             
5881+  17FF 03              .BYTE    $03                        ; subtract              x, n-8.
5882+  1800 18              .BYTE    $18                        ; neg                   x, 8-n.
5883+  1801 38              .BYTE    $38                        ; e-to-fp               x * (10^n)
5884+  1802             
5885+  1802 A2              .BYTE    $A2                        ; stk-half
5886+  1803 0F              .BYTE    $0F                        ; addition
5887+  1804 24              .BYTE    $24                        ; int                   i.
5888+  1805 34              .BYTE    $34                        ; end-calc
5889+  1806 21 6B 40        LD HL,$406B
5890+  1809 36 90           LD (HL),$90
5891+  180B 06 0A           LD B,$0A
5892+  180D             
5893+  180D             ; PF-LOOP
5894+  180D             L_180D:
5895+  180D 23              INC HL
5896+  180E E5              PUSH HL
5897+  180F C5              PUSH BC
5898+  1810 EF              RST 28H                             ; FP-CALC              i.
5899+  1811 A4              .BYTE    $A4                        ; stk-ten               i, 10.
5900+  1812 2E              .BYTE    $2E                        ; n-mod-m               i mod 10, i/10
5901+  1813 01              .BYTE    $01                        ; exchange              i/10, remainder.
5902+  1814 34              .BYTE    $34                        ; end-calc
5903+  1815 CD C5 17        CALL SUB_17C5
5904+  1818 F6 90           OR $90
5905+  181A C1              POP BC
5906+  181B E1              POP HL
5907+  181C 77              LD (HL),A
5908+  181D 10 EE           DJNZ L_180D
5909+  181F 23              INC HL
5910+  1820 01 08 00        LD BC,$0008
5911+  1823 E5              PUSH HL
5912+  1824             
5913+  1824             ; PF-NULL
5914+  1824             L_1824:
5915+  1824 2B              DEC HL
5916+  1825 7E              LD A,(HL)
5917+  1826 FE 90           CP $90
5918+  1828 28 FA           JR Z,L_1824
5919+  182A ED 42           SBC HL,BC
5920+  182C E5              PUSH HL
5921+  182D 7E              LD A,(HL)
5922+  182E C6 6B           ADD A,$6B
5923+  1830 F5              PUSH AF
5924+  1831             
5925+  1831             ; PF-RND-LP
5926+  1831             L_1831:
5927+  1831 F1              POP AF
5928+  1832 23              INC HL
5929+  1833 7E              LD A,(HL)
5930+  1834 CE 00           ADC A,$00
5931+  1836 27              DAA
5932+  1837 F5              PUSH AF
5933+  1838 E6 0F           AND $0F
5934+  183A 77              LD (HL),A
5935+  183B CB FE           SET 7,(HL)
5936+  183D 28 F2           JR Z,L_1831
5937+  183F F1              POP AF
5938+  1840 E1              POP HL
5939+  1841 06 06           LD B,$06
5940+  1843             
5941+  1843             ; PF-ZERO-6
5942+  1843             L_1843:
5943+  1843 36 80           LD (HL),$80
5944+  1845 2B              DEC HL
5945+  1846 10 FB           DJNZ L_1843
5946+  1848 EF              RST 28H
5947+  1849 02              LD (BC),A
5948+  184A E1              POP HL
5949+  184B 34              INC (HL)
5950+  184C CD C5 17        CALL SUB_17C5
5951+  184F 28 02           JR Z,L_1853
5952+  1851 ED 44           NEG
5953+  1853             
5954+  1853             ; PF-POS
5955+  1853             L_1853:
5956+  1853 5F              LD E,A
5957+  1854 1C              INC E
5958+  1855 1C              INC E
5959+  1856 E1              POP HL
5960+  1857             
5961+  1857             ; GET-FIRST
5962+  1857             L_1857:
5963+  1857 2B              DEC HL
5964+  1858 1D              DEC E
5965+  1859 7E              LD A,(HL)
5966+  185A E6 0F           AND $0F
5967+  185C 28 F9           JR Z,L_1857
5968+  185E 7B              LD A,E
5969+  185F D6 05           SUB $05
5970+  1861 FE 08           CP $08
5971+  1863 F2 7A 18        JP P,L_187A
5972+  1866 FE F6           CP $F6
5973+  1868 FA 7A 18        JP M,L_187A
5974+  186B C6 06           ADD A,$06
5975+  186D 28 47           JR Z,L_18B6
5976+  186F FA A9 18        JP M,L_18A9
5977+  1872 47              LD B,A
5978+  1873             
5979+  1873             ; PF-NIB-LP
5980+  1873             L_1873:
5981+  1873 CD C7 18        CALL SUB_18C7
5982+  1876 10 FB           DJNZ L_1873
5983+  1878 18 3F           JR L_18B9
5984+  187A             
5985+  187A             ; PF-E-FMT
5986+  187A             L_187A:
5987+  187A 43              LD B,E
5988+  187B CD C7 18        CALL SUB_18C7
5989+  187E CD B9 18        CALL L_18B9
5990+  1881 3E 2A           LD A,$2A
5991+  1883 D7              RST 10H
5992+  1884 78              LD A,B
5993+  1885 A7              AND A
5994+  1886 F2 90 18        JP P,L_1890
5995+  1889 ED 44           NEG
5996+  188B 47              LD B,A
5997+  188C 3E 16           LD A,$16
5998+  188E 18 02           JR L_1892
5999+  1890             
6000+  1890             ; PF-E-POS
6001+  1890             L_1890:
6002+  1890 3E 15           LD A,$15
6003+  1892             
6004+  1892             ; PF-E-SIGN
6005+  1892             L_1892:
6006+  1892 D7              RST 10H
6007+  1893 78              LD A,B
6008+  1894 06 FF           LD B,$FF
6009+  1896             
6010+  1896             ; PF-E-TENS
6011+  1896             L_1896:
6012+  1896 04              INC B
6013+  1897 D6 0A           SUB $0A
6014+  1899 30 FB           JR NC,L_1896
6015+  189B C6 0A           ADD A,$0A
6016+  189D 4F              LD C,A
6017+  189E 78              LD A,B
6018+  189F A7              AND A
6019+  18A0 28 03           JR Z,L_18A5
6020+  18A2 CD 8C 09        CALL SUB_098C
6021+  18A5             
6022+  18A5             ; PF-E-LOW
6023+  18A5             L_18A5:
6024+  18A5 79              LD A,C
6025+  18A6 C3 8C 09        JP SUB_098C
6026+  18A9             
6027+  18A9             ; PF-ZEROS
6028+  18A9             L_18A9:
6029+  18A9 ED 44           NEG
6030+  18AB 47              LD B,A
6031+  18AC 3E 1B           LD A,$1B
6032+  18AE D7              RST 10H
6033+  18AF             L_18AF:
6034+  18AF 3E 1C           LD A,$1C
6035+  18B1             
6036+  18B1             ; PF-ZRO-LP  - ZX81 jumped to line above?
6037+  18B1 D7              RST 10H
6038+  18B2 10 FB           DJNZ L_18AF
6039+  18B4 18 09           JR L_18BF
6040+  18B6             
6041+  18B6             ; PF-ZERO-1
6042+  18B6             L_18B6:
6043+  18B6 3E 1C           LD A,$1C
6044+  18B8 D7              RST 10H
6045+  18B9             
6046+  18B9             ; PF-DC-OUT
6047+  18B9             L_18B9:
6048+  18B9 35              DEC (HL)
6049+  18BA 34              INC (HL)
6050+  18BB E8              RET PE
6051+  18BC 3E 1B           LD A,$1B
6052+  18BE D7              RST 10H
6053+  18BF             
6054+  18BF             ; PF-FRAC-LP
6055+  18BF             L_18BF:
6056+  18BF 35              DEC (HL)
6057+  18C0 34              INC (HL)
6058+  18C1 E8              RET PE
6059+  18C2 CD C7 18        CALL SUB_18C7
6060+  18C5 18 F8           JR L_18BF
6061+  18C7             
6062+  18C7             ; PF-NIBBLE
6063+  18C7             SUB_18C7:
6064+  18C7 7E              LD A,(HL)
6065+  18C8 E6 0F           AND $0F
6066+  18CA CD 8C 09        CALL SUB_098C
6067+  18CD 2B              DEC HL
6068+  18CE C9              RET
6069+  18CF             
6070+  18CF             ; -------------------------------
6071+  18CF             ; THE 'PREPARE TO ADD' SUBROUTINE
6072+  18CF             ; -------------------------------
6073+  18CF             
6074+  18CF             ; PREP-ADD
6075+  18CF             SUB_18CF:
6076+  18CF 7E              LD A,(HL)
6077+  18D0 36 00           LD (HL),$00
6078+  18D2 A7              AND A
6079+  18D3 C8              RET Z
6080+  18D4 23              INC HL
6081+  18D5 CB 7E           BIT 7,(HL)
6082+  18D7 CB FE           SET 7,(HL)
6083+  18D9 2B              DEC HL
6084+  18DA C8              RET Z
6085+  18DB C5              PUSH BC
6086+  18DC 01 05 00        LD BC,$0005
6087+  18DF 09              ADD HL,BC
6088+  18E0 41              LD B,C
6089+  18E1 4F              LD C,A
6090+  18E2 37              SCF
6091+  18E3             
6092+  18E3             ; NEG-BYTE
6093+  18E3             L_18E3:
6094+  18E3 2B              DEC HL
6095+  18E4 7E              LD A,(HL)
6096+  18E5 2F              CPL
6097+  18E6 CE 00           ADC A,$00
6098+  18E8 77              LD (HL),A
6099+  18E9 10 F8           DJNZ L_18E3
6100+  18EB 79              LD A,C
6101+  18EC C1              POP BC
6102+  18ED C9              RET
6103+  18EE             
6104+  18EE             ; ----------------------------------
6105+  18EE             ; THE 'FETCH TWO NUMBERS' SUBROUTINE
6106+  18EE             ; ----------------------------------
6107+  18EE             
6108+  18EE             ; FETCH-TWO
6109+  18EE             SUB_18EE:
6110+  18EE E5              PUSH HL
6111+  18EF F5              PUSH AF
6112+  18F0 4E              LD C,(HL)
6113+  18F1 23              INC HL
6114+  18F2 46              LD B,(HL)
6115+  18F3 77              LD (HL),A
6116+  18F4 23              INC HL
6117+  18F5 79              LD A,C
6118+  18F6 4E              LD C,(HL)
6119+  18F7 C5              PUSH BC
6120+  18F8 23              INC HL
6121+  18F9 4E              LD C,(HL)
6122+  18FA 23              INC HL
6123+  18FB 46              LD B,(HL)
6124+  18FC EB              EX DE,HL
6125+  18FD 57              LD D,A
6126+  18FE 5E              LD E,(HL)
6127+  18FF D5              PUSH DE
6128+  1900 23              INC HL
6129+  1901 56              LD D,(HL)
6130+  1902 23              INC HL
6131+  1903 5E              LD E,(HL)
6132+  1904 D5              PUSH DE
6133+  1905 D9              EXX
6134+  1906 D1              POP DE
6135+  1907 E1              POP HL
6136+  1908 C1              POP BC
6137+  1909 D9              EXX
6138+  190A 23              INC HL
6139+  190B 56              LD D,(HL)
6140+  190C 23              INC HL
6141+  190D 5E              LD E,(HL)
6142+  190E F1              POP AF
6143+  190F E1              POP HL
6144+  1910 C9              RET
6145+  1911             
6146+  1911             ; -----------------------------
6147+  1911             ; THE 'SHIFT ADDEND' SUBROUTINE
6148+  1911             ; -----------------------------
6149+  1911             
6150+  1911             ; SHIFT-FP
6151+  1911             SUB_1911:
6152+  1911 A7              AND A
6153+  1912 C8              RET Z
6154+  1913 FE 21           CP $21
6155+  1915 30 16           JR NC,L_192D
6156+  1917 C5              PUSH BC
6157+  1918 47              LD B,A
6158+  1919             
6159+  1919             ; ONE-SHIFT
6160+  1919             L_1919:
6161+  1919 D9              EXX
6162+  191A CB 2D           SRA L
6163+  191C CB 1A           RR D
6164+  191E CB 1B           RR E
6165+  1920 D9              EXX
6166+  1921 CB 1A           RR D
6167+  1923 CB 1B           RR E
6168+  1925 10 F2           DJNZ L_1919
6169+  1927 C1              POP BC
6170+  1928 D0              RET NC
6171+  1929 CD 38 19        CALL SUB_1938
6172+  192C C0              RET NZ
6173+  192D             
6174+  192D             ; ADDEND-0
6175+  192D             L_192D:
6176+  192D D9              EXX
6177+  192E AF              XOR A
6178+  192F             
6179+  192F             ; ZEROS-4/5
6180+  192F             SUB_192F:
6181+  192F 2E 00           LD L,$00
6182+  1931 57              LD D,A
6183+  1932 5D              LD E,L
6184+  1933 D9              EXX
6185+  1934 11 00 00        LD DE,$0000
6186+  1937 C9              RET
6187+  1938             
6188+  1938             ; -------------------------
6189+  1938             ; THE 'ADD-BACK' SUBROUTINE
6190+  1938             ; -------------------------
6191+  1938             
6192+  1938             ; ADD-BACK
6193+  1938             SUB_1938:
6194+  1938 1C              INC E
6195+  1939 C0              RET NZ
6196+  193A 14              INC D
6197+  193B C0              RET NZ
6198+  193C D9              EXX
6199+  193D 1C              INC E
6200+  193E 20 01           JR NZ,L_1941
6201+  1940 14              INC D
6202+  1941             
6203+  1941             ; ALL-ADDED
6204+  1941             L_1941:
6205+  1941 D9              EXX
6206+  1942 C9              RET
6207+  1943             
6208+  1943             ; --------------------------------
6209+  1943             ; THE 'SUBTRACTION' OPERATION (03)
6210+  1943             ; --------------------------------
6211+  1943             
6212+  1943             ; subtract
6213+  1943             SUB_1943:
6214+  1943 1A              LD A,(DE)
6215+  1944 A7              AND A
6216+  1945 C8              RET Z
6217+  1946 13              INC DE
6218+  1947 1A              LD A,(DE)
6219+  1948 EE 80           XOR $80
6220+  194A 12              LD (DE),A
6221+  194B 1B              DEC DE
6222+  194C             
6223+  194C             ; -----------------------------
6224+  194C             ; THE 'ADDITION' OPERATION (0F)
6225+  194C             ; -----------------------------
6226+  194C             
6227+  194C             ; addition
6228+  194C             SUB_194C:
6229+  194C D9              EXX
6230+  194D E5              PUSH HL
6231+  194E D9              EXX
6232+  194F D5              PUSH DE
6233+  1950 E5              PUSH HL
6234+  1951 CD CF 18        CALL SUB_18CF
6235+  1954 47              LD B,A
6236+  1955 EB              EX DE,HL
6237+  1956 CD CF 18        CALL SUB_18CF
6238+  1959 4F              LD C,A
6239+  195A B8              CP B
6240+  195B 30 03           JR NC,L_1960
6241+  195D 78              LD A,B
6242+  195E 41              LD B,C
6243+  195F EB              EX DE,HL
6244+  1960             
6245+  1960             ; SHIFT-LEN
6246+  1960             L_1960:
6247+  1960 F5              PUSH AF
6248+  1961 90              SUB B
6249+  1962 CD EE 18        CALL SUB_18EE
6250+  1965 CD 11 19        CALL SUB_1911
6251+  1968 F1              POP AF
6252+  1969 E1              POP HL
6253+  196A 77              LD (HL),A
6254+  196B E5              PUSH HL
6255+  196C 68              LD L,B
6256+  196D 61              LD H,C
6257+  196E 19              ADD HL,DE
6258+  196F D9              EXX
6259+  1970 EB              EX DE,HL
6260+  1971 ED 4A           ADC HL,BC
6261+  1973 EB              EX DE,HL
6262+  1974 7C              LD A,H
6263+  1975 8D              ADC A,L
6264+  1976 6F              LD L,A
6265+  1977 1F              RRA
6266+  1978 AD              XOR L
6267+  1979 D9              EXX
6268+  197A EB              EX DE,HL
6269+  197B E1              POP HL
6270+  197C 1F              RRA
6271+  197D 30 08           JR NC,L_1987
6272+  197F 3E 01           LD A,$01
6273+  1981 CD 11 19        CALL SUB_1911
6274+  1984 34              INC (HL)
6275+  1985 28 23           JR Z,L_19AA
6276+  1987             
6277+  1987             ; TEST-NEG
6278+  1987             L_1987:
6279+  1987 D9              EXX
6280+  1988 7D              LD A,L
6281+  1989 E6 80           AND $80
6282+  198B D9              EXX
6283+  198C 23              INC HL
6284+  198D 77              LD (HL),A
6285+  198E 2B              DEC HL
6286+  198F 28 1F           JR Z,L_19B0
6287+  1991 7B              LD A,E
6288+  1992 ED 44           NEG
6289+  1994 3F              CCF
6290+  1995 5F              LD E,A
6291+  1996 7A              LD A,D
6292+  1997 2F              CPL
6293+  1998 CE 00           ADC A,$00
6294+  199A 57              LD D,A
6295+  199B D9              EXX
6296+  199C 7B              LD A,E
6297+  199D 2F              CPL
6298+  199E CE 00           ADC A,$00
6299+  19A0 5F              LD E,A
6300+  19A1 7A              LD A,D
6301+  19A2 2F              CPL
6302+  19A3 CE 00           ADC A,$00
6303+  19A5 30 07           JR NC,L_19AE
6304+  19A7 1F              RRA
6305+  19A8 D9              EXX
6306+  19A9 34              INC (HL)
6307+  19AA             
6308+  19AA             ; ADD-REP-6
6309+  19AA             L_19AA:
6310+  19AA CA 77 1A        JP Z,L_1A77
6311+  19AD D9              EXX
6312+  19AE             
6313+  19AE             ; END-COMPL
6314+  19AE             L_19AE:
6315+  19AE 57              LD D,A
6316+  19AF D9              EXX
6317+  19B0             
6318+  19B0             ; GO-NC-MLT
6319+  19B0             L_19B0:
6320+  19B0 AF              XOR A
6321+  19B1 18 6C           JR L_1A1F
6322+  19B3             
6323+  19B3             ; ----------------------------------------------
6324+  19B3             ; THE 'PREPARE TO MULTIPLY OR DIVIDE' SUBROUTINE
6325+  19B3             ; ----------------------------------------------
6326+  19B3             
6327+  19B3             ; PREP-M/D
6328+  19B3             SUB_19B3:
6329+  19B3 37              SCF
6330+  19B4 35              DEC (HL)
6331+  19B5 34              INC (HL)
6332+  19B6 C8              RET Z
6333+  19B7 23              INC HL
6334+  19B8 AE              XOR (HL)
6335+  19B9 CB FE           SET 7,(HL)
6336+  19BB 2B              DEC HL
6337+  19BC C9              RET
6338+  19BD             
6339+  19BD             ; -----------------------------------
6340+  19BD             ; THE 'MULTIPLICATION' OPERATION (04)
6341+  19BD             ; -----------------------------------
6342+  19BD             
6343+  19BD             ; multiply
6344+  19BD             SUB_19BD:
6345+  19BD AF              XOR A
6346+  19BE CD B3 19        CALL SUB_19B3
6347+  19C1 D8              RET C
6348+  19C2 D9              EXX
6349+  19C3 E5              PUSH HL
6350+  19C4 D9              EXX
6351+  19C5 D5              PUSH DE
6352+  19C6 EB              EX DE,HL
6353+  19C7 CD B3 19        CALL SUB_19B3
6354+  19CA EB              EX DE,HL
6355+  19CB 38 5A           JR C,L_1A27
6356+  19CD E5              PUSH HL
6357+  19CE CD EE 18        CALL SUB_18EE
6358+  19D1 78              LD A,B
6359+  19D2 A7              AND A
6360+  19D3 ED 62           SBC HL,HL
6361+  19D5 D9              EXX
6362+  19D6 E5              PUSH HL
6363+  19D7 ED 62           SBC HL,HL
6364+  19D9 D9              EXX
6365+  19DA 06 21           LD B,$21
6366+  19DC 18 11           JR L_19EF
6367+  19DE             
6368+  19DE             ; MLT-LOOP
6369+  19DE             L_19DE:
6370+  19DE 30 05           JR NC,L_19E5
6371+  19E0 19              ADD HL,DE
6372+  19E1 D9              EXX
6373+  19E2 ED 5A           ADC HL,DE
6374+  19E4 D9              EXX
6375+  19E5             
6376+  19E5             ; NO-ADD
6377+  19E5             L_19E5:
6378+  19E5 D9              EXX
6379+  19E6 CB 1C           RR H
6380+  19E8 CB 1D           RR L
6381+  19EA D9              EXX
6382+  19EB CB 1C           RR H
6383+  19ED CB 1D           RR L
6384+  19EF             
6385+  19EF             ; STRT-MLT
6386+  19EF             L_19EF:
6387+  19EF D9              EXX
6388+  19F0 CB 18           RR B
6389+  19F2 CB 19           RR C
6390+  19F4 D9              EXX
6391+  19F5 CB 19           RR C
6392+  19F7 1F              RRA
6393+  19F8 10 E4           DJNZ L_19DE
6394+  19FA EB              EX DE,HL
6395+  19FB D9              EXX
6396+  19FC EB              EX DE,HL
6397+  19FD D9              EXX
6398+  19FE C1              POP BC
6399+  19FF E1              POP HL
6400+  1A00 78              LD A,B
6401+  1A01 81              ADD A,C
6402+  1A02 20 01           JR NZ,L_1A05
6403+  1A04 A7              AND A
6404+  1A05             
6405+  1A05             ; MAKE-EXPT
6406+  1A05             L_1A05:
6407+  1A05 3D              DEC A
6408+  1A06 3F              CCF
6409+  1A07             
6410+  1A07             ; DIVN-EXPT
6411+  1A07             L_1A07:
6412+  1A07 17              RLA
6413+  1A08 3F              CCF
6414+  1A09 1F              RRA
6415+  1A0A F2 10 1A        JP P,L_1A10
6416+  1A0D 30 68           JR NC,L_1A77
6417+  1A0F A7              AND A
6418+  1A10             
6419+  1A10             ; OFLW1-CLR
6420+  1A10             L_1A10:
6421+  1A10 3C              INC A
6422+  1A11 20 08           JR NZ,L_1A1B
6423+  1A13 38 06           JR C,L_1A1B
6424+  1A15 D9              EXX
6425+  1A16 CB 7A           BIT 7,D
6426+  1A18 D9              EXX
6427+  1A19 20 5C           JR NZ,L_1A77
6428+  1A1B             
6429+  1A1B             ; OFLW2-CLR
6430+  1A1B             L_1A1B:
6431+  1A1B 77              LD (HL),A
6432+  1A1C D9              EXX
6433+  1A1D 78              LD A,B
6434+  1A1E D9              EXX
6435+  1A1F             
6436+  1A1F             ; TEST-NORM
6437+  1A1F             L_1A1F:
6438+  1A1F 30 15           JR NC,L_1A36
6439+  1A21 7E              LD A,(HL)
6440+  1A22 A7              AND A
6441+  1A23             
6442+  1A23             ; NEAR-ZERO
6443+  1A23             L_1A23:
6444+  1A23 3E 80           LD A,$80
6445+  1A25 28 01           JR Z,L_1A28
6446+  1A27             
6447+  1A27             ; ZERO-RSLT
6448+  1A27             L_1A27:
6449+  1A27 AF              XOR A
6450+  1A28             
6451+  1A28             ; SKIP-ZERO
6452+  1A28             L_1A28:
6453+  1A28 D9              EXX
6454+  1A29 A2              AND D
6455+  1A2A CD 2F 19        CALL SUB_192F
6456+  1A2D 07              RLCA
6457+  1A2E 77              LD (HL),A
6458+  1A2F 38 2E           JR C,L_1A5F
6459+  1A31 23              INC HL
6460+  1A32 77              LD (HL),A
6461+  1A33 2B              DEC HL
6462+  1A34 18 29           JR L_1A5F
6463+  1A36             
6464+  1A36             ; NORMALIZE
6465+  1A36             L_1A36:
6466+  1A36 06 20           LD B,$20
6467+  1A38             
6468+  1A38             ; SHIFT-ONE
6469+  1A38             L_1A38:
6470+  1A38 D9              EXX
6471+  1A39 CB 7A           BIT 7,D
6472+  1A3B D9              EXX
6473+  1A3C 20 12           JR NZ,L_1A50
6474+  1A3E 07              RLCA
6475+  1A3F CB 13           RL E
6476+  1A41 CB 12           RL D
6477+  1A43 D9              EXX
6478+  1A44 CB 13           RL E
6479+  1A46 CB 12           RL D
6480+  1A48 D9              EXX
6481+  1A49 35              DEC (HL)
6482+  1A4A 28 D7           JR Z,L_1A23
6483+  1A4C 10 EA           DJNZ L_1A38
6484+  1A4E 18 D7           JR L_1A27
6485+  1A50             
6486+  1A50             ; NORML-NOW
6487+  1A50             L_1A50:
6488+  1A50 17              RLA
6489+  1A51 30 0C           JR NC,L_1A5F
6490+  1A53 CD 38 19        CALL SUB_1938
6491+  1A56 20 07           JR NZ,L_1A5F
6492+  1A58 D9              EXX
6493+  1A59 16 80           LD D,$80
6494+  1A5B D9              EXX
6495+  1A5C 34              INC (HL)
6496+  1A5D 28 18           JR Z,L_1A77
6497+  1A5F             
6498+  1A5F             ; OFLOW-CLR
6499+  1A5F             L_1A5F:
6500+  1A5F E5              PUSH HL
6501+  1A60 23              INC HL
6502+  1A61 D9              EXX
6503+  1A62 D5              PUSH DE
6504+  1A63 D9              EXX
6505+  1A64 C1              POP BC
6506+  1A65 78              LD A,B
6507+  1A66 17              RLA
6508+  1A67 CB 16           RL (HL)
6509+  1A69 1F              RRA
6510+  1A6A 77              LD (HL),A
6511+  1A6B 23              INC HL
6512+  1A6C 71              LD (HL),C
6513+  1A6D 23              INC HL
6514+  1A6E 72              LD (HL),D
6515+  1A6F 23              INC HL
6516+  1A70 73              LD (HL),E
6517+  1A71 E1              POP HL
6518+  1A72 D1              POP DE
6519+  1A73 D9              EXX
6520+  1A74 E1              POP HL
6521+  1A75 D9              EXX
6522+  1A76 C9              RET
6523+  1A77             
6524+  1A77             ; REPORT-6
6525+  1A77             L_1A77:
6526+  1A77 CF              RST 08H                             ; ERROR-1
6527+  1A78 05              .BYTE $05                           ; OV arithmetic OVerflow.
6528+  1A79             
6529+  1A79             ; -----------------------------
6530+  1A79             ; THE 'DIVISION' OPERATION (05)
6531+  1A79             ; -----------------------------
6532+  1A79             
6533+  1A79             ; division
6534+  1A79             SUB_1A79:
6535+  1A79 EB              EX DE,HL
6536+  1A7A AF              XOR A
6537+  1A7B CD B3 19        CALL SUB_19B3
6538+  1A7E 38 F7           JR C,L_1A77
6539+  1A80 EB              EX DE,HL
6540+  1A81 CD B3 19        CALL SUB_19B3
6541+  1A84 D8              RET C
6542+  1A85 D9              EXX
6543+  1A86 E5              PUSH HL
6544+  1A87 D9              EXX
6545+  1A88 D5              PUSH DE
6546+  1A89 E5              PUSH HL
6547+  1A8A CD EE 18        CALL SUB_18EE
6548+  1A8D D9              EXX
6549+  1A8E E5              PUSH HL
6550+  1A8F 60              LD H,B
6551+  1A90 69              LD L,C
6552+  1A91 D9              EXX
6553+  1A92 61              LD H,C
6554+  1A93 68              LD L,B
6555+  1A94 AF              XOR A
6556+  1A95 06 DF           LD B,$DF
6557+  1A97 18 10           JR L_1AA9
6558+  1A99             
6559+  1A99             ; DIV-LOOP
6560+  1A99             L_1A99:
6561+  1A99 17              RLA
6562+  1A9A CB 11           RL C
6563+  1A9C D9              EXX
6564+  1A9D CB 11           RL C
6565+  1A9F CB 10           RL B
6566+  1AA1 D9              EXX
6567+  1AA2             
6568+  1AA2             ; div-34th
6569+  1AA2             L_1AA2:
6570+  1AA2 29              ADD HL,HL
6571+  1AA3 D9              EXX
6572+  1AA4 ED 6A           ADC HL,HL
6573+  1AA6 D9              EXX
6574+  1AA7 38 10           JR C,L_1AB9
6575+  1AA9             
6576+  1AA9             ; DIV-START
6577+  1AA9             L_1AA9:
6578+  1AA9 ED 52           SBC HL,DE
6579+  1AAB D9              EXX
6580+  1AAC ED 52           SBC HL,DE
6581+  1AAE D9              EXX
6582+  1AAF 30 0F           JR NC,L_1AC0
6583+  1AB1 19              ADD HL,DE
6584+  1AB2 D9              EXX
6585+  1AB3 ED 5A           ADC HL,DE
6586+  1AB5 D9              EXX
6587+  1AB6 A7              AND A
6588+  1AB7 18 08           JR L_1AC1
6589+  1AB9             
6590+  1AB9             ; SUBN-ONLY
6591+  1AB9             L_1AB9:
6592+  1AB9 A7              AND A
6593+  1ABA ED 52           SBC HL,DE
6594+  1ABC D9              EXX
6595+  1ABD ED 52           SBC HL,DE
6596+  1ABF D9              EXX
6597+  1AC0             
6598+  1AC0             ; NO-RSTORE
6599+  1AC0             L_1AC0:
6600+  1AC0 37              SCF
6601+  1AC1             
6602+  1AC1             ; COUNT-ONE
6603+  1AC1             L_1AC1:
6604+  1AC1 04              INC B
6605+  1AC2 FA 99 1A        JP M,L_1A99
6606+  1AC5 F5              PUSH AF
6607+  1AC6 28 DA           JR Z,L_1AA2                         ; fix to ZX81 jumps to div-34th not DIV-START
6608+  1AC8 5F              LD E,A
6609+  1AC9 51              LD D,C
6610+  1ACA D9              EXX
6611+  1ACB 59              LD E,C
6612+  1ACC 50              LD D,B
6613+  1ACD F1              POP AF
6614+  1ACE CB 18           RR B
6615+  1AD0 F1              POP AF
6616+  1AD1 CB 18           RR B
6617+  1AD3 D9              EXX
6618+  1AD4 C1              POP BC
6619+  1AD5 E1              POP HL
6620+  1AD6 78              LD A,B
6621+  1AD7 91              SUB C
6622+  1AD8 C3 07 1A        JP L_1A07
6623+  1ADB             
6624+  1ADB             ; -----------------------------------------------------
6625+  1ADB             ; THE 'INTEGER TRUNCATION TOWARDS ZERO' SUBROUTINE (36)
6626+  1ADB             ; -----------------------------------------------------
6627+  1ADB             
6628+  1ADB             ; truncate
6629+  1ADB             SUB_1ADB:
6630+  1ADB 7E              LD A,(HL)
6631+  1ADC FE 81           CP $81
6632+  1ADE 30 06           JR NC,L_1AE6
6633+  1AE0 36 00           LD (HL),$00
6634+  1AE2 3E 20           LD A,$20
6635+  1AE4 18 05           JR L_1AEB
6636+  1AE6             
6637+  1AE6             ; T-GR-ZERO
6638+  1AE6             L_1AE6:
6639+  1AE6 D6 A0           SUB $A0
6640+  1AE8 F0              RET P
6641+  1AE9 ED 44           NEG
6642+  1AEB             
6643+  1AEB             ; NIL-BYTES
6644+  1AEB             L_1AEB:
6645+  1AEB D5              PUSH DE
6646+  1AEC EB              EX DE,HL
6647+  1AED 2B              DEC HL
6648+  1AEE 47              LD B,A
6649+  1AEF CB 38           SRL B
6650+  1AF1 CB 38           SRL B
6651+  1AF3 CB 38           SRL B
6652+  1AF5 28 05           JR Z,L_1AFC
6653+  1AF7             
6654+  1AF7             ; BYTE-ZERO
6655+  1AF7             L_1AF7:
6656+  1AF7 36 00           LD (HL),$00
6657+  1AF9 2B              DEC HL
6658+  1AFA 10 FB           DJNZ L_1AF7
6659+  1AFC             
6660+  1AFC             ; BITS-ZERO
6661+  1AFC             L_1AFC:
6662+  1AFC E6 07           AND $07
6663+  1AFE 28 09           JR Z,L_1B09
6664+  1B00 47              LD B,A
6665+  1B01 3E FF           LD A,$FF
6666+  1B03             
6667+  1B03             ; LESS-MASK
6668+  1B03             L_1B03:
6669+  1B03 CB 27           SLA A
6670+  1B05 10 FC           DJNZ L_1B03
6671+  1B07 A6              AND (HL)
6672+  1B08 77              LD (HL),A
6673+  1B09             
6674+  1B09             ; IX-END
6675+  1B09             L_1B09:
6676+  1B09 EB              EX DE,HL
6677+  1B0A D1              POP DE
6678+  1B0B C9              RET
6679+  1B0C             
6680+  1B0C             ;********************************
6681+  1B0C             ;**  FLOATING-POINT CALCULATOR **
6682+  1B0C             ;********************************
6683+  1B0C             
6684+  1B0C             ; ------------------------
6685+  1B0C             ; THE 'TABLE OF CONSTANTS'
6686+  1B0C             ; ------------------------
6687+  1B0C             L_1B0C:
6688+  1B0C             ; stk-zero                                                 00 00 00 00 00
6689+  1B0C 00              .BYTE    $00                        ; Bytes: 1
6690+  1B0D B0              .BYTE    $B0                        ; Exponent $00
6691+  1B0E 00              .BYTE    $00                        ; (+00,+00,+00)
6692+  1B0F             
6693+  1B0F             ; stk-one                                                  81 00 00 00 00
6694+  1B0F 31              .BYTE    $31                        ; Exponent $81, Bytes: 1
6695+  1B10 00              .BYTE    $00                        ; (+00,+00,+00)
6696+  1B11             
6697+  1B11             
6698+  1B11             ; stk-half                                                 80 00 00 00 00
6699+  1B11 30              .BYTE    $30                        ; Exponent: $80, Bytes: 1
6700+  1B12 00              .BYTE    $00                        ; (+00,+00,+00)
6701+  1B13             
6702+  1B13             
6703+  1B13             ; stk-pi/2                                                 81 49 0F DA A2
6704+  1B13 F1              .BYTE    $F1                        ; Exponent: $81, Bytes: 4
6705+  1B14 49 0F DA A2     .BYTE    $49,$0F,$DA,$A2
6706+  1B18             
6707+  1B18             ; stk-ten                                                  84 20 00 00 00
6708+  1B18 34              .BYTE    $34                        ; Exponent: $84, Bytes: 1
6709+  1B19 20              .BYTE    $20                        ; (+00,+00,+00)
6710+  1B1A             
6711+  1B1A             ; ------------------------
6712+  1B1A             ; THE 'TABLE OF ADDRESSES'
6713+  1B1A             ; ------------------------
6714+  1B1A             L_1B1A:
6715+  1B1A 1E 1E           .WORD SUB_1E1E                      ; $00 - jump-true
6716+  1B1C 67 1C           .WORD SUB_1C67                      ; $01 - exchange
6717+  1B1E DA 1B           .WORD SUB_1BDA                      ; $02 - delete
6718+  1B20 43 19           .WORD SUB_1943                      ; $03 - subtract
6719+  1B22 BD 19           .WORD SUB_19BD                      ; $04 - multiply
6720+  1B24 79 1A           .WORD SUB_1A79                      ; $05 - division
6721+  1B26 D1 1F           .WORD SUB_1FD1                      ; $06 - to-power
6722+  1B28 E2 1C           .WORD SUB_1CE2                      ; $07 - or
6723+  1B2A E8 1C           .WORD SUB_1CE8                      ; $08 - no-&-no
6724+  1B2C F8 1C           .WORD SUB_1CF8                      ; $09 - no-l-eql
6725+  1B2E F8 1C           .WORD SUB_1CF8                      ; $0A - no-gr-eql
6726+  1B30 F8 1C           .WORD SUB_1CF8                      ; $0B - nos-neql
6727+  1B32 F8 1C           .WORD SUB_1CF8                      ; $0C - no-grtr
6728+  1B34 F8 1C           .WORD SUB_1CF8                      ; $0D - no-less
6729+  1B36 F8 1C           .WORD SUB_1CF8                      ; $0E - nos-eql
6730+  1B38 4C 19           .WORD SUB_194C                      ; $0F - addition
6731+  1B3A ED 1C           .WORD SUB_1CED                      ; $10 - str-&-no
6732+  1B3C F8 1C           .WORD SUB_1CF8                      ; $11 - str-l-eql
6733+  1B3E F8 1C           .WORD SUB_1CF8                      ; $12 - str-gr-eql
6734+  1B40 F8 1C           .WORD SUB_1CF8                      ; $13 - strs-neql
6735+  1B42 F8 1C           .WORD SUB_1CF8                      ; $14 - str-grtr
6736+  1B44 F8 1C           .WORD SUB_1CF8                      ; $15 - str-less
6737+  1B46 F8 1C           .WORD SUB_1CF8                      ; $16 - strs-eql
6738+  1B48 57 1D           .WORD SUB_1D57                      ; $17 - strs-add
6739+  1B4A 95 1C           .WORD SUB_1C95                      ; $18 - neg
6740+  1B4C F5 1D           .WORD SUB_1DF5                      ; $19 - code
6741+  1B4E 93 1D           .WORD SUB_1D93                      ; $1A - val
6742+  1B50 00 1E           .WORD SUB_1E00                      ; $1B - len
6743+  1B52 38 1F           .WORD SUB_1F38                      ; $1C - sin
6744+  1B54 2D 1F           .WORD SUB_1F2D                      ; $1D - cos
6745+  1B56 5D 1F           .WORD SUB_1F5D                      ; $1E - tan
6746+  1B58 B3 1F           .WORD SUB_1FB3                      ; $1F - asn
6747+  1B5A C3 1F           .WORD SUB_1FC3                      ; $20 - acs
6748+  1B5C 65 1F           .WORD SUB_1F65                      ; $21 - atn
6749+  1B5E 98 1E           .WORD SUB_1E98                      ; $22 - ln
6750+  1B60 4A 1E           .WORD SUB_1E4A                      ; $23 - exp
6751+  1B62 35 1E           .WORD SUB_1E35                      ; $24 - int
6752+  1B64 CA 1F           .WORD SUB_1FCA                      ; $25 - sqr
6753+  1B66 A4 1C           .WORD SUB_1CA4                      ; $26 - sgn
6754+  1B68 9F 1C           .WORD SUB_1C9F                      ; $27 - abs
6755+  1B6A B3 1C           .WORD SUB_1CB3                      ; $28 - peek
6756+  1B6C BA 1C           .WORD SUB_1CBA                      ; $29 - usr-no
6757+  1B6E C4 1D           .WORD SUB_1DC4                      ; $2A - str$
6758+  1B70 84 1D           .WORD SUB_1D84                      ; $2B - chrs
6759+  1B72 CA 1C           .WORD SUB_1CCA                      ; $2C - not
6760+  1B74 ED 1B           .WORD SUB_1BED                      ; $2D - duplicate
6761+  1B76 26 1E           .WORD SUB_1E26                      ; $2E - n-mod-m
6762+  1B78 12 1E           .WORD SUB_1E12                      ; $2F - jump
6763+  1B7A F3 1B           .WORD SUB_1BF3                      ; $30 - stk-data
6764+  1B7C 06 1E           .WORD SUB_1E06                      ; $31 - dec-jr-nz
6765+  1B7E D0 1C           .WORD SUB_1CD0                      ; $32 - less-0
6766+  1B80 C3 1C           .WORD SUB_1CC3                      ; $33 - greater-0
6767+  1B82 2B 00           .WORD SUB_002B                      ; $34 - end-calc
6768+  1B84 07 1F           .WORD SUB_1F07                      ; $35 - get-argt
6769+  1B86 DB 1A           .WORD SUB_1ADB                      ; $36 - truncate
6770+  1B88 DB 1B           .WORD SUB_1BDB                      ; $37 - fp-calc-2
6771+  1B8A 52 17           .WORD SUB_1752                      ; $38 - e-to-fp
6772+  1B8C 74 1C           .WORD SUB_1C74                      ; $39 - series-xx    $80 - $9F.
6773+  1B8E 39 1C           .WORD SUB_1C39                      ; $3A - stk-const-xx $A0 - $BF.
6774+  1B90 58 1C           .WORD SUB_1C58                      ; $3B - st-mem-xx    $C0 - $DF.
6775+  1B92 2D 1C           .WORD SUB_1C2D                      ; $3C - get-mem-xx   $E0 - $FF.
6776+  1B94             
6777+  1B94             ; -------------------------------
6778+  1B94             ; THE 'FLOATING POINT CALCULATOR'
6779+  1B94             ; -------------------------------
6780+  1B94             
6781+  1B94             ; CALCULATE
6782+  1B94             L_1B94:
6783+  1B94 CD 7A 1D        CALL SUB_1D7A
6784+  1B97             
6785+  1B97             ; GEN-ENT-1
6786+  1B97             SUB_1B97:
6787+  1B97 78              LD A,B
6788+  1B98 32 1E 40        LD ($401E),A
6789+  1B9B             
6790+  1B9B             ; GEN-ENT-2
6791+  1B9B             SUB_1B9B:
6792+  1B9B D9              EXX
6793+  1B9C E3              EX (SP),HL
6794+  1B9D D9              EXX
6795+  1B9E             
6796+  1B9E             ; RE-ENTRY
6797+  1B9E             L_1B9E:
6798+  1B9E ED 53 1C 40     LD ($401C),DE
6799+  1BA2 D9              EXX
6800+  1BA3 7E              LD A,(HL)
6801+  1BA4 23              INC HL
6802+  1BA5             
6803+  1BA5             ; SCAN-ENT
6804+  1BA5             L_1BA5:
6805+  1BA5 E5              PUSH HL
6806+  1BA6 A7              AND A
6807+  1BA7 F2 B9 1B        JP P,L_1BB9
6808+  1BAA 57              LD D,A
6809+  1BAB E6 60           AND $60
6810+  1BAD 0F              RRCA
6811+  1BAE 0F              RRCA
6812+  1BAF 0F              RRCA
6813+  1BB0 0F              RRCA
6814+  1BB1 C6 72           ADD A,$72
6815+  1BB3 6F              LD L,A
6816+  1BB4 7A              LD A,D
6817+  1BB5 E6 1F           AND $1F
6818+  1BB7 18 0E           JR L_1BC7
6819+  1BB9             
6820+  1BB9             ; FIRST-3D
6821+  1BB9             L_1BB9:
6822+  1BB9 FE 18           CP $18
6823+  1BBB 30 08           JR NC,L_1BC5
6824+  1BBD D9              EXX
6825+  1BBE 01 FB FF        LD BC,$FFFB
6826+  1BC1 54              LD D,H
6827+  1BC2 5D              LD E,L
6828+  1BC3 09              ADD HL,BC
6829+  1BC4 D9              EXX
6830+  1BC5             
6831+  1BC5             ; DOUBLE-A
6832+  1BC5             L_1BC5:
6833+  1BC5 07              RLCA
6834+  1BC6 6F              LD L,A
6835+  1BC7             
6836+  1BC7             ; ENT-TABLE
6837+  1BC7             L_1BC7:
6838+  1BC7 11 1A 1B        LD DE,L_1B1A
6839+  1BCA 26 00           LD H,$00
6840+  1BCC 19              ADD HL,DE
6841+  1BCD 5E              LD E,(HL)
6842+  1BCE 23              INC HL
6843+  1BCF 56              LD D,(HL)
6844+  1BD0 21 9E 1B        LD HL,L_1B9E
6845+  1BD3 E3              EX (SP),HL
6846+  1BD4 D5              PUSH DE
6847+  1BD5 D9              EXX
6848+  1BD6 ED 4B 1D 40     LD BC,($401D)
6849+  1BDA             
6850+  1BDA             ; -----------------------
6851+  1BDA             ; THE 'DELETE' SUBROUTINE
6852+  1BDA             ; -----------------------
6853+  1BDA             
6854+  1BDA             ; delete
6855+  1BDA             SUB_1BDA:
6856+  1BDA C9              RET
6857+  1BDB             
6858+  1BDB             ; ---------------------------------
6859+  1BDB             ; THE 'SINGLE OPERATION' SUBROUTINE
6860+  1BDB             ; ---------------------------------
6861+  1BDB             
6862+  1BDB             ; fp-calc-2
6863+  1BDB             SUB_1BDB:
6864+  1BDB F1              POP AF
6865+  1BDC 3A 1E 40        LD A,($401E)
6866+  1BDF D9              EXX
6867+  1BE0 18 C3           JR L_1BA5
6868+  1BE2             
6869+  1BE2             ; ------------------------------
6870+  1BE2             ; THE 'TEST 5 SPACES' SUBROUTINE
6871+  1BE2             ; ------------------------------
6872+  1BE2             
6873+  1BE2             ; TEST-5-SP
6874+  1BE2             SUB_1BE2:
6875+  1BE2 D5              PUSH DE
6876+  1BE3 E5              PUSH HL
6877+  1BE4 01 05 00        LD BC,$0005
6878+  1BE7 CD A0 10        CALL SUB_10A0
6879+  1BEA             SUB_1BEA:
6880+  1BEA E1              POP HL
6881+  1BEB D1              POP DE
6882+  1BEC C9              RET
6883+  1BED             
6884+  1BED             ; ---------------------------------------------
6885+  1BED             ; THE 'MOVE A FLOATING POINT NUMBER' SUBROUTINE
6886+  1BED             ; ---------------------------------------------
6887+  1BED             
6888+  1BED             ; MOVE-FP
6889+  1BED             SUB_1BED:
6890+  1BED CD E2 1B        CALL SUB_1BE2
6891+  1BF0 ED B0           LDIR
6892+  1BF2 C9              RET
6893+  1BF3             
6894+  1BF3             ; -------------------------------
6895+  1BF3             ; THE 'STACK LITERALS' SUBROUTINE
6896+  1BF3             ; -------------------------------
6897+  1BF3             
6898+  1BF3             ; stk-data
6899+  1BF3             SUB_1BF3:
6900+  1BF3 62              LD H,D
6901+  1BF4 6B              LD L,E
6902+  1BF5             
6903+  1BF5             ; STK-CONST
6904+  1BF5             SUB_1BF5:
6905+  1BF5 CD E2 1B        CALL SUB_1BE2
6906+  1BF8 D9              EXX
6907+  1BF9 E5              PUSH HL
6908+  1BFA D9              EXX
6909+  1BFB E3              EX (SP),HL
6910+  1BFC C5              PUSH BC
6911+  1BFD 7E              LD A,(HL)
6912+  1BFE E6 C0           AND $C0
6913+  1C00 07              RLCA
6914+  1C01 07              RLCA
6915+  1C02 4F              LD C,A
6916+  1C03 0C              INC C
6917+  1C04 7E              LD A,(HL)
6918+  1C05 E6 3F           AND $3F
6919+  1C07 20 02           JR NZ,L_1C0B
6920+  1C09 23              INC HL
6921+  1C0A 7E              LD A,(HL)
6922+  1C0B             
6923+  1C0B             ; FORM-EXP
6924+  1C0B             L_1C0B:
6925+  1C0B C6 50           ADD A,$50
6926+  1C0D 12              LD (DE),A
6927+  1C0E 3E 05           LD A,$05
6928+  1C10 91              SUB C
6929+  1C11 23              INC HL
6930+  1C12 13              INC DE
6931+  1C13 06 00           LD B,$00
6932+  1C15 ED B0           LDIR
6933+  1C17 C1              POP BC
6934+  1C18 E3              EX (SP),HL
6935+  1C19 D9              EXX
6936+  1C1A E1              POP HL
6937+  1C1B D9              EXX
6938+  1C1C 47              LD B,A
6939+  1C1D AF              XOR A
6940+  1C1E             
6941+  1C1E             ; STK-ZEROS
6942+  1C1E             L_1C1E:
6943+  1C1E 05              DEC B
6944+  1C1F C8              RET Z
6945+  1C20 12              LD (DE),A
6946+  1C21 13              INC DE
6947+  1C22 18 FA           JR L_1C1E
6948+  1C24             
6949+  1C24             ; --------------------------------
6950+  1C24             ; THE 'MEMORY LOCATION' SUBROUTINE
6951+  1C24             ; --------------------------------
6952+  1C24             
6953+  1C24             ; LOC-MEM (which came after SKIP-NEXT on the ZX81?)
6954+  1C24             SUB_1C24:
6955+  1C24 4F              LD C,A
6956+  1C25 07              RLCA
6957+  1C26 07              RLCA
6958+  1C27 81              ADD A,C
6959+  1C28 4F              LD C,A
6960+  1C29 06 00           LD B,$00
6961+  1C2B 09              ADD HL,BC
6962+  1C2C C9              RET
6963+  1C2D             
6964+  1C2D             ; -------------------------------------
6965+  1C2D             ; THE 'GET FROM MEMORY AREA' SUBROUTINE
6966+  1C2D             ; -------------------------------------
6967+  1C2D             
6968+  1C2D             ; get-mem-xx
6969+  1C2D             SUB_1C2D:
6970+  1C2D D5              PUSH DE
6971+  1C2E 2A 1F 40        LD HL,($401F)
6972+  1C31 CD 24 1C        CALL SUB_1C24
6973+  1C34 CD ED 1B        CALL SUB_1BED
6974+  1C37 E1              POP HL
6975+  1C38 C9              RET
6976+  1C39             
6977+  1C39             ; ---------------------------------
6978+  1C39             ; THE 'STACK A CONSTANT' SUBROUTINE
6979+  1C39             ; ---------------------------------
6980+  1C39             
6981+  1C39             ; stk-const-xx
6982+  1C39             SUB_1C39:
6983+  1C39 62              LD H,D
6984+  1C3A 6B              LD L,E
6985+  1C3B D9              EXX
6986+  1C3C E5              PUSH HL
6987+  1C3D 21 0C 1B        LD HL,L_1B0C
6988+  1C40 D9              EXX
6989+  1C41             
6990+  1C41             ; SKIP-CONS (ZX81 was a call rather than drop through)
6991+  1C41 A7              AND A
6992+  1C42             
6993+  1C42             ; SKIP-NEXT (ZX81 version is RET Z)
6994+  1C42 28 0D           JR Z,L_1C51
6995+  1C44             
6996+  1C44             L_1C44:
6997+  1C44 F5              PUSH AF
6998+  1C45 D5              PUSH DE
6999+  1C46 11 00 00        LD DE,$0000
7000+  1C49 CD F5 1B        CALL SUB_1BF5
7001+  1C4C D1              POP DE
7002+  1C4D F1              POP AF
7003+  1C4E 3D              DEC A
7004+  1C4F 20 F3           JR NZ,L_1C44
7005+  1C51             L_1C51:
7006+  1C51 CD F5 1B        CALL SUB_1BF5
7007+  1C54 D9              EXX
7008+  1C55 E1              POP HL
7009+  1C56 D9              EXX
7010+  1C57 C9              RET
7011+  1C58             
7012+  1C58             ; ---------------------------------------
7013+  1C58             ; THE 'STORE IN A MEMORY AREA' SUBROUTINE
7014+  1C58             ; ---------------------------------------
7015+  1C58             
7016+  1C58             ; st-mem-xx
7017+  1C58             SUB_1C58:
7018+  1C58 E5              PUSH HL
7019+  1C59 EB              EX DE,HL
7020+  1C5A 2A 1F 40        LD HL,($401F)
7021+  1C5D CD 24 1C        CALL SUB_1C24
7022+  1C60 EB              EX DE,HL
7023+  1C61 CD ED 1B        CALL SUB_1BED
7024+  1C64 EB              EX DE,HL
7025+  1C65 E1              POP HL
7026+  1C66 C9              RET
7027+  1C67             
7028+  1C67             ; -------------------------
7029+  1C67             ; THE 'EXCHANGE' SUBROUTINE
7030+  1C67             ; -------------------------
7031+  1C67             
7032+  1C67             ; exchange
7033+  1C67             SUB_1C67:
7034+  1C67 06 05           LD B,$05
7035+  1C69             
7036+  1C69             ; SWAP-BYTE
7037+  1C69             L_1C69:
7038+  1C69 1A              LD A,(DE)
7039+  1C6A 4E              LD C,(HL)
7040+  1C6B EB              EX DE,HL
7041+  1C6C 12              LD (DE),A
7042+  1C6D 71              LD (HL),C
7043+  1C6E 23              INC HL
7044+  1C6F 13              INC DE
7045+  1C70 10 F7           DJNZ L_1C69
7046+  1C72 EB              EX DE,HL
7047+  1C73 C9              RET
7048+  1C74             
7049+  1C74             ; ---------------------------------
7050+  1C74             ; THE 'SERIES GENERATOR' SUBROUTINE
7051+  1C74             ; ---------------------------------
7052+  1C74             
7053+  1C74             ; series-xx
7054+  1C74             SUB_1C74:
7055+  1C74 47              LD B,A
7056+  1C75 CD 97 1B        CALL SUB_1B97
7057+  1C78 2D              .BYTE    $2D                        ; duplicate       x,x
7058+  1C79 0F              .BYTE    $0F                        ; addition        x+x
7059+  1C7A C0              .BYTE    $C0                        ; st-mem-0        x+x
7060+  1C7B 02              .BYTE    $02                        ; delete          .
7061+  1C7C A0              .BYTE    $A0                        ; stk-zero        0
7062+  1C7D C2              .BYTE    $C2                        ; st-mem-2        0
7063+  1C7E             ;; G-LOOP
7064+  1C7E 2D              .BYTE    $2D                        ; duplicate       v,v.
7065+  1C7F E0              .BYTE    $E0                        ; get-mem-0       v,v,x+2
7066+  1C80 04              .BYTE    $04                        ; multiply        v,v*x+2
7067+  1C81 E2              .BYTE    $E2                        ; get-mem-2       v,v*x+2,v
7068+  1C82 C1              .BYTE    $C1                        ; st-mem-1
7069+  1C83 03              .BYTE    $03                        ; subtract
7070+  1C84 34              .BYTE    $34                        ; end-calc
7071+  1C85             
7072+  1C85 CD F3 1B        CALL SUB_1BF3
7073+  1C88 CD 9B 1B        CALL SUB_1B9B
7074+  1C8B             
7075+  1C8B 0F              .BYTE    $0F                        ; addition
7076+  1C8C 01              .BYTE    $01                        ; exchange
7077+  1C8D C2              .BYTE    $C2                        ; st-mem-2
7078+  1C8E 02              .BYTE    $02                        ; delete
7079+  1C8F 31              .BYTE    $31                        ; dec-jr-nz
7080+  1C90 EE              .BYTE    $EE                        ; back to L1A89, G-LOOP
7081+  1C91 E1              .BYTE    $E1                        ; get-mem-1
7082+  1C92 03              .BYTE    $03                        ; subtract
7083+  1C93 34              .BYTE    $34                        ; end-calc
7084+  1C94 C9              RET
7085+  1C95             
7086+  1C95             ; -----------------------
7087+  1C95             ; Handle unary minus (18)
7088+  1C95             ; -----------------------
7089+  1C95             
7090+  1C95             ; negate
7091+  1C95             SUB_1C95:
7092+  1C95 7E              LD A,(HL)
7093+  1C96 A7              AND A
7094+  1C97 C8              RET Z
7095+  1C98 23              INC HL
7096+  1C99 7E              LD A,(HL)
7097+  1C9A EE 80           XOR $80
7098+  1C9C 77              LD (HL),A
7099+  1C9D 2B              DEC HL
7100+  1C9E C9              RET
7101+  1C9F             
7102+  1C9F             ; -----------------------
7103+  1C9F             ; Absolute magnitude (27)
7104+  1C9F             ; -----------------------
7105+  1C9F             
7106+  1C9F             ; abs
7107+  1C9F             SUB_1C9F:
7108+  1C9F 23              INC HL
7109+  1CA0 CB BE           RES 7,(HL)
7110+  1CA2 2B              DEC HL
7111+  1CA3 C9              RET
7112+  1CA4             
7113+  1CA4             ; -----------
7114+  1CA4             ; Signum (26)
7115+  1CA4             ; -----------
7116+  1CA4             
7117+  1CA4             ; sgn
7118+  1CA4             SUB_1CA4:
7119+  1CA4 23              INC HL
7120+  1CA5 7E              LD A,(HL)
7121+  1CA6 2B              DEC HL
7122+  1CA7 35              DEC (HL)
7123+  1CA8 34              INC (HL)
7124+  1CA9 37              SCF
7125+  1CAA C4 D5 1C        CALL NZ,SUB_1CD5
7126+  1CAD 23              INC HL
7127+  1CAE 07              RLCA
7128+  1CAF CB 1E           RR (HL)
7129+  1CB1 2B              DEC HL
7130+  1CB2 C9              RET
7131+  1CB3             
7132+  1CB3             ; -------------------------
7133+  1CB3             ; Handle PEEK function (28)
7134+  1CB3             ; -------------------------
7135+  1CB3             
7136+  1CB3             ; peek
7137+  1CB3             SUB_1CB3:
7138+  1CB3 CD 88 10        CALL SUB_1088
7139+  1CB6 0A              LD A,(BC)
7140+  1CB7 C3 15 17        JP SUB_1715
7141+  1CBA             
7142+  1CBA             ; ---------------
7143+  1CBA             ; USR number (29)
7144+  1CBA             ; ---------------
7145+  1CBA             
7146+  1CBA             ; usr-no
7147+  1CBA             SUB_1CBA:
7148+  1CBA CD 88 10        CALL SUB_1088
7149+  1CBD 21 18 17        LD HL,SUB_1718
7150+  1CC0 E5              PUSH HL
7151+  1CC1 C5              PUSH BC
7152+  1CC2 C9              RET
7153+  1CC3             
7154+  1CC3             ; -----------------------
7155+  1CC3             ; Greater than zero ($33)
7156+  1CC3             ; -----------------------
7157+  1CC3             
7158+  1CC3             ; greater-0
7159+  1CC3             SUB_1CC3:
7160+  1CC3 7E              LD A,(HL)
7161+  1CC4 A7              AND A
7162+  1CC5 C8              RET Z
7163+  1CC6 3E FF           LD A,$FF
7164+  1CC8 18 07           JR L_1CD1
7165+  1CCA             
7166+  1CCA             
7167+  1CCA             ; -------------------------
7168+  1CCA             ; Handle NOT operator ($2C)
7169+  1CCA             ; -------------------------
7170+  1CCA             
7171+  1CCA             ; not
7172+  1CCA             SUB_1CCA:
7173+  1CCA 7E              LD A,(HL)
7174+  1CCB ED 44           NEG
7175+  1CCD 3F              CCF
7176+  1CCE 18 05           JR SUB_1CD5
7177+  1CD0             
7178+  1CD0             
7179+  1CD0             ; -------------------
7180+  1CD0             ; Less than zero (32)
7181+  1CD0             ; -------------------
7182+  1CD0             
7183+  1CD0             ; less-0
7184+  1CD0             SUB_1CD0:
7185+  1CD0 AF              XOR A
7186+  1CD1             
7187+  1CD1             ; SIGN-TO-C
7188+  1CD1             L_1CD1:
7189+  1CD1 23              INC HL
7190+  1CD2 AE              XOR (HL)
7191+  1CD3 2B              DEC HL
7192+  1CD4 07              RLCA
7193+  1CD5             
7194+  1CD5             ; -----------
7195+  1CD5             ; Zero or one
7196+  1CD5             ; -----------
7197+  1CD5             
7198+  1CD5             ; FP-0/1
7199+  1CD5             SUB_1CD5:
7200+  1CD5 E5              PUSH HL
7201+  1CD6 06 05           LD B,$05
7202+  1CD8             
7203+  1CD8             ; FP-loop
7204+  1CD8             L_1CD8:
7205+  1CD8 36 00           LD (HL),$00
7206+  1CDA 23              INC HL
7207+  1CDB 10 FB           DJNZ L_1CD8
7208+  1CDD E1              POP HL
7209+  1CDE D0              RET NC
7210+  1CDF 36 81           LD (HL),$81
7211+  1CE1 C9              RET
7212+  1CE2             
7213+  1CE2             
7214+  1CE2             ; -----------------------
7215+  1CE2             ; Handle OR operator (07)
7216+  1CE2             ; -----------------------
7217+  1CE2             
7218+  1CE2             ; or
7219+  1CE2             SUB_1CE2:
7220+  1CE2 1A              LD A,(DE)
7221+  1CE3 A7              AND A
7222+  1CE4 C8              RET Z
7223+  1CE5 37              SCF
7224+  1CE6 18 ED           JR SUB_1CD5
7225+  1CE8             
7226+  1CE8             
7227+  1CE8             ; -----------------------------
7228+  1CE8             ; Handle number AND number (08)
7229+  1CE8             ; -----------------------------
7230+  1CE8             
7231+  1CE8             ; no-&-no
7232+  1CE8             SUB_1CE8:
7233+  1CE8 1A              LD A,(DE)
7234+  1CE9 A7              AND A
7235+  1CEA C0              RET NZ
7236+  1CEB 18 E8           JR SUB_1CD5
7237+  1CED             
7238+  1CED             ; -----------------------------
7239+  1CED             ; Handle string AND number (10)
7240+  1CED             ; -----------------------------
7241+  1CED             
7242+  1CED             ; str-&-no
7243+  1CED             SUB_1CED:
7244+  1CED 1A              LD A,(DE)
7245+  1CEE A7              AND A
7246+  1CEF C0              RET NZ
7247+  1CF0 D5              PUSH DE
7248+  1CF1 1B              DEC DE
7249+  1CF2 AF              XOR A
7250+  1CF3 12              LD (DE),A
7251+  1CF4 1B              DEC DE
7252+  1CF5 12              LD (DE),A
7253+  1CF6 D1              POP DE
7254+  1CF7 C9              RET
7255+  1CF8             
7256+  1CF8             ; -------------------------------------
7257+  1CF8             ; Perform comparison ($09-$0E, $11-$16)
7258+  1CF8             ; -------------------------------------
7259+  1CF8             
7260+  1CF8             ; no-l-eql,etc.
7261+  1CF8             SUB_1CF8:
7262+  1CF8 78              LD A,B
7263+  1CF9 D6 08           SUB $08
7264+  1CFB CB 57           BIT 2,A
7265+  1CFD 20 01           JR NZ,L_1D00
7266+  1CFF 3D              DEC A
7267+  1D00             
7268+  1D00             ; EX-OR-NOT
7269+  1D00             L_1D00:
7270+  1D00 0F              RRCA
7271+  1D01 30 08           JR NC,L_1D0B
7272+  1D03 F5              PUSH AF
7273+  1D04 E5              PUSH HL
7274+  1D05 CD 67 1C        CALL SUB_1C67
7275+  1D08 D1              POP DE
7276+  1D09 EB              EX DE,HL
7277+  1D0A F1              POP AF
7278+  1D0B             
7279+  1D0B             ; NU-OR-STR
7280+  1D0B             L_1D0B:
7281+  1D0B CB 57           BIT 2,A
7282+  1D0D 20 07           JR NZ,L_1D16
7283+  1D0F 0F              RRCA
7284+  1D10 F5              PUSH AF
7285+  1D11 CD 43 19        CALL SUB_1943
7286+  1D14 18 33           JR L_1D49
7287+  1D16             
7288+  1D16             ; STRINGS
7289+  1D16             L_1D16:
7290+  1D16 0F              RRCA
7291+  1D17 F5              PUSH AF
7292+  1D18 CD ED 15        CALL SUB_15ED                       ; routine STK-FETCH
7293+  1D1B D5              PUSH DE
7294+  1D1C C5              PUSH BC
7295+  1D1D CD ED 15        CALL SUB_15ED                       ; routine STK-FETCH
7296+  1D20 E1              POP HL
7297+  1D21             
7298+  1D21             ; BYTE-COMP
7299+  1D21             L_1D21:
7300+  1D21 7C              LD A,H
7301+  1D22 B5              OR L
7302+  1D23 E3              EX (SP),HL
7303+  1D24 78              LD A,B
7304+  1D25 20 0B           JR NZ,L_1D32
7305+  1D27 B1              OR C
7306+  1D28             
7307+  1D28             ; SECND-LOW
7308+  1D28             L_1D28:
7309+  1D28 C1              POP BC
7310+  1D29 28 04           JR Z,L_1D2F
7311+  1D2B F1              POP AF
7312+  1D2C 3F              CCF
7313+  1D2D 18 16           JR L_1D45
7314+  1D2F             
7315+  1D2F             ; BOTH-NULL
7316+  1D2F             L_1D2F:
7317+  1D2F F1              POP AF
7318+  1D30 18 13           JR L_1D45
7319+  1D32             
7320+  1D32             ; SEC-PLUS
7321+  1D32             L_1D32:
7322+  1D32 B1              OR C
7323+  1D33 28 0D           JR Z,L_1D42
7324+  1D35 1A              LD A,(DE)
7325+  1D36 96              SUB (HL)
7326+  1D37 38 09           JR C,L_1D42
7327+  1D39 20 ED           JR NZ,L_1D28
7328+  1D3B 0B              DEC BC
7329+  1D3C 13              INC DE
7330+  1D3D 23              INC HL
7331+  1D3E E3              EX (SP),HL
7332+  1D3F 2B              DEC HL
7333+  1D40 18 DF           JR L_1D21
7334+  1D42             
7335+  1D42             ; FRST-LESS
7336+  1D42             L_1D42:
7337+  1D42 C1              POP BC
7338+  1D43 F1              POP AF
7339+  1D44 A7              AND A
7340+  1D45             
7341+  1D45             ; STR-TEST
7342+  1D45             L_1D45:
7343+  1D45 F5              PUSH AF
7344+  1D46 EF              RST 28H                             ; FP-CALC
7345+  1D47 A0              .BYTE    $A0                        ; stk-zero      an initial false value.
7346+  1D48 34              .BYTE    $34                        ; end-calc
7347+  1D49             
7348+  1D49             ; END-TESTS
7349+  1D49             L_1D49:
7350+  1D49 F1              POP AF
7351+  1D4A F5              PUSH AF
7352+  1D4B DC CA 1C        CALL C,SUB_1CCA
7353+  1D4E CD C3 1C        CALL SUB_1CC3
7354+  1D51 F1              POP AF
7355+  1D52 0F              RRCA
7356+  1D53 D4 CA 1C        CALL NC,SUB_1CCA
7357+  1D56 C9              RET
7358+  1D57             
7359+  1D57             ; -------------------------
7360+  1D57             ; String concatenation ($17)
7361+  1D57             ; -------------------------
7362+  1D57             
7363+  1D57             ; strs-add
7364+  1D57             SUB_1D57:
7365+  1D57 CD ED 15        CALL SUB_15ED                       ; routine STK-FETCH
7366+  1D5A D5              PUSH DE
7367+  1D5B C5              PUSH BC
7368+  1D5C CD ED 15        CALL SUB_15ED                       ; routine STK-FETCH
7369+  1D5F E1              POP HL
7370+  1D60 E5              PUSH HL
7371+  1D61 D5              PUSH DE
7372+  1D62 C5              PUSH BC
7373+  1D63 09              ADD HL,BC
7374+  1D64 44              LD B,H
7375+  1D65 4D              LD C,L
7376+  1D66 F7              RST 30H
7377+  1D67 CD B8 14        CALL SUB_14B8
7378+  1D6A C1              POP BC
7379+  1D6B E1              POP HL
7380+  1D6C 78              LD A,B
7381+  1D6D B1              OR C
7382+  1D6E 28 02           JR Z,L_1D72
7383+  1D70 ED B0           LDIR
7384+  1D72             
7385+  1D72             ; OTHER-STR
7386+  1D72             L_1D72:
7387+  1D72 C1              POP BC
7388+  1D73 E1              POP HL
7389+  1D74 78              LD A,B
7390+  1D75 B1              OR C
7391+  1D76 28 02           JR Z,SUB_1D7A
7392+  1D78 ED B0           LDIR
7393+  1D7A             
7394+  1D7A             ; --------------------
7395+  1D7A             ; Check stack pointers
7396+  1D7A             ; --------------------
7397+  1D7A             
7398+  1D7A             ; STK-PNTRS
7399+  1D7A             SUB_1D7A:
7400+  1D7A 2A 1C 40        LD HL,($401C)
7401+  1D7D 11 FB FF        LD DE,$FFFB
7402+  1D80 E5              PUSH HL
7403+  1D81 19              ADD HL,DE
7404+  1D82 D1              POP DE
7405+  1D83 C9              RET
7406+  1D84             
7407+  1D84             ; ----------------
7408+  1D84             ; Handle CHR$ (2B)
7409+  1D84             ; ----------------
7410+  1D84             
7411+  1D84             ; chrs
7412+  1D84             SUB_1D84:
7413+  1D84 CD 83 10        CALL SUB_1083                       ; modified from ZX81 to inline REPORT-Bd
7414+  1D87 F5              PUSH AF
7415+  1D88 01 01 00        LD BC,$0001
7416+  1D8B F7              RST 30H
7417+  1D8C F1              POP AF
7418+  1D8D 12              LD (DE),A
7419+  1D8E CD B8 14        CALL SUB_14B8
7420+  1D91 EB              EX DE,HL
7421+  1D92 C9              RET
7422+  1D93             
7423+  1D93             ; ----------------
7424+  1D93             ; Handle VAL ($1A)
7425+  1D93             ; ----------------
7426+  1D93             
7427+  1D93             ; val
7428+  1D93             SUB_1D93:
7429+  1D93 2A 16 40        LD HL,($4016)                       ; CH.ADD - Address of next character to interpret
7430+  1D96 E5              PUSH HL
7431+  1D97 CD ED 15        CALL SUB_15ED                       ; routine STK-FETCH
7432+  1D9A D5              PUSH DE
7433+  1D9B 03              INC BC
7434+  1D9C F7              RST 30H
7435+  1D9D E1              POP HL
7436+  1D9E ED 53 16 40     LD ($4016),DE                       ; CH.ADD
7437+  1DA2 D5              PUSH DE
7438+  1DA3 ED B0           LDIR
7439+  1DA5 EB              EX DE,HL
7440+  1DA6 2B              DEC HL
7441+  1DA7 36 76           LD (HL),$76
7442+  1DA9 FD CB 01 BE     RES 7,(IY+$01)
7443+  1DAD CD 0F 0F        CALL SUB_0F0F
7444+  1DB0 CD 9F 0E        CALL L_0E9F
7445+  1DB3 E1              POP HL
7446+  1DB4 22 16 40        LD ($4016),HL                       ; CH.ADD
7447+  1DB7 FD CB 01 FE     SET 7,(IY+$01)
7448+  1DBB CD 4A 11        CALL SUB_114A                       ; routine SCANNING
7449+  1DBE E1              POP HL
7450+  1DBF 22 16 40        LD ($4016),HL                       ; CH.ADD
7451+  1DC2 18 B6           JR SUB_1D7A
7452+  1DC4             
7453+  1DC4             ; ----------------
7454+  1DC4             ; Handle STR$ (2A)
7455+  1DC4             ; ----------------
7456+  1DC4             
7457+  1DC4             ; str$
7458+  1DC4             SUB_1DC4:
7459+  1DC4 01 01 00        LD BC,$0001
7460+  1DC7 F7              RST 30H
7461+  1DC8 36 76           LD (HL),$76
7462+  1DCA 2A 39 40        LD HL,($4039)
7463+  1DCD E5              PUSH HL
7464+  1DCE 2E FF           LD L,$FF
7465+  1DD0 22 39 40        LD ($4039),HL
7466+  1DD3 2A 0E 40        LD HL,($400E)
7467+  1DD6 E5              PUSH HL
7468+  1DD7 ED 53 0E 40     LD ($400E),DE
7469+  1DDB D5              PUSH DE
7470+  1DDC CD D3 17        CALL L_17D3
7471+  1DDF D1              POP DE
7472+  1DE0 2A 0E 40        LD HL,($400E)
7473+  1DE3 A7              AND A
7474+  1DE4 ED 52           SBC HL,DE
7475+  1DE6 44              LD B,H
7476+  1DE7 4D              LD C,L
7477+  1DE8 E1              POP HL
7478+  1DE9 22 0E 40        LD ($400E),HL
7479+  1DEC E1              POP HL
7480+  1DED 22 39 40        LD ($4039),HL
7481+  1DF0 CD B8 14        CALL SUB_14B8
7482+  1DF3 EB              EX DE,HL
7483+  1DF4 C9              RET
7484+  1DF5             
7485+  1DF5             ; ------------------------
7486+  1DF5             ; THE 'CODE' FUNCTION (19)
7487+  1DF5             ; ------------------------
7488+  1DF5             
7489+  1DF5             ; code
7490+  1DF5             SUB_1DF5:
7491+  1DF5 CD ED 15        CALL SUB_15ED                       ; routine STK-FETCH
7492+  1DF8 78              LD A,B
7493+  1DF9 B1              OR C
7494+  1DFA 28 01           JR Z,L_1DFD
7495+  1DFC 1A              LD A,(DE)
7496+  1DFD             
7497+  1DFD             ; STK-CODE
7498+  1DFD             L_1DFD:
7499+  1DFD C3 15 17        JP SUB_1715
7500+  1E00             
7501+  1E00             ; -------------------------
7502+  1E00             ; THE 'LEN' SUBROUTINE (1B)
7503+  1E00             ; -------------------------
7504+  1E00             
7505+  1E00             ; len
7506+  1E00             SUB_1E00:
7507+  1E00 CD ED 15        CALL SUB_15ED                       ; routine STK-FETCH
7508+  1E03 C3 18 17        JP SUB_1718
7509+  1E06             
7510+  1E06             ; ------------------------------------------
7511+  1E06             ; THE 'DECREASE THE COUNTER' SUBROUTINE (31)
7512+  1E06             ; ------------------------------------------
7513+  1E06             
7514+  1E06             ; dec-jr-nz
7515+  1E06             SUB_1E06:
7516+  1E06 D9              EXX
7517+  1E07 E5              PUSH HL
7518+  1E08 21 1E 40        LD HL,$401E
7519+  1E0B 35              DEC (HL)
7520+  1E0C E1              POP HL
7521+  1E0D 20 04           JR NZ,L_1E13
7522+  1E0F 23              INC HL
7523+  1E10 D9              EXX
7524+  1E11 C9              RET
7525+  1E12             
7526+  1E12             ; --------------------------
7527+  1E12             ; THE 'JUMP' SUBROUTINE (2F)
7528+  1E12             ; --------------------------
7529+  1E12             
7530+  1E12             ; jump
7531+  1E12             SUB_1E12:
7532+  1E12             L_1E12:
7533+  1E12 D9              EXX
7534+  1E13             
7535+  1E13             ; JUMP-2
7536+  1E13             L_1E13:
7537+  1E13 5E              LD E,(HL)
7538+  1E14 AF              XOR A
7539+  1E15 CB 7B           BIT 7,E
7540+  1E17 28 01           JR Z,L_1E1A
7541+  1E19 2F              CPL
7542+  1E1A             
7543+  1E1A             ; JUMP-3
7544+  1E1A             L_1E1A:
7545+  1E1A 57              LD D,A
7546+  1E1B 19              ADD HL,DE
7547+  1E1C D9              EXX
7548+  1E1D C9              RET
7549+  1E1E             
7550+  1E1E             ; ----------------------------------
7551+  1E1E             ; THE 'JUMP ON TRUE' SUBROUTINE (00)
7552+  1E1E             ; ----------------------------------
7553+  1E1E             
7554+  1E1E             ; jump-true
7555+  1E1E             SUB_1E1E:
7556+  1E1E 1A              LD A,(DE)
7557+  1E1F A7              AND A
7558+  1E20 20 F0           JR NZ,L_1E12
7559+  1E22 D9              EXX
7560+  1E23 23              INC HL
7561+  1E24 D9              EXX
7562+  1E25 C9              RET
7563+  1E26             
7564+  1E26             ; -----------------------------
7565+  1E26             ; THE 'MODULUS' SUBROUTINE (2E)
7566+  1E26             ; -----------------------------
7567+  1E26             
7568+  1E26             ; n-mod-m
7569+  1E26             SUB_1E26:
7570+  1E26 EF              RST 28H                             ; FP_CALC
7571+  1E27 C0              .BYTE    $C0                        ; st-mem-0          17, 3.
7572+  1E28 02              .BYTE    $02                        ; delete            17.
7573+  1E29 2D              .BYTE    $2D                        ; duplicate         17, 17.
7574+  1E2A E0              .BYTE    $E0                        ; get-mem-0         17, 17, 3.
7575+  1E2B 05              .BYTE    $05                        ; division          17, 17/3.
7576+  1E2C 24              .BYTE    $24                        ; int               17, 5.
7577+  1E2D E0              .BYTE    $E0                        ; get-mem-0         17, 5, 3.
7578+  1E2E 01              .BYTE    $01                        ; exchange          17, 3, 5.
7579+  1E2F C0              .BYTE    $C0                        ; st-mem-0          17, 3, 5.
7580+  1E30 04              .BYTE    $04                        ; multiply          17, 15.
7581+  1E31 03              .BYTE    $03                        ; subtract          2.
7582+  1E32 E0              .BYTE    $E0                        ; get-mem-0         2, 5.
7583+  1E33 34              .BYTE    $34                        ; end-calc          2, 5.
7584+  1E34 C9              RET
7585+  1E35             
7586+  1E35             ; ---------------------------
7587+  1E35             ; THE 'INTEGER' FUNCTION (24)
7588+  1E35             ; ---------------------------
7589+  1E35             
7590+  1E35             ; int
7591+  1E35             SUB_1E35:
7592+  1E35 EF              RST 28H                             ; FP-CALC              x.    (= 3.4 or -3.4).
7593+  1E36 2D              .BYTE    $2D                        ; duplicate             x, x.
7594+  1E37 32              .BYTE    $32                        ; less-0                x, (1/0)
7595+  1E38 00              .BYTE    $00                        ; jump-true             x, (1/0)
7596+  1E39 04              .BYTE    $04                        ; to L1C46, X-NEG
7597+  1E3A             
7598+  1E3A 36              .BYTE    $36                        ; truncate              trunc 3.4 = 3.
7599+  1E3B 34              .BYTE    $34                        ; end-calc              3.
7600+  1E3C C9              RET
7601+  1E3D             
7602+  1E3D             ; X-NEG
7603+  1E3D 2D              .BYTE    $2D                        ; duplicate             -3.4, -3.4.
7604+  1E3E 36              .BYTE    $36                        ; truncate              -3.4, -3.
7605+  1E3F C0              .BYTE    $C0                        ; st-mem-0              -3.4, -3.
7606+  1E40 03              .BYTE    $03                        ; subtract              -.4
7607+  1E41 E0              .BYTE    $E0                        ; get-mem-0             -.4, -3.
7608+  1E42 01              .BYTE    $01                        ; exchange              -3, -.4.
7609+  1E43 2C              .BYTE    $2C                        ; not                   -3, (0).
7610+  1E44 00              .BYTE    $00                        ; jump-true             -3.
7611+  1E45 03              .BYTE    $03                        ; to L1C59, EXIT        -3.
7612+  1E46             
7613+  1E46 A1              .BYTE    $A1                        ; stk-one               -3, 1.
7614+  1E47 03              .BYTE    $03                        ; subtract              -4.
7615+  1E48             
7616+  1E48             ;; EXIT
7617+  1E48 34              .BYTE    $34                        ; end-calc              -4.
7618+  1E49 C9              RET
7619+  1E4A             
7620+  1E4A             ; ----------------
7621+  1E4A             ; Exponential (23)
7622+  1E4A             ; ----------------
7623+  1E4A             ; EXP
7624+  1E4A             SUB_1E4A:
7625+  1E4A             L_1E4A:
7626+  1E4A EF              RST 28H
7627+  1E4B 30              .BYTE    $30                        ; stk-data
7628+  1E4C F1              .BYTE    $F1                        ; Exponent: $81, Bytes: 4
7629+  1E4D 38 AA 3B 29     .BYTE    $38,$AA,$3B,$29
7630+  1E51 04              .BYTE    $04                        ; multiply
7631+  1E52 2D              .BYTE    $2D                        ; duplicate
7632+  1E53 24              .BYTE    $24                        ; int
7633+  1E54 C3              .BYTE    $C3                        ; st-mem-3
7634+  1E55 03              .BYTE    $03                        ; subtract
7635+  1E56 2D              .BYTE    $2D                        ; duplicate
7636+  1E57 0F              .BYTE    $0F                        ; addition
7637+  1E58 A1              .BYTE    $A1                        ; stk-one
7638+  1E59 03              .BYTE    $03                        ; subtract
7639+  1E5A 88              .BYTE    $88                        ; series-08
7640+  1E5B 13              .BYTE    $13                        ; Exponent: $63, Bytes: 1
7641+  1E5C 36              .BYTE    $36                        ; (+00,+00,+00)
7642+  1E5D 58              .BYTE    $58                        ; Exponent: $68, Bytes: 2
7643+  1E5E 65 66           .BYTE    $65,$66                    ; (+00,+00)
7644+  1E60 9D              .BYTE    $9D                        ; Exponent: $6D, Bytes: 3
7645+  1E61 78 65 40        .BYTE    $78,$65,$40                ; (+00)
7646+  1E64 A2              .BYTE    $A2                        ; Exponent: $72, Bytes: 3
7647+  1E65 60 32 C9        .BYTE    $60,$32,$C9                ; (+00)
7648+  1E68 E7              .BYTE    $E7                        ; Exponent: $77, Bytes: 4
7649+  1E69 21 F7 AF 24     .BYTE    $21,$F7,$AF,$24
7650+  1E6D EB              .BYTE    $EB                        ; Exponent: $7B, Bytes: 4
7651+  1E6E 2F B0 B0 14     .BYTE    $2F,$B0,$B0,$14
7652+  1E72 EE              .BYTE    $EE                        ; Exponent: $7E, Bytes: 4
7653+  1E73 7E BB 94 58     .BYTE    $7E,$BB,$94,$58
7654+  1E77 F1              .BYTE    $F1                        ; Exponent: $81, Bytes: 4
7655+  1E78 3A 7E F8 CF     .BYTE    $3A,$7E,$F8,$CF
7656+  1E7C E3              .BYTE    $E3                        ; get-mem-3
7657+  1E7D 34              .BYTE    $34                        ; end-calc
7658+  1E7E             
7659+  1E7E CD C5 17        CALL SUB_17C5
7660+  1E81 20 07           JR NZ,L_1E8A
7661+  1E83 38 03           JR C,L_1E88
7662+  1E85 86              ADD A,(HL)
7663+  1E86 30 09           JR NC,L_1E91
7664+  1E88             
7665+  1E88             ; REPORT-6b
7666+  1E88             L_1E88:
7667+  1E88 CF              RST 08H                             ; ERROR-1
7668+  1E89 05              .BYTE    $05                        ; OV arithmetic OVerflow
7669+  1E8A             
7670+  1E8A             ; N-NEGTV
7671+  1E8A             L_1E8A:
7672+  1E8A 38 07           JR C,L_1E93
7673+  1E8C 96              SUB (HL)
7674+  1E8D 30 04           JR NC,L_1E93
7675+  1E8F ED 44           NEG
7676+  1E91             
7677+  1E91             ; RESULT-OK
7678+  1E91             L_1E91:
7679+  1E91 77              LD (HL),A
7680+  1E92 C9              RET
7681+  1E93             
7682+  1E93             ; RSLT-ZERO
7683+  1E93             L_1E93:
7684+  1E93 EF              RST 28H                             ; FP-CALC
7685+  1E94 02              .BYTE    $02                        ; delete
7686+  1E95 A0              .BYTE    $A0                        ; stk-zero
7687+  1E96 34              .BYTE    $34                        ; end-calc
7688+  1E97 C9              RET
7689+  1E98             
7690+  1E98             
7691+  1E98             ; -------------------------------------
7692+  1E98             ; THE 'NATURAL LOGARITHM' FUNCTION (22)
7693+  1E98             ; -------------------------------------
7694+  1E98             
7695+  1E98             ; ln
7696+  1E98             SUB_1E98:
7697+  1E98 EF              RST 28H                             ; FP-CALC
7698+  1E99 2D              .BYTE    $2D                        ; duplicate
7699+  1E9A 33              .BYTE    $33                        ; greater-0
7700+  1E9B 00              .BYTE    $00                        ; jump-true
7701+  1E9C 04              .BYTE    $04                        ; to L1CB1, VALID
7702+  1E9D 34              .BYTE    $34                        ; end-calc
7703+  1E9E             
7704+  1E9E             ; REPORT-Ab
7705+  1E9E CF              RST 08H                             ; ERROR-1
7706+  1E9F 09              .BYTE    $09                        ; AG invalid ArGument
7707+  1EA0             
7708+  1EA0             ; VALID
7709+  1EA0 A0              .BYTE    $A0                        ; stk-zero              Note. not
7710+  1EA1 02              .BYTE    $02                        ; delete                necessary.
7711+  1EA2 34              .BYTE    $34                        ; end-calc
7712+  1EA3 7E              LD A,(HL)
7713+  1EA4 36 80           LD (HL),$80
7714+  1EA6 CD 15 17        CALL SUB_1715
7715+  1EA9 EF              RST 28H                             ; FP-CALC
7716+  1EAA 30              .BYTE    $30                        ; stk-data
7717+  1EAB 38              .BYTE    $38                        ; Exponent: $88, Bytes: 1
7718+  1EAC 00              .BYTE    $00                        ; (+00,+00,+00)
7719+  1EAD 03              .BYTE    $03                        ; subtract
7720+  1EAE 01              .BYTE    $01                        ; exchange
7721+  1EAF 2D              .BYTE    $2D                        ; duplicate
7722+  1EB0 30              .BYTE    $30                        ; stk-data
7723+  1EB1 F0              .BYTE    $F0                        ; Exponent: $80, Bytes: 4
7724+  1EB2 4C CC CC CD     .BYTE    $4C,$CC,$CC,$CD
7725+  1EB6 03              .BYTE    $03                        ; subtract
7726+  1EB7 33              .BYTE    $33                        ; greater-0
7727+  1EB8 00              .BYTE    $00                        ; jump-true
7728+  1EB9 08              .BYTE    $08                        ; to L1CD2, GRE.8
7729+  1EBA             
7730+  1EBA 01              .BYTE    $01                        ; exchange
7731+  1EBB A1              .BYTE    $A1                        ; stk-one
7732+  1EBC 03              .BYTE    $03                        ; subtract
7733+  1EBD 01              .BYTE    $01                        ; exchange
7734+  1EBE 34              .BYTE    $34                        ; end-calc
7735+  1EBF 34              INC (HL)
7736+  1EC0             
7737+  1EC0 EF              RST 28H                             ; FP-CALC
7738+  1EC1             
7739+  1EC1             ;; GRE.8
7740+  1EC1 01              .BYTE    $01                        ; exchange
7741+  1EC2 30              .BYTE    $30                        ; stk-data
7742+  1EC3 F0              .BYTE    $F0                        ; Exponent: $80, Bytes: 4
7743+  1EC4 31 72 17 F8     .BYTE    $31,$72,$17,$F8
7744+  1EC8 04              .BYTE    $04                        ; multiply
7745+  1EC9 01              .BYTE    $01                        ; exchange
7746+  1ECA A2              .BYTE    $A2                        ; stk-half
7747+  1ECB 03              .BYTE    $03                        ; subtract
7748+  1ECC A2              .BYTE    $A2                        ; stk-half
7749+  1ECD 03              .BYTE    $03                        ; subtract
7750+  1ECE 2D              .BYTE    $2D                        ; duplicate
7751+  1ECF 30              .BYTE    $30                        ; stk-data
7752+  1ED0 32              .BYTE    $32                        ; Exponent: $82, Bytes: 1
7753+  1ED1 20              .BYTE    $20                        ; (+00,+00,+00)
7754+  1ED2 04              .BYTE    $04                        ; multiply
7755+  1ED3 A2              .BYTE    $A2                        ; stk-half
7756+  1ED4 03              .BYTE    $03                        ; subtract
7757+  1ED5 8C              .BYTE    $8C                        ; series-0C
7758+  1ED6 11              .BYTE    $11                        ; Exponent: $61, Bytes: 1
7759+  1ED7 AC              .BYTE    $AC                        ; (+00,+00,+00)
7760+  1ED8 14              .BYTE    $14                        ; Exponent: $64, Bytes: 1
7761+  1ED9 09              .BYTE    $09                        ; (+00,+00,+00)
7762+  1EDA 56              .BYTE    $56                        ; Exponent: $66, Bytes: 2
7763+  1EDB DA A5           .BYTE    $DA,$A5                    ; (+00,+00)
7764+  1EDD 59              .BYTE    $59                        ; Exponent: $69, Bytes: 2
7765+  1EDE 30 C5           .BYTE    $30,$C5                    ; (+00,+00)
7766+  1EE0 5C              .BYTE    $5C                        ; Exponent: $6C, Bytes: 2
7767+  1EE1 90 AA           .BYTE    $90,$AA                    ; (+00,+00)
7768+  1EE3 9E              .BYTE    $9E                        ; Exponent: $6E, Bytes: 3
7769+  1EE4 70 6F 61        .BYTE    $70,$6F,$61                ; (+00)
7770+  1EE7 A1              .BYTE    $A1                        ; Exponent: $71, Bytes: 3
7771+  1EE8 CB DA 96        .BYTE    $CB,$DA,$96                ; (+00)
7772+  1EEB A4              .BYTE    $A4                        ; Exponent: $74, Bytes: 3
7773+  1EEC 31 9F B4        .BYTE    $31,$9F,$B4                ; (+00)
7774+  1EEF E7              .BYTE    $E7                        ; Exponent: $77, Bytes: 4
7775+  1EF0 A0 FE 5C FC     .BYTE    $A0,$FE,$5C,$FC
7776+  1EF4 EA              .BYTE    $EA                        ; Exponent: $7A, Bytes: 4
7777+  1EF5 1B 43 CA 36     .BYTE    $1B,$43,$CA,$36
7778+  1EF9 ED              .BYTE    $ED                        ; Exponent: $7D, Bytes: 4
7779+  1EFA A7 9C 7E 5E     .BYTE    $A7,$9C,$7E,$5E
7780+  1EFE F0              .BYTE    $F0                        ; Exponent: $80, Bytes: 4
7781+  1EFF 6E 23 80 93     .BYTE    $6E,$23,$80,$93
7782+  1F03 04              .BYTE    $04                        ; multiply
7783+  1F04 0F              .BYTE    $0F                        ; addition
7784+  1F05 34              .BYTE    $34                        ; end-calc
7785+  1F06 C9              RET
7786+  1F07             
7787+  1F07             
7788+  1F07             ; -----------------------------
7789+  1F07             ; THE 'TRIGONOMETRIC' FUNCTIONS
7790+  1F07             ; -----------------------------
7791+  1F07             
7792+  1F07             ;----- --------------------------------
7793+  1F07             ; THE 'REDUCE ARGUMENT' SUBROUTINE (35)
7794+  1F07             ; -------------------------------------
7795+  1F07             
7796+  1F07             ; get-argt
7797+  1F07             SUB_1F07:
7798+  1F07 EF              RST 28H                             ; FP-CALC         X.
7799+  1F08 30              .BYTE    $30                        ; stk-data
7800+  1F09 EE              .BYTE    $EE                        ; Exponent: $7E,
7801+  1F0A                                                     ; Bytes: 4
7802+  1F0A 22 F9 83 6E     .BYTE    $22,$F9,$83,$6E            ;  X, 1/(2*PI)
7803+  1F0E 04              .BYTE    $04                        ; multiply         X/(2*PI) = fraction
7804+  1F0F             
7805+  1F0F 2D              .BYTE    $2D                        ; duplicate
7806+  1F10 A2              .BYTE    $A2                        ; stk-half
7807+  1F11 0F              .BYTE    $0F                        ; addition
7808+  1F12 24              .BYTE    $24                        ; int
7809+  1F13             
7810+  1F13 03              .BYTE    $03                        ; subtract         now range -.5 to .5
7811+  1F14             
7812+  1F14 2D              .BYTE    $2D                        ; duplicate
7813+  1F15 0F              .BYTE    $0F                        ; addition         now range -1 to 1.
7814+  1F16 2D              .BYTE    $2D                        ; duplicate
7815+  1F17 0F              .BYTE    $0F                        ; addition         now range -2 to 2.
7816+  1F18             
7817+  1F18 2D              .BYTE    $2D                        ; duplicate        Y, Y.
7818+  1F19 27              .BYTE    $27                        ; abs              Y, abs(Y).    range 1 to 2
7819+  1F1A A1              .BYTE    $A1                        ; stk-one          Y, abs(Y), 1.
7820+  1F1B 03              .BYTE    $03                        ; subtract         Y, abs(Y)-1.  range 0 to 1
7821+  1F1C 2D              .BYTE    $2D                        ; duplicate        Y, Z, Z.
7822+  1F1D 33              .BYTE    $33                        ; greater-0        Y, Z, (1/0).
7823+  1F1E             
7824+  1F1E C0              .BYTE    $C0                        ; st-mem-0         store as possible sign for cosine function.
7825+  1F1F             
7826+  1F1F 00              .BYTE    $00                        ; jump-true
7827+  1F20 04              .BYTE    $04                        ; to L1D35, ZPLUS  with quadrants II and III
7828+  1F21             
7829+  1F21 02              .BYTE    $02                        ; delete          Y    delete test value.
7830+  1F22 34              .BYTE    $34                        ; end-calc        Y.
7831+  1F23             
7832+  1F23 C9              RET
7833+  1F24             
7834+  1F24             ; ZPLUS
7835+  1F24 A1              .BYTE    $A1                        ; stk-one         Y, Z, 1
7836+  1F25 03              .BYTE    $03                        ; subtract        Y, Z-1.       Q3 = 0 to -1
7837+  1F26 01              .BYTE    $01                        ; exchange        Z-1, Y.
7838+  1F27 32              .BYTE    $32                        ; less-0          Z-1, (1/0).
7839+  1F28 00              .BYTE    $00                        ; jump-true       Z-1.
7840+  1F29 02              .BYTE    $02                        ; to L1D3C, YNEG
7841+  1F2A 18              .BYTE    $18                        ; negate          range +1 to 0
7842+  1F2B             ;; YNEG
7843+  1F2B 34              .BYTE    $34                        ; end-calc        quadrants II and III correct.
7844+  1F2C C9              RET
7845+  1F2D             
7846+  1F2D             
7847+  1F2D             ; --------------------------
7848+  1F2D             ; THE 'COSINE' FUNCTION (1D)
7849+  1F2D             ; --------------------------
7850+  1F2D             
7851+  1F2D             ; cos
7852+  1F2D             SUB_1F2D:
7853+  1F2D EF              RST 28H                             ; FP-CALC              angle in radians.
7854+  1F2E 35              .BYTE    $35                        ; get-argt              X       reduce -1 to +1
7855+  1F2F 27              .BYTE    $27                        ; abs                   ABS X   0 to 1
7856+  1F30 A1              .BYTE    $A1                        ; stk-one               ABS X, 1.
7857+  1F31 03              .BYTE    $03                        ; subtract              now opposite angle
7858+  1F32                                                     ;                       though negative sign.
7859+  1F32 E0              .BYTE    $E0                        ; get-mem-0             fetch sign indicator.
7860+  1F33 00              .BYTE    $00                        ; jump-true
7861+  1F34 06              .BYTE    $06                        ; fwd to L1D4B, C-ENT
7862+  1F35                                                     ; forward to common code if in QII or QIII
7863+  1F35 18              .BYTE    $18                        ; negate                else make positive.
7864+  1F36 2F              .BYTE    $2F                        ; jump
7865+  1F37 03              .BYTE    $03                        ; fwd to L1D4B, C-ENT
7866+  1F38                                                     ; with quadrants QI and QIV
7867+  1F38             
7868+  1F38             ; ------------------------
7869+  1F38             ; THE 'SINE' FUNCTION (1C)
7870+  1F38             ; ------------------------
7871+  1F38             
7872+  1F38             ; sin
7873+  1F38             SUB_1F38:
7874+  1F38 EF              RST 28H                             ; FP-CALC      angle in radians
7875+  1F39 35              .BYTE    $35                        ; get-argt      reduce - sign now correct.
7876+  1F3A             
7877+  1F3A             ;; C-ENT
7878+  1F3A 2D              .BYTE    $2D                        ; duplicate
7879+  1F3B 2D              .BYTE    $2D                        ; duplicate
7880+  1F3C 04              .BYTE    $04                        ; multiply
7881+  1F3D 2D              .BYTE    $2D                        ; duplicate
7882+  1F3E 0F              .BYTE    $0F                        ; addition
7883+  1F3F A1              .BYTE    $A1                        ; stk-one
7884+  1F40 03              .BYTE    $03                        ; subtract
7885+  1F41             
7886+  1F41 86              .BYTE    $86                        ; series-06
7887+  1F42 14              .BYTE    $14                        ; Exponent: $64, Bytes: 1
7888+  1F43 E6              .BYTE    $E6                        ; (+00,+00,+00)
7889+  1F44 5C              .BYTE    $5C                        ; Exponent: $6C, Bytes: 2
7890+  1F45 1F 0B           .BYTE    $1F,$0B                    ; (+00,+00)
7891+  1F47 A3              .BYTE    $A3                        ; Exponent: $73, Bytes: 3
7892+  1F48 8F 38 EE        .BYTE    $8F,$38,$EE                ; (+00)
7893+  1F4B E9              .BYTE    $E9                        ; Exponent: $79, Bytes: 4
7894+  1F4C 15 63 BB 23     .BYTE    $15,$63,$BB,$23
7895+  1F50 EE              .BYTE    $EE                        ; Exponent: $7E, Bytes: 4
7896+  1F51 92 0D CD ED     .BYTE    $92,$0D,$CD,$ED
7897+  1F55 F1              .BYTE    $F1                        ; Exponent: $81, Bytes: 4
7898+  1F56 23 5D 1B EA     .BYTE    $23,$5D,$1B,$EA
7899+  1F5A             
7900+  1F5A 04              .BYTE    $04                        ; multiply
7901+  1F5B 34              .BYTE    $34                        ; end-calc
7902+  1F5C C9              RET
7903+  1F5D             
7904+  1F5D             ; ---------------------------
7905+  1F5D             ; THE 'TANGENT' FUNCTION (1E)
7906+  1F5D             ; ---------------------------
7907+  1F5D             
7908+  1F5D             ;; tan
7909+  1F5D             SUB_1F5D:
7910+  1F5D EF              RST 28H                             ; FP-CALC          x.
7911+  1F5E 2D              .BYTE    $2D                        ; duplicate         x, x.
7912+  1F5F 1C              .BYTE    $1C                        ; sin               x, sin x.
7913+  1F60 01              .BYTE    $01                        ; exchange          sin x, x.
7914+  1F61 1D              .BYTE    $1D                        ; cos               sin x, cos x.
7915+  1F62 05              .BYTE    $05                        ; division          sin x/cos x (= tan x).
7916+  1F63 34              .BYTE    $34                        ; end-calc          tan x.
7917+  1F64 C9              RET
7918+  1F65             
7919+  1F65             ; --------------------------
7920+  1F65             ; THE 'ARCTAN' FUNCTION (21)
7921+  1F65             ; --------------------------
7922+  1F65             
7923+  1F65             ; atn
7924+  1F65             SUB_1F65:
7925+  1F65 7E              LD A,(HL)
7926+  1F66 FE 81           CP $81
7927+  1F68 38 0E           JR C,L_1F78
7928+  1F6A EF              RST 28H                             ; FP-CALC      X.
7929+  1F6B A1              .BYTE    $A1                        ; stk-one
7930+  1F6C 18              .BYTE    $18                        ; negate
7931+  1F6D 01              .BYTE    $01                        ; exchange
7932+  1F6E 05              .BYTE    $05                        ; division
7933+  1F6F 2D              .BYTE    $2D                        ; duplicate
7934+  1F70 32              .BYTE    $32                        ; less-0
7935+  1F71 A3              .BYTE    $A3                        ; stk-pi/2
7936+  1F72 01              .BYTE    $01                        ; exchange
7937+  1F73 00              .BYTE    $00                        ; jump-true
7938+  1F74 06              .BYTE    $06                        ; to L1D8B, CASES
7939+  1F75             
7940+  1F75 18              .BYTE    $18                        ; negate
7941+  1F76 2F              .BYTE    $2F                        ; jump
7942+  1F77 03              .BYTE    $03                        ; to L1D8B, CASES
7943+  1F78             
7944+  1F78             L_1F78:
7945+  1F78             ; SMALL
7946+  1F78 EF              RST 28H                             ; FP-CALC
7947+  1F79 A0              .BYTE    $A0                        ; stk-zero
7948+  1F7A             
7949+  1F7A             ;; CASES
7950+  1F7A 01              .BYTE    $01                        ; exchange
7951+  1F7B 2D              .BYTE    $2D                        ; duplicate
7952+  1F7C 2D              .BYTE    $2D                        ; duplicate
7953+  1F7D 04              .BYTE    $04                        ; multiply
7954+  1F7E 2D              .BYTE    $2D                        ; duplicate
7955+  1F7F 0F              .BYTE    $0F                        ; addition
7956+  1F80 A1              .BYTE    $A1                        ; stk-one
7957+  1F81 03              .BYTE    $03                        ; subtract
7958+  1F82             
7959+  1F82 8C              .BYTE    $8C                        ; series-0C
7960+  1F83 10              .BYTE    $10                        ; Exponent: $60, Bytes: 1
7961+  1F84 B2              .BYTE    $B2                        ; (+00,+00,+00)
7962+  1F85 13              .BYTE    $13                        ; Exponent: $63, Bytes: 1
7963+  1F86 0E              .BYTE    $0E                        ; (+00,+00,+00)
7964+  1F87 55              .BYTE    $55                        ; Exponent: $65, Bytes: 2
7965+  1F88 E4 8D           .BYTE    $E4,$8D                    ; (+00,+00)
7966+  1F8A 58              .BYTE    $58                        ; Exponent: $68, Bytes: 2
7967+  1F8B 39 BC           .BYTE    $39,$BC                    ; (+00,+00)
7968+  1F8D 5B              .BYTE    $5B                        ; Exponent: $6B, Bytes: 2
7969+  1F8E 98 FD           .BYTE    $98,$FD                    ; (+00,+00)
7970+  1F90 9E              .BYTE    $9E                        ; Exponent: $6E, Bytes: 3
7971+  1F91 00 36 75        .BYTE    $00,$36,$75                ; (+00)
7972+  1F94 A0              .BYTE    $A0                        ; Exponent: $70, Bytes: 3
7973+  1F95 DB E8 B4        .BYTE    $DB,$E8,$B4                ; (+00)
7974+  1F98 63              .BYTE    $63                        ; Exponent: $73, Bytes: 2
7975+  1F99 42 C4           .BYTE    $42,$C4                    ; (+00,+00)
7976+  1F9B E6              .BYTE    $E6                        ; Exponent: $76, Bytes: 4
7977+  1F9C B5 09 36 BE     .BYTE    $B5,$09,$36,$BE
7978+  1FA0 E9              .BYTE    $E9                        ; Exponent: $79, Bytes: 4
7979+  1FA1 36 73 1B 5D     .BYTE    $36,$73,$1B,$5D
7980+  1FA5 EC              .BYTE    $EC                        ; Exponent: $7C, Bytes: 4
7981+  1FA6 D8 DE 63 BE     .BYTE    $D8,$DE,$63,$BE
7982+  1FAA F0              .BYTE    $F0                        ; Exponent: $80, Bytes: 4
7983+  1FAB 61 A1 B3 0C     .BYTE    $61,$A1,$B3,$0C
7984+  1FAF             
7985+  1FAF 04              .BYTE    $04                        ; multiply
7986+  1FB0 0F              .BYTE    $0F                        ; addition
7987+  1FB1 34              .BYTE    $34                        ; end-calc
7988+  1FB2 C9              RET
7989+  1FB3             
7990+  1FB3             ; --------------------------
7991+  1FB3             ; THE 'ARCSIN' FUNCTION (1F)
7992+  1FB3             ; --------------------------
7993+  1FB3             ;; asn
7994+  1FB3             SUB_1FB3:
7995+  1FB3 EF              RST 28H                             ; FP-CALC      x.
7996+  1FB4 2D              .BYTE    $2D                        ; duplicate     x, x.
7997+  1FB5 2D              .BYTE    $2D                        ; duplicate     x, x, x.
7998+  1FB6 04              .BYTE    $04                        ; multiply      x, x*x.
7999+  1FB7 A1              .BYTE    $A1                        ; stk-one       x, x*x, 1.
8000+  1FB8 03              .BYTE    $03                        ; subtract      x, x*x-1.
8001+  1FB9 18              .BYTE    $18                        ; negate        x, 1-x*x.
8002+  1FBA 25              .BYTE    $25                        ; sqr           x, sqr(1-x*x) = y.
8003+  1FBB A1              .BYTE    $A1                        ; stk-one       x, y, 1.
8004+  1FBC 0F              .BYTE    $0F                        ; addition      x, y+1.
8005+  1FBD 05              .BYTE    $05                        ; division      x/y+1.
8006+  1FBE 21              .BYTE    $21                        ; atn           a/2     (half the angle)
8007+  1FBF 2D              .BYTE    $2D                        ; duplicate     a/2, a/2.
8008+  1FC0 0F              .BYTE    $0F                        ; addition      a.
8009+  1FC1 34              .BYTE    $34                        ; end-calc      a.
8010+  1FC2 C9              RET
8011+  1FC3             
8012+  1FC3             ; --------------------------
8013+  1FC3             ; THE 'ARCCOS' FUNCTION (20)
8014+  1FC3             ; --------------------------
8015+  1FC3             
8016+  1FC3             ;; acs
8017+  1FC3             SUB_1FC3:
8018+  1FC3 EF              RST 28H                             ; FP-CALC      x.
8019+  1FC4 1F              .BYTE    $1F                        ; asn           asn(x).
8020+  1FC5 A3              .BYTE    $A3                        ; stk-pi/2      asn(x), pi/2.
8021+  1FC6 03              .BYTE    $03                        ; subtract      asn(x) - pi/2.
8022+  1FC7 18              .BYTE    $18                        ; negate        pi/2 - asn(x) = acs(x).
8023+  1FC8 34              .BYTE    $34                        ; end-calc      acs(x)
8024+  1FC9 C9              RET
8025+  1FCA             
8026+  1FCA             ; -------------------------------
8027+  1FCA             ; THE 'SQUARE ROOT' FUNCTION (25)
8028+  1FCA             ; -------------------------------
8029+  1FCA             
8030+  1FCA             ; sqr
8031+  1FCA             SUB_1FCA:
8032+  1FCA EF              RST 28H                             ; FP-CALC              x.
8033+  1FCB 2D              .BYTE    $2D                        ; duplicate             x, x.
8034+  1FCC 2C              .BYTE    $2C                        ; not                   x, 1/0
8035+  1FCD 00              .BYTE    $00                        ; jump-true             x, (1/0).
8036+  1FCE 1E              .BYTE    $1E                        ; to L1DFD, LAST        exit if argument zero
8037+  1FCF A2              .BYTE    $A2                        ; stk-half              x, .5.
8038+  1FD0 34              .BYTE    $34                        ; end-calc              x, .5.
8039+  1FD1             
8040+  1FD1             ; -----------------------------------
8041+  1FD1             ; THE 'EXPONENTIATION' OPERATION (06)
8042+  1FD1             ; -----------------------------------
8043+  1FD1             
8044+  1FD1             ; to-power
8045+  1FD1             SUB_1FD1:
8046+  1FD1 EF              RST 28H                             ; FP-CALC              X,Y.
8047+  1FD2 01              .BYTE    $01                        ; exchange              Y,X.
8048+  1FD3 2D              .BYTE    $2D                        ; duplicate             Y,X,X.
8049+  1FD4 2C              .BYTE    $2C                        ; not                   Y,X,(1/0).
8050+  1FD5 00              .BYTE    $00                        ; jump-true
8051+  1FD6 07              .BYTE    $07                        ; forward to L1DEE, XISO if X is zero.
8052+  1FD7             
8053+  1FD7             ;   else X is non-zero. function 'ln' will catch a negative value of X.
8054+  1FD7             
8055+  1FD7 22              .BYTE    $22                        ; ln                    Y, LN X.
8056+  1FD8 04              .BYTE    $04                        ; multiply              Y * LN X
8057+  1FD9 34              .BYTE    $34                        ; end-calc
8058+  1FDA C3 4A 1E        JP L_1E4A
8059+  1FDD             
8060+  1FDD             ; XISO
8061+  1FDD 02              .BYTE    $02                        ; delete                Y.
8062+  1FDE 2D              .BYTE    $2D                        ; duplicate             Y, Y.
8063+  1FDF 2C              .BYTE    $2C                        ; not                   Y, (1/0).
8064+  1FE0 00              .BYTE    $00                        ; jump-true
8065+  1FE1 09              .BYTE    $09                        ; forward to L1DFB, ONE if Y is zero.
8066+  1FE2 A0              .BYTE    $A0                        ; stk-zero              Y, 0.
8067+  1FE3 01              .BYTE    $01                        ; exchange              0, Y.
8068+  1FE4 33              .BYTE    $33                        ; greater-0             0, (1/0).
8069+  1FE5 00              .BYTE    $00                        ; jump-true             0
8070+  1FE6 06              .BYTE    $06                        ; to L1DFD, LAST        if Y was any positive number.
8071+  1FE7 A1              .BYTE    $A1                        ; stk-one               0, 1.
8072+  1FE8 01              .BYTE    $01                        ; exchange              1, 0.
8073+  1FE9 05              .BYTE    $05                        ; division              1/0    >> error
8074+  1FEA             ; ONE
8075+  1FEA 02              .BYTE    $02                        ; delete                .
8076+  1FEB A1              .BYTE    $A1                        ; stk-one               1.
8077+  1FEC             
8078+  1FEC             ; LAST
8079+  1FEC 34              .BYTE    $34                        ; end-calc              last value 1 or 0.
8080+  1FED C9              RET
8081+  1FEE             
8082+  1FEE             ; ---------------------
8083+  1FEE             ; THE 'SPARE LOCATIONS'
8084+  1FEE             ; ---------------------
8085+  1FEE             
8086+  1FEE             ; SPARE
8087+  1FEE 00              NOP
8088+  1FEF 00              NOP
8089+  1FF0 00              NOP
8090+  1FF1 00              NOP
8091+  1FF2 00              NOP
8092+  1FF3 00              NOP
8093+  1FF4 00              NOP
8094+  1FF5 00              NOP
8095+  1FF6 00              NOP
8096+  1FF7 00              NOP
8097+  1FF8 00              NOP
8098+  1FF9 00              NOP
8099+  1FFA 00              NOP
8100+  1FFB 00              NOP
8101+  1FFC 00              NOP
8102+  1FFD 00              NOP
8103+  1FFE 00              NOP
8104+  1FFF 00              NOP
8105+  2000             
8106+  2000             .END
0030   2000             
0031   2000             ;*****************************************
0032   2000             ;** ROM PATCHES **
0033   2000             ;*****************************************
0034   2000             
0035   2000             ; Changes here overlay the above ROM
0036   2000             
0037   0000             .ORG $0000
0038   0000             ; START
0039   0000             START:
0040   0000 C3 40 2A        JP INIT_4TH                         ; Initialise the Minstrel 4th video RAM
0041   0003 00              NOP                                 ; clear original startcode
0042   0004 00              NOP                                 ;
0043   0005 00              NOP                                 ;
0044   0006             
0045   0038             .ORG $0038
0046   0038             ; --------------------------------
0047   0038             ; THE 'MASKABLE INTERRUPT' ROUTINE
0048   0038             ; --------------------------------
0049   0038             ; Called once every frame
0050   0038             
0051   0038             ; MASK-INT
0052   0038             ; Called once every frame either halted in fast mode or user code in slow
0053   0038 F5              PUSH AF                             ; store the accumulator andflags.
0054   0039              
0055   0039 3A 3B 40        LD A,($403B)                        ; getCDFLAG
0056   003C CB 7F           BIT 7,A                             ; check for slowmode
0057   003E             
0058   003E 20 02           JR NZ,RET_SLOW                      ; skip if SLOWmode
0059   0040              
0060   0040 F1              POP AF                              ; restore the accumulator andflags.
0061   0041 C9              RET                                 ; return for the next frame if FASTmode
0062   0042             
0063   0042             ; Slow mode interrupt - we have interrupted users code
0064   0042             RET_SLOW:
0065   0042              
0066   0042                 ; stackcontains:
0067   0042                 ; * User code returnaddress
0068   0042                 ; ** Previously pushedAF
0069   0042 C5              PUSH BC                             ; *** Remaining MainRegisters
0070   0043 D5              PUSH DE                             ;****
0071   0044 E5              PUSH HL                             ;*****
0072   0045              
0073   0045 C3 9D 02        JP L_029D                           ; ready for the start of the nextframe
0074   0048              
0075   0048 00              NOP                                 ; clear remains of originalcode
0076   0049             
0077   0066             .ORG $0066
0078   0066 ED 45           RETN                                ; no NMI on 4th
0079   0068             
0080   007B             .ORG $007B
0081   007B                 ; Deal with bottom rowshift
0082   007B 1B              .BYTE $1B                           ;.
0083   007C 3F              .BYTE $3F                           ;Z
0084   007D 3D              .BYTE $3D                           ;X
0085   007E 28              .BYTE $28                           ;C
0086   009E             .ORG $009E
0087   009E 32              .BYTE $32                           ;M
0088   009F 33              .BYTE $33                           ;N
0089   00A0 27              .BYTE $27                           ;B
0090   00A1 3B              .BYTE $3B                           ;V
0091   00A2             
0092   00A2             .ORG $00A2
0093   00A2 77              .BYTE $77                           ; Shift + . =RUBOUT
0094   00A3 F5              .BYTE $F5                           ; Shift + Z = PRINT
0095   00A4 7A              .BYTE $7A                           ; Shift + X = Lineno
0096   00A5 70              .BYTE $70                           ; Shift + C =cursor-up
0097   00C5             .ORG $00C5
0098   00C5 75              .BYTE $75                           ; Shift + M =EDIT
0099   00C6 73              .BYTE $73                           ; Shift + N =cursor-right
0100   00C7 72              .BYTE $72                           ; Shift + B =cursor-left
0101   00C8 71              .BYTE $71                           ; Shift + V =cursor-down
0102   00C9             
0103   00C9             .ORG $00C9
0104   00C9 77              .BYTE $77                           ; Graphics + . =RUBOUT
0105   00CA 83              .BYTE $83                           ; Graphics + Z =graphic
0106   00CB 03              .BYTE $03                           ; Graphics + X =graphic
0107   00CC 05              .BYTE $05                           ; Graphics + C =graphic
0108   00EC             .ORG $00EC
0109   00EC 78              .BYTE $78                           ; Graphics + M =KL
0110   00ED 86              .BYTE $86                           ; Graphics + N =graphic
0111   00EE 06              .BYTE $06                           ; Graphics + B =graphic
0112   00EF 85              .BYTE $85                           ; Graphics + V =graphic
0113   00F0             
0114   0226             .ORG $0226
0115   0226 CD E1 2A        CALL PATCH_FONT                     ; If patching a ZX81 program, patch the font aswell
0116   0229             
0117   0293             .ORG $0293
0118   0293 18 08           JR L_029D                           ; BypassPRE-DISPLAY-1
0119   0295 00              NOP                                 ; clear remains of originalcode
0120   0296 00              NOP                                 ;
0121   0297 00              NOP                                 ;
0122   0298 00              NOP                                 ;
0123   0299 00              NOP                                 ;
0124   029A 00              NOP                                 ;
0125   029B 00              NOP                                 ;
0126   029C             
0127   0314             .ORG $0314
0128   0314 C9              RET                                 ; DISPLAY-3 - Nothing to do on the Minstrel4th
0129   0315 00              NOP                                 ;
0130   0316             
0131   0337             .ORG $0337
0132   0337 C3 A3 2A        JP DISPLAY_ROUTINE                  ; Jump to displayroutine
0133   033A             
0134   0362             .ORG $0362
0135   0362 1F              RRA                                 ; Rotate bit 6 (PAL/NTSC) tocarry
0136   0363             
0137   0375             .ORG $0375 
0138   0375 FB              EI                                  ; Enableinterrupts
0139   0376 76              HALT                                ; Halt and wait for the nextinterrupt
0140   0377 00              NOP                                 ;
0141   0378             
0142   04F2             .ORG $04F2
0143   04F2 C3 80 2A        JP SHOW_BANNER                      ; show banner atinit
0144   04F5 00              NOP                                 ; clear autostart ROM at $2000code
0145   04F6 00              NOP                                 ;
0146   04F7 00              NOP                                 ;
0147   04F8 00              NOP                                 ;
0148   04F9 00              NOP                                 ;
0149   04FA 00              NOP                                 ;
0150   04FB 00              NOP                                 ;
0151   04FC             
0152   0460             .ORG $0460
0153   0460 C3 81 2C        JP PLAY_NOTE                        ; replacement play-notefunction
0154   0463 C3 85 2C        JP PLAY_NOTE_2                      ; alternate entry point forMUSIC
0155   0466 00              NOP                                 ; clear remains of originalcode
0156   0467 00              NOP                                 ;
0157   0468 00              NOP                                 ;
0158   0469 00              NOP                                 ;
0159   046A             
0160   0A44             .ORG $0A44
0161   0A44 C3 F0 2A        JP GET_CHAR_BITS                    ; Replacement rountie to read ROMfont
0162   0A47 00              NOP                                 ; clear remains of originalcode
0163   0A48 00              NOP                                 ;
0164   0A49 00              NOP                                 ;
0165   0A4A 00              NOP                                 ;
0166   0A4B 00              NOP                                 ;
0167   0A4C 00              NOP                                 ;
0168   0A4D 00              NOP                                 ;
0169   0A4E 00              NOP                                 ;
0170   0A4F 00              NOP                                 ;
0171   0A50 00              NOP                                 ;
0172   0A51             
0173   0DFE             .ORG $0DFE
0174   0DFE 81 2B           .WORD NEW_LOAD                      ; New LOADroutine
0175   0E00             
0176   0E01             .ORG $0E01
0177   0E01 01 2B           .WORD NEW_SAVE                      ; New SAVEroutine
0178   0E03             
0179   0E23             .ORG $0E23
0180   0E23 C6 2A           .WORD NEW_FAST                      ; New FASTroutine
0181   0E25             
0182   2000             .ORG $2000
0183   2000             
0184   2000             ; video RAM is here
0185   2000             
0186   2800             .ORG $2800
0187   2800             .INCLUDE "Font.asm"
0001+  2800             ; Lamdba 8300 character set
0002+  2800             
0003+  2800             FONT:
0004+  2800             ; Character $00
0005+  2800 00          	.BYTE %00000000                        ; ........
0006+  2801 00          	.BYTE %00000000                        ; ........
0007+  2802 00          	.BYTE %00000000                        ; ........
0008+  2803 00          	.BYTE %00000000                        ; ........
0009+  2804 00          	.BYTE %00000000                        ; ........
0010+  2805 00          	.BYTE %00000000                        ; ........
0011+  2806 00          	.BYTE %00000000                        ; ........
0012+  2807 00          	.BYTE %00000000                        ; ........
0013+  2808             
0014+  2808             ; Character $01
0015+  2808 F0          	.BYTE %11110000                        ; OOOO....
0016+  2809 F0          	.BYTE %11110000                        ; OOOO....
0017+  280A F0          	.BYTE %11110000                        ; OOOO....
0018+  280B F0          	.BYTE %11110000                        ; OOOO....
0019+  280C 00          	.BYTE %00000000                        ; ........
0020+  280D 00          	.BYTE %00000000                        ; ........
0021+  280E 00          	.BYTE %00000000                        ; ........
0022+  280F 00          	.BYTE %00000000                        ; ........
0023+  2810             
0024+  2810             ; Character $02
0025+  2810 0F          	.BYTE %00001111                        ; ....OOOO
0026+  2811 0F          	.BYTE %00001111                        ; ....OOOO
0027+  2812 0F          	.BYTE %00001111                        ; ....OOOO
0028+  2813 0F          	.BYTE %00001111                        ; ....OOOO
0029+  2814 00          	.BYTE %00000000                        ; ........
0030+  2815 00          	.BYTE %00000000                        ; ........
0031+  2816 00          	.BYTE %00000000                        ; ........
0032+  2817 00          	.BYTE %00000000                        ; ........
0033+  2818             
0034+  2818             ; Character $03
0035+  2818 FF          	.BYTE %11111111                        ; OOOOOOOO
0036+  2819 FF          	.BYTE %11111111                        ; OOOOOOOO
0037+  281A FF          	.BYTE %11111111                        ; OOOOOOOO
0038+  281B FF          	.BYTE %11111111                        ; OOOOOOOO
0039+  281C 00          	.BYTE %00000000                        ; ........
0040+  281D 00          	.BYTE %00000000                        ; ........
0041+  281E 00          	.BYTE %00000000                        ; ........
0042+  281F 00          	.BYTE %00000000                        ; ........
0043+  2820             
0044+  2820             ; Character $04
0045+  2820 00          	.BYTE %00000000                        ; ........
0046+  2821 00          	.BYTE %00000000                        ; ........
0047+  2822 00          	.BYTE %00000000                        ; ........
0048+  2823 00          	.BYTE %00000000                        ; ........
0049+  2824 F0          	.BYTE %11110000                        ; OOOO....
0050+  2825 F0          	.BYTE %11110000                        ; OOOO....
0051+  2826 F0          	.BYTE %11110000                        ; OOOO....
0052+  2827 F0          	.BYTE %11110000                        ; OOOO....
0053+  2828             
0054+  2828             ; Character $05
0055+  2828 F0          	.BYTE %11110000                        ; OOOO....
0056+  2829 F0          	.BYTE %11110000                        ; OOOO....
0057+  282A F0          	.BYTE %11110000                        ; OOOO....
0058+  282B F0          	.BYTE %11110000                        ; OOOO....
0059+  282C F0          	.BYTE %11110000                        ; OOOO....
0060+  282D F0          	.BYTE %11110000                        ; OOOO....
0061+  282E F0          	.BYTE %11110000                        ; OOOO....
0062+  282F F0          	.BYTE %11110000                        ; OOOO....
0063+  2830             
0064+  2830             ; Character $06
0065+  2830 0F          	.BYTE %00001111                        ; ....OOOO
0066+  2831 0F          	.BYTE %00001111                        ; ....OOOO
0067+  2832 0F          	.BYTE %00001111                        ; ....OOOO
0068+  2833 0F          	.BYTE %00001111                        ; ....OOOO
0069+  2834 F0          	.BYTE %11110000                        ; OOOO....
0070+  2835 F0          	.BYTE %11110000                        ; OOOO....
0071+  2836 F0          	.BYTE %11110000                        ; OOOO....
0072+  2837 F0          	.BYTE %11110000                        ; OOOO....
0073+  2838             
0074+  2838             ; Character $07
0075+  2838 FF          	.BYTE %11111111                        ; OOOOOOOO
0076+  2839 FF          	.BYTE %11111111                        ; OOOOOOOO
0077+  283A FF          	.BYTE %11111111                        ; OOOOOOOO
0078+  283B FF          	.BYTE %11111111                        ; OOOOOOOO
0079+  283C F0          	.BYTE %11110000                        ; OOOO....
0080+  283D F0          	.BYTE %11110000                        ; OOOO....
0081+  283E F0          	.BYTE %11110000                        ; OOOO....
0082+  283F F0          	.BYTE %11110000                        ; OOOO....
0083+  2840             
0084+  2840             ; Character $08
0085+  2840 DB          	.BYTE %11011011                        ; OO.OO.OO
0086+  2841 FF          	.BYTE %11111111                        ; OOOOOOOO
0087+  2842 DB          	.BYTE %11011011                        ; OO.OO.OO
0088+  2843 18          	.BYTE %00011000                        ; ...OO...
0089+  2844 18          	.BYTE %00011000                        ; ...OO...
0090+  2845 DB          	.BYTE %11011011                        ; OO.OO.OO
0091+  2846 FF          	.BYTE %11111111                        ; OOOOOOOO
0092+  2847 DB          	.BYTE %11011011                        ; OO.OO.OO
0093+  2848             
0094+  2848             ; Character $09
0095+  2848 FF          	.BYTE %11111111                        ; OOOOOOOO
0096+  2849 FE          	.BYTE %11111110                        ; OOOOOOO.
0097+  284A FC          	.BYTE %11111100                        ; OOOOOO..
0098+  284B F8          	.BYTE %11111000                        ; OOOOO...
0099+  284C F0          	.BYTE %11110000                        ; OOOO....
0100+  284D E0          	.BYTE %11100000                        ; OOO.....
0101+  284E C0          	.BYTE %11000000                        ; OO......
0102+  284F 80          	.BYTE %10000000                        ; O.......
0103+  2850             
0104+  2850             ; Character $0A
0105+  2850 FF          	.BYTE %11111111                        ; OOOOOOOO
0106+  2851 7F          	.BYTE %01111111                        ; .OOOOOOO
0107+  2852 3F          	.BYTE %00111111                        ; ..OOOOOO
0108+  2853 1F          	.BYTE %00011111                        ; ...OOOOO
0109+  2854 0F          	.BYTE %00001111                        ; ....OOOO
0110+  2855 07          	.BYTE %00000111                        ; .....OOO
0111+  2856 03          	.BYTE %00000011                        ; ......OO
0112+  2857 01          	.BYTE %00000001                        ; .......O
0113+  2858             
0114+  2858             ; Character $0B
0115+  2858 00          	.BYTE %00000000                        ; ........
0116+  2859 24          	.BYTE %00100100                        ; ..O..O..
0117+  285A 24          	.BYTE %00100100                        ; ..O..O..
0118+  285B 00          	.BYTE %00000000                        ; ........
0119+  285C 00          	.BYTE %00000000                        ; ........
0120+  285D 00          	.BYTE %00000000                        ; ........
0121+  285E 00          	.BYTE %00000000                        ; ........
0122+  285F 00          	.BYTE %00000000                        ; ........
0123+  2860             
0124+  2860             ; Character $0C
0125+  2860 C3          	.BYTE %11000011                        ; OO....OO
0126+  2861 24          	.BYTE %00100100                        ; ..O..O..
0127+  2862 18          	.BYTE %00011000                        ; ...OO...
0128+  2863 3C          	.BYTE %00111100                        ; ..OOOO..
0129+  2864 5A          	.BYTE %01011010                        ; .O.OO.O.
0130+  2865 42          	.BYTE %01000010                        ; .O....O.
0131+  2866 81          	.BYTE %10000001                        ; O......O
0132+  2867 81          	.BYTE %10000001                        ; O......O
0133+  2868             
0134+  2868             ; Character $0D
0135+  2868 00          	.BYTE %00000000                        ; ........
0136+  2869 08          	.BYTE %00001000                        ; ....O...
0137+  286A 3E          	.BYTE %00111110                        ; ..OOOOO.
0138+  286B 28          	.BYTE %00101000                        ; ..O.O...
0139+  286C 3E          	.BYTE %00111110                        ; ..OOOOO.
0140+  286D 0A          	.BYTE %00001010                        ; ....O.O.
0141+  286E 3E          	.BYTE %00111110                        ; ..OOOOO.
0142+  286F 08          	.BYTE %00001000                        ; ....O...
0143+  2870             
0144+  2870             ; Character $0E
0145+  2870 81          	.BYTE %10000001                        ; O......O
0146+  2871 C3          	.BYTE %11000011                        ; OO....OO
0147+  2872 E7          	.BYTE %11100111                        ; OOO..OOO
0148+  2873 FF          	.BYTE %11111111                        ; OOOOOOOO
0149+  2874 FF          	.BYTE %11111111                        ; OOOOOOOO
0150+  2875 99          	.BYTE %10011001                        ; O..OO..O
0151+  2876 24          	.BYTE %00100100                        ; ..O..O..
0152+  2877 C3          	.BYTE %11000011                        ; OO....OO
0153+  2878             
0154+  2878             ; Character $0F
0155+  2878 00          	.BYTE %00000000                        ; ........
0156+  2879 3C          	.BYTE %00111100                        ; ..OOOO..
0157+  287A 42          	.BYTE %01000010                        ; .O....O.
0158+  287B 81          	.BYTE %10000001                        ; O......O
0159+  287C A5          	.BYTE %10100101                        ; O.O..O.O
0160+  287D 81          	.BYTE %10000001                        ; O......O
0161+  287E DB          	.BYTE %11011011                        ; OO.OO.OO
0162+  287F A5          	.BYTE %10100101                        ; O.O..O.O
0163+  2880             
0164+  2880             ; Character $10
0165+  2880 00          	.BYTE %00000000                        ; ........
0166+  2881 04          	.BYTE %00000100                        ; .....O..
0167+  2882 08          	.BYTE %00001000                        ; ....O...
0168+  2883 08          	.BYTE %00001000                        ; ....O...
0169+  2884 08          	.BYTE %00001000                        ; ....O...
0170+  2885 08          	.BYTE %00001000                        ; ....O...
0171+  2886 04          	.BYTE %00000100                        ; .....O..
0172+  2887 00          	.BYTE %00000000                        ; ........
0173+  2888             
0174+  2888             ; Character $11
0175+  2888 00          	.BYTE %00000000                        ; ........
0176+  2889 20          	.BYTE %00100000                        ; ..O.....
0177+  288A 10          	.BYTE %00010000                        ; ...O....
0178+  288B 10          	.BYTE %00010000                        ; ...O....
0179+  288C 10          	.BYTE %00010000                        ; ...O....
0180+  288D 10          	.BYTE %00010000                        ; ...O....
0181+  288E 20          	.BYTE %00100000                        ; ..O.....
0182+  288F 00          	.BYTE %00000000                        ; ........
0183+  2890             
0184+  2890             ; Character $12
0185+  2890 00          	.BYTE %00000000                        ; ........
0186+  2891 00          	.BYTE %00000000                        ; ........
0187+  2892 10          	.BYTE %00010000                        ; ...O....
0188+  2893 08          	.BYTE %00001000                        ; ....O...
0189+  2894 04          	.BYTE %00000100                        ; .....O..
0190+  2895 08          	.BYTE %00001000                        ; ....O...
0191+  2896 10          	.BYTE %00010000                        ; ...O....
0192+  2897 00          	.BYTE %00000000                        ; ........
0193+  2898             
0194+  2898             ; Character $13
0195+  2898 00          	.BYTE %00000000                        ; ........
0196+  2899 00          	.BYTE %00000000                        ; ........
0197+  289A 04          	.BYTE %00000100                        ; .....O..
0198+  289B 08          	.BYTE %00001000                        ; ....O...
0199+  289C 10          	.BYTE %00010000                        ; ...O....
0200+  289D 08          	.BYTE %00001000                        ; ....O...
0201+  289E 04          	.BYTE %00000100                        ; .....O..
0202+  289F 00          	.BYTE %00000000                        ; ........
0203+  28A0             
0204+  28A0             ; Character $14
0205+  28A0 00          	.BYTE %00000000                        ; ........
0206+  28A1 00          	.BYTE %00000000                        ; ........
0207+  28A2 00          	.BYTE %00000000                        ; ........
0208+  28A3 3E          	.BYTE %00111110                        ; ..OOOOO.
0209+  28A4 00          	.BYTE %00000000                        ; ........
0210+  28A5 3E          	.BYTE %00111110                        ; ..OOOOO.
0211+  28A6 00          	.BYTE %00000000                        ; ........
0212+  28A7 00          	.BYTE %00000000                        ; ........
0213+  28A8             
0214+  28A8             ; Character $15
0215+  28A8 00          	.BYTE %00000000                        ; ........
0216+  28A9 00          	.BYTE %00000000                        ; ........
0217+  28AA 08          	.BYTE %00001000                        ; ....O...
0218+  28AB 08          	.BYTE %00001000                        ; ....O...
0219+  28AC 3E          	.BYTE %00111110                        ; ..OOOOO.
0220+  28AD 08          	.BYTE %00001000                        ; ....O...
0221+  28AE 08          	.BYTE %00001000                        ; ....O...
0222+  28AF 00          	.BYTE %00000000                        ; ........
0223+  28B0             
0224+  28B0             ; Character $16
0225+  28B0 00          	.BYTE %00000000                        ; ........
0226+  28B1 00          	.BYTE %00000000                        ; ........
0227+  28B2 00          	.BYTE %00000000                        ; ........
0228+  28B3 00          	.BYTE %00000000                        ; ........
0229+  28B4 3E          	.BYTE %00111110                        ; ..OOOOO.
0230+  28B5 00          	.BYTE %00000000                        ; ........
0231+  28B6 00          	.BYTE %00000000                        ; ........
0232+  28B7 00          	.BYTE %00000000                        ; ........
0233+  28B8             
0234+  28B8             ; Character $17
0235+  28B8 00          	.BYTE %00000000                        ; ........
0236+  28B9 00          	.BYTE %00000000                        ; ........
0237+  28BA 14          	.BYTE %00010100                        ; ...O.O..
0238+  28BB 08          	.BYTE %00001000                        ; ....O...
0239+  28BC 3E          	.BYTE %00111110                        ; ..OOOOO.
0240+  28BD 08          	.BYTE %00001000                        ; ....O...
0241+  28BE 14          	.BYTE %00010100                        ; ...O.O..
0242+  28BF 00          	.BYTE %00000000                        ; ........
0243+  28C0             
0244+  28C0             ; Character $18
0245+  28C0 00          	.BYTE %00000000                        ; ........
0246+  28C1 00          	.BYTE %00000000                        ; ........
0247+  28C2 02          	.BYTE %00000010                        ; ......O.
0248+  28C3 04          	.BYTE %00000100                        ; .....O..
0249+  28C4 08          	.BYTE %00001000                        ; ....O...
0250+  28C5 10          	.BYTE %00010000                        ; ...O....
0251+  28C6 20          	.BYTE %00100000                        ; ..O.....
0252+  28C7 00          	.BYTE %00000000                        ; ........
0253+  28C8             
0254+  28C8             ; Character $19
0255+  28C8 00          	.BYTE %00000000                        ; ........
0256+  28C9 00          	.BYTE %00000000                        ; ........
0257+  28CA 10          	.BYTE %00010000                        ; ...O....
0258+  28CB 00          	.BYTE %00000000                        ; ........
0259+  28CC 00          	.BYTE %00000000                        ; ........
0260+  28CD 10          	.BYTE %00010000                        ; ...O....
0261+  28CE 10          	.BYTE %00010000                        ; ...O....
0262+  28CF 20          	.BYTE %00100000                        ; ..O.....
0263+  28D0             
0264+  28D0             ; Character $1A
0265+  28D0 00          	.BYTE %00000000                        ; ........
0266+  28D1 00          	.BYTE %00000000                        ; ........
0267+  28D2 00          	.BYTE %00000000                        ; ........
0268+  28D3 00          	.BYTE %00000000                        ; ........
0269+  28D4 00          	.BYTE %00000000                        ; ........
0270+  28D5 08          	.BYTE %00001000                        ; ....O...
0271+  28D6 08          	.BYTE %00001000                        ; ....O...
0272+  28D7 10          	.BYTE %00010000                        ; ...O....
0273+  28D8             
0274+  28D8             ; Character $1B
0275+  28D8 00          	.BYTE %00000000                        ; ........
0276+  28D9 00          	.BYTE %00000000                        ; ........
0277+  28DA 00          	.BYTE %00000000                        ; ........
0278+  28DB 00          	.BYTE %00000000                        ; ........
0279+  28DC 00          	.BYTE %00000000                        ; ........
0280+  28DD 18          	.BYTE %00011000                        ; ...OO...
0281+  28DE 18          	.BYTE %00011000                        ; ...OO...
0282+  28DF 00          	.BYTE %00000000                        ; ........
0283+  28E0             
0284+  28E0             ; Character $1C
0285+  28E0 00          	.BYTE %00000000                        ; ........
0286+  28E1 3C          	.BYTE %00111100                        ; ..OOOO..
0287+  28E2 46          	.BYTE %01000110                        ; .O...OO.
0288+  28E3 4A          	.BYTE %01001010                        ; .O..O.O.
0289+  28E4 52          	.BYTE %01010010                        ; .O.O..O.
0290+  28E5 62          	.BYTE %01100010                        ; .OO...O.
0291+  28E6 3C          	.BYTE %00111100                        ; ..OOOO..
0292+  28E7 00          	.BYTE %00000000                        ; ........
0293+  28E8             
0294+  28E8             ; Character $1D
0295+  28E8 00          	.BYTE %00000000                        ; ........
0296+  28E9 18          	.BYTE %00011000                        ; ...OO...
0297+  28EA 28          	.BYTE %00101000                        ; ..O.O...
0298+  28EB 08          	.BYTE %00001000                        ; ....O...
0299+  28EC 08          	.BYTE %00001000                        ; ....O...
0300+  28ED 08          	.BYTE %00001000                        ; ....O...
0301+  28EE 3E          	.BYTE %00111110                        ; ..OOOOO.
0302+  28EF 00          	.BYTE %00000000                        ; ........
0303+  28F0             
0304+  28F0             ; Character $1E
0305+  28F0 00          	.BYTE %00000000                        ; ........
0306+  28F1 3C          	.BYTE %00111100                        ; ..OOOO..
0307+  28F2 42          	.BYTE %01000010                        ; .O....O.
0308+  28F3 02          	.BYTE %00000010                        ; ......O.
0309+  28F4 3C          	.BYTE %00111100                        ; ..OOOO..
0310+  28F5 40          	.BYTE %01000000                        ; .O......
0311+  28F6 7E          	.BYTE %01111110                        ; .OOOOOO.
0312+  28F7 00          	.BYTE %00000000                        ; ........
0313+  28F8             
0314+  28F8             ; Character $1F
0315+  28F8 00          	.BYTE %00000000                        ; ........
0316+  28F9 3C          	.BYTE %00111100                        ; ..OOOO..
0317+  28FA 42          	.BYTE %01000010                        ; .O....O.
0318+  28FB 0C          	.BYTE %00001100                        ; ....OO..
0319+  28FC 02          	.BYTE %00000010                        ; ......O.
0320+  28FD 42          	.BYTE %01000010                        ; .O....O.
0321+  28FE 3C          	.BYTE %00111100                        ; ..OOOO..
0322+  28FF 00          	.BYTE %00000000                        ; ........
0323+  2900             
0324+  2900             ; Character $20
0325+  2900 00          	.BYTE %00000000                        ; ........
0326+  2901 08          	.BYTE %00001000                        ; ....O...
0327+  2902 18          	.BYTE %00011000                        ; ...OO...
0328+  2903 28          	.BYTE %00101000                        ; ..O.O...
0329+  2904 48          	.BYTE %01001000                        ; .O..O...
0330+  2905 7E          	.BYTE %01111110                        ; .OOOOOO.
0331+  2906 08          	.BYTE %00001000                        ; ....O...
0332+  2907 00          	.BYTE %00000000                        ; ........
0333+  2908             
0334+  2908             ; Character $21
0335+  2908 00          	.BYTE %00000000                        ; ........
0336+  2909 7E          	.BYTE %01111110                        ; .OOOOOO.
0337+  290A 40          	.BYTE %01000000                        ; .O......
0338+  290B 7C          	.BYTE %01111100                        ; .OOOOO..
0339+  290C 02          	.BYTE %00000010                        ; ......O.
0340+  290D 42          	.BYTE %01000010                        ; .O....O.
0341+  290E 3C          	.BYTE %00111100                        ; ..OOOO..
0342+  290F 00          	.BYTE %00000000                        ; ........
0343+  2910             
0344+  2910             ; Character $22
0345+  2910 00          	.BYTE %00000000                        ; ........
0346+  2911 3C          	.BYTE %00111100                        ; ..OOOO..
0347+  2912 40          	.BYTE %01000000                        ; .O......
0348+  2913 7C          	.BYTE %01111100                        ; .OOOOO..
0349+  2914 42          	.BYTE %01000010                        ; .O....O.
0350+  2915 42          	.BYTE %01000010                        ; .O....O.
0351+  2916 3C          	.BYTE %00111100                        ; ..OOOO..
0352+  2917 00          	.BYTE %00000000                        ; ........
0353+  2918             
0354+  2918             ; Character $23
0355+  2918 00          	.BYTE %00000000                        ; ........
0356+  2919 7E          	.BYTE %01111110                        ; .OOOOOO.
0357+  291A 02          	.BYTE %00000010                        ; ......O.
0358+  291B 04          	.BYTE %00000100                        ; .....O..
0359+  291C 08          	.BYTE %00001000                        ; ....O...
0360+  291D 10          	.BYTE %00010000                        ; ...O....
0361+  291E 10          	.BYTE %00010000                        ; ...O....
0362+  291F 00          	.BYTE %00000000                        ; ........
0363+  2920             
0364+  2920             ; Character $24
0365+  2920 00          	.BYTE %00000000                        ; ........
0366+  2921 3C          	.BYTE %00111100                        ; ..OOOO..
0367+  2922 42          	.BYTE %01000010                        ; .O....O.
0368+  2923 3C          	.BYTE %00111100                        ; ..OOOO..
0369+  2924 42          	.BYTE %01000010                        ; .O....O.
0370+  2925 42          	.BYTE %01000010                        ; .O....O.
0371+  2926 3C          	.BYTE %00111100                        ; ..OOOO..
0372+  2927 00          	.BYTE %00000000                        ; ........
0373+  2928             
0374+  2928             ; Character $25
0375+  2928 00          	.BYTE %00000000                        ; ........
0376+  2929 3C          	.BYTE %00111100                        ; ..OOOO..
0377+  292A 42          	.BYTE %01000010                        ; .O....O.
0378+  292B 42          	.BYTE %01000010                        ; .O....O.
0379+  292C 3E          	.BYTE %00111110                        ; ..OOOOO.
0380+  292D 02          	.BYTE %00000010                        ; ......O.
0381+  292E 3C          	.BYTE %00111100                        ; ..OOOO..
0382+  292F 00          	.BYTE %00000000                        ; ........
0383+  2930             
0384+  2930             ; Character $26
0385+  2930 00          	.BYTE %00000000                        ; ........
0386+  2931 3C          	.BYTE %00111100                        ; ..OOOO..
0387+  2932 42          	.BYTE %01000010                        ; .O....O.
0388+  2933 42          	.BYTE %01000010                        ; .O....O.
0389+  2934 7E          	.BYTE %01111110                        ; .OOOOOO.
0390+  2935 42          	.BYTE %01000010                        ; .O....O.
0391+  2936 42          	.BYTE %01000010                        ; .O....O.
0392+  2937 00          	.BYTE %00000000                        ; ........
0393+  2938             
0394+  2938             ; Character $27
0395+  2938 00          	.BYTE %00000000                        ; ........
0396+  2939 7C          	.BYTE %01111100                        ; .OOOOO..
0397+  293A 42          	.BYTE %01000010                        ; .O....O.
0398+  293B 7C          	.BYTE %01111100                        ; .OOOOO..
0399+  293C 42          	.BYTE %01000010                        ; .O....O.
0400+  293D 42          	.BYTE %01000010                        ; .O....O.
0401+  293E 7C          	.BYTE %01111100                        ; .OOOOO..
0402+  293F 00          	.BYTE %00000000                        ; ........
0403+  2940             
0404+  2940             ; Character $28
0405+  2940 00          	.BYTE %00000000                        ; ........
0406+  2941 3C          	.BYTE %00111100                        ; ..OOOO..
0407+  2942 42          	.BYTE %01000010                        ; .O....O.
0408+  2943 40          	.BYTE %01000000                        ; .O......
0409+  2944 40          	.BYTE %01000000                        ; .O......
0410+  2945 42          	.BYTE %01000010                        ; .O....O.
0411+  2946 3C          	.BYTE %00111100                        ; ..OOOO..
0412+  2947 00          	.BYTE %00000000                        ; ........
0413+  2948             
0414+  2948             ; Character $29
0415+  2948 00          	.BYTE %00000000                        ; ........
0416+  2949 78          	.BYTE %01111000                        ; .OOOO...
0417+  294A 44          	.BYTE %01000100                        ; .O...O..
0418+  294B 42          	.BYTE %01000010                        ; .O....O.
0419+  294C 42          	.BYTE %01000010                        ; .O....O.
0420+  294D 44          	.BYTE %01000100                        ; .O...O..
0421+  294E 78          	.BYTE %01111000                        ; .OOOO...
0422+  294F 00          	.BYTE %00000000                        ; ........
0423+  2950             
0424+  2950             ; Character $2A
0425+  2950 00          	.BYTE %00000000                        ; ........
0426+  2951 7E          	.BYTE %01111110                        ; .OOOOOO.
0427+  2952 40          	.BYTE %01000000                        ; .O......
0428+  2953 7C          	.BYTE %01111100                        ; .OOOOO..
0429+  2954 40          	.BYTE %01000000                        ; .O......
0430+  2955 40          	.BYTE %01000000                        ; .O......
0431+  2956 7E          	.BYTE %01111110                        ; .OOOOOO.
0432+  2957 00          	.BYTE %00000000                        ; ........
0433+  2958             
0434+  2958             ; Character $2B
0435+  2958 00          	.BYTE %00000000                        ; ........
0436+  2959 7E          	.BYTE %01111110                        ; .OOOOOO.
0437+  295A 40          	.BYTE %01000000                        ; .O......
0438+  295B 7C          	.BYTE %01111100                        ; .OOOOO..
0439+  295C 40          	.BYTE %01000000                        ; .O......
0440+  295D 40          	.BYTE %01000000                        ; .O......
0441+  295E 40          	.BYTE %01000000                        ; .O......
0442+  295F 00          	.BYTE %00000000                        ; ........
0443+  2960             
0444+  2960             ; Character $2C
0445+  2960 00          	.BYTE %00000000                        ; ........
0446+  2961 3C          	.BYTE %00111100                        ; ..OOOO..
0447+  2962 42          	.BYTE %01000010                        ; .O....O.
0448+  2963 40          	.BYTE %01000000                        ; .O......
0449+  2964 4E          	.BYTE %01001110                        ; .O..OOO.
0450+  2965 42          	.BYTE %01000010                        ; .O....O.
0451+  2966 3C          	.BYTE %00111100                        ; ..OOOO..
0452+  2967 00          	.BYTE %00000000                        ; ........
0453+  2968             
0454+  2968             ; Character $2D
0455+  2968 00          	.BYTE %00000000                        ; ........
0456+  2969 42          	.BYTE %01000010                        ; .O....O.
0457+  296A 42          	.BYTE %01000010                        ; .O....O.
0458+  296B 7E          	.BYTE %01111110                        ; .OOOOOO.
0459+  296C 42          	.BYTE %01000010                        ; .O....O.
0460+  296D 42          	.BYTE %01000010                        ; .O....O.
0461+  296E 42          	.BYTE %01000010                        ; .O....O.
0462+  296F 00          	.BYTE %00000000                        ; ........
0463+  2970             
0464+  2970             ; Character $2E
0465+  2970 00          	.BYTE %00000000                        ; ........
0466+  2971 3E          	.BYTE %00111110                        ; ..OOOOO.
0467+  2972 08          	.BYTE %00001000                        ; ....O...
0468+  2973 08          	.BYTE %00001000                        ; ....O...
0469+  2974 08          	.BYTE %00001000                        ; ....O...
0470+  2975 08          	.BYTE %00001000                        ; ....O...
0471+  2976 3E          	.BYTE %00111110                        ; ..OOOOO.
0472+  2977 00          	.BYTE %00000000                        ; ........
0473+  2978             
0474+  2978             ; Character $2F
0475+  2978 00          	.BYTE %00000000                        ; ........
0476+  2979 02          	.BYTE %00000010                        ; ......O.
0477+  297A 02          	.BYTE %00000010                        ; ......O.
0478+  297B 02          	.BYTE %00000010                        ; ......O.
0479+  297C 42          	.BYTE %01000010                        ; .O....O.
0480+  297D 42          	.BYTE %01000010                        ; .O....O.
0481+  297E 3C          	.BYTE %00111100                        ; ..OOOO..
0482+  297F 00          	.BYTE %00000000                        ; ........
0483+  2980             
0484+  2980             ; Character $30
0485+  2980 00          	.BYTE %00000000                        ; ........
0486+  2981 44          	.BYTE %01000100                        ; .O...O..
0487+  2982 48          	.BYTE %01001000                        ; .O..O...
0488+  2983 70          	.BYTE %01110000                        ; .OOO....
0489+  2984 48          	.BYTE %01001000                        ; .O..O...
0490+  2985 44          	.BYTE %01000100                        ; .O...O..
0491+  2986 42          	.BYTE %01000010                        ; .O....O.
0492+  2987 00          	.BYTE %00000000                        ; ........
0493+  2988             
0494+  2988             ; Character $31
0495+  2988 00          	.BYTE %00000000                        ; ........
0496+  2989 40          	.BYTE %01000000                        ; .O......
0497+  298A 40          	.BYTE %01000000                        ; .O......
0498+  298B 40          	.BYTE %01000000                        ; .O......
0499+  298C 40          	.BYTE %01000000                        ; .O......
0500+  298D 40          	.BYTE %01000000                        ; .O......
0501+  298E 7E          	.BYTE %01111110                        ; .OOOOOO.
0502+  298F 00          	.BYTE %00000000                        ; ........
0503+  2990             
0504+  2990             ; Character $32
0505+  2990 00          	.BYTE %00000000                        ; ........
0506+  2991 42          	.BYTE %01000010                        ; .O....O.
0507+  2992 66          	.BYTE %01100110                        ; .OO..OO.
0508+  2993 5A          	.BYTE %01011010                        ; .O.OO.O.
0509+  2994 42          	.BYTE %01000010                        ; .O....O.
0510+  2995 42          	.BYTE %01000010                        ; .O....O.
0511+  2996 42          	.BYTE %01000010                        ; .O....O.
0512+  2997 00          	.BYTE %00000000                        ; ........
0513+  2998             
0514+  2998             ; Character $33
0515+  2998 00          	.BYTE %00000000                        ; ........
0516+  2999 42          	.BYTE %01000010                        ; .O....O.
0517+  299A 62          	.BYTE %01100010                        ; .OO...O.
0518+  299B 52          	.BYTE %01010010                        ; .O.O..O.
0519+  299C 4A          	.BYTE %01001010                        ; .O..O.O.
0520+  299D 46          	.BYTE %01000110                        ; .O...OO.
0521+  299E 42          	.BYTE %01000010                        ; .O....O.
0522+  299F 00          	.BYTE %00000000                        ; ........
0523+  29A0             
0524+  29A0             ; Character $34
0525+  29A0 00          	.BYTE %00000000                        ; ........
0526+  29A1 3C          	.BYTE %00111100                        ; ..OOOO..
0527+  29A2 42          	.BYTE %01000010                        ; .O....O.
0528+  29A3 42          	.BYTE %01000010                        ; .O....O.
0529+  29A4 42          	.BYTE %01000010                        ; .O....O.
0530+  29A5 42          	.BYTE %01000010                        ; .O....O.
0531+  29A6 3C          	.BYTE %00111100                        ; ..OOOO..
0532+  29A7 00          	.BYTE %00000000                        ; ........
0533+  29A8             
0534+  29A8             ; Character $35
0535+  29A8 00          	.BYTE %00000000                        ; ........
0536+  29A9 7C          	.BYTE %01111100                        ; .OOOOO..
0537+  29AA 42          	.BYTE %01000010                        ; .O....O.
0538+  29AB 42          	.BYTE %01000010                        ; .O....O.
0539+  29AC 7C          	.BYTE %01111100                        ; .OOOOO..
0540+  29AD 40          	.BYTE %01000000                        ; .O......
0541+  29AE 40          	.BYTE %01000000                        ; .O......
0542+  29AF 00          	.BYTE %00000000                        ; ........
0543+  29B0             
0544+  29B0             ; Character $36
0545+  29B0 00          	.BYTE %00000000                        ; ........
0546+  29B1 3C          	.BYTE %00111100                        ; ..OOOO..
0547+  29B2 42          	.BYTE %01000010                        ; .O....O.
0548+  29B3 42          	.BYTE %01000010                        ; .O....O.
0549+  29B4 52          	.BYTE %01010010                        ; .O.O..O.
0550+  29B5 4A          	.BYTE %01001010                        ; .O..O.O.
0551+  29B6 3C          	.BYTE %00111100                        ; ..OOOO..
0552+  29B7 00          	.BYTE %00000000                        ; ........
0553+  29B8             
0554+  29B8             ; Character $37
0555+  29B8 00          	.BYTE %00000000                        ; ........
0556+  29B9 7C          	.BYTE %01111100                        ; .OOOOO..
0557+  29BA 42          	.BYTE %01000010                        ; .O....O.
0558+  29BB 42          	.BYTE %01000010                        ; .O....O.
0559+  29BC 7C          	.BYTE %01111100                        ; .OOOOO..
0560+  29BD 44          	.BYTE %01000100                        ; .O...O..
0561+  29BE 42          	.BYTE %01000010                        ; .O....O.
0562+  29BF 00          	.BYTE %00000000                        ; ........
0563+  29C0             
0564+  29C0             ; Character $38
0565+  29C0 00          	.BYTE %00000000                        ; ........
0566+  29C1 3C          	.BYTE %00111100                        ; ..OOOO..
0567+  29C2 40          	.BYTE %01000000                        ; .O......
0568+  29C3 3C          	.BYTE %00111100                        ; ..OOOO..
0569+  29C4 02          	.BYTE %00000010                        ; ......O.
0570+  29C5 42          	.BYTE %01000010                        ; .O....O.
0571+  29C6 3C          	.BYTE %00111100                        ; ..OOOO..
0572+  29C7 00          	.BYTE %00000000                        ; ........
0573+  29C8             
0574+  29C8             ; Character $39
0575+  29C8 00          	.BYTE %00000000                        ; ........
0576+  29C9 FE          	.BYTE %11111110                        ; OOOOOOO.
0577+  29CA 10          	.BYTE %00010000                        ; ...O....
0578+  29CB 10          	.BYTE %00010000                        ; ...O....
0579+  29CC 10          	.BYTE %00010000                        ; ...O....
0580+  29CD 10          	.BYTE %00010000                        ; ...O....
0581+  29CE 10          	.BYTE %00010000                        ; ...O....
0582+  29CF 00          	.BYTE %00000000                        ; ........
0583+  29D0             
0584+  29D0             ; Character $3A
0585+  29D0 00          	.BYTE %00000000                        ; ........
0586+  29D1 42          	.BYTE %01000010                        ; .O....O.
0587+  29D2 42          	.BYTE %01000010                        ; .O....O.
0588+  29D3 42          	.BYTE %01000010                        ; .O....O.
0589+  29D4 42          	.BYTE %01000010                        ; .O....O.
0590+  29D5 42          	.BYTE %01000010                        ; .O....O.
0591+  29D6 3C          	.BYTE %00111100                        ; ..OOOO..
0592+  29D7 00          	.BYTE %00000000                        ; ........
0593+  29D8             
0594+  29D8             ; Character $3B
0595+  29D8 00          	.BYTE %00000000                        ; ........
0596+  29D9 42          	.BYTE %01000010                        ; .O....O.
0597+  29DA 42          	.BYTE %01000010                        ; .O....O.
0598+  29DB 42          	.BYTE %01000010                        ; .O....O.
0599+  29DC 42          	.BYTE %01000010                        ; .O....O.
0600+  29DD 24          	.BYTE %00100100                        ; ..O..O..
0601+  29DE 18          	.BYTE %00011000                        ; ...OO...
0602+  29DF 00          	.BYTE %00000000                        ; ........
0603+  29E0             
0604+  29E0             ; Character $3C
0605+  29E0 00          	.BYTE %00000000                        ; ........
0606+  29E1 42          	.BYTE %01000010                        ; .O....O.
0607+  29E2 42          	.BYTE %01000010                        ; .O....O.
0608+  29E3 42          	.BYTE %01000010                        ; .O....O.
0609+  29E4 42          	.BYTE %01000010                        ; .O....O.
0610+  29E5 5A          	.BYTE %01011010                        ; .O.OO.O.
0611+  29E6 24          	.BYTE %00100100                        ; ..O..O..
0612+  29E7 00          	.BYTE %00000000                        ; ........
0613+  29E8             
0614+  29E8             ; Character $3D
0615+  29E8 00          	.BYTE %00000000                        ; ........
0616+  29E9 42          	.BYTE %01000010                        ; .O....O.
0617+  29EA 24          	.BYTE %00100100                        ; ..O..O..
0618+  29EB 18          	.BYTE %00011000                        ; ...OO...
0619+  29EC 18          	.BYTE %00011000                        ; ...OO...
0620+  29ED 24          	.BYTE %00100100                        ; ..O..O..
0621+  29EE 42          	.BYTE %01000010                        ; .O....O.
0622+  29EF 00          	.BYTE %00000000                        ; ........
0623+  29F0             
0624+  29F0             ; Character $3E
0625+  29F0 00          	.BYTE %00000000                        ; ........
0626+  29F1 82          	.BYTE %10000010                        ; O.....O.
0627+  29F2 44          	.BYTE %01000100                        ; .O...O..
0628+  29F3 28          	.BYTE %00101000                        ; ..O.O...
0629+  29F4 10          	.BYTE %00010000                        ; ...O....
0630+  29F5 10          	.BYTE %00010000                        ; ...O....
0631+  29F6 10          	.BYTE %00010000                        ; ...O....
0632+  29F7 00          	.BYTE %00000000                        ; ........
0633+  29F8             
0634+  29F8             ; Character $3F
0635+  29F8 00          	.BYTE %00000000                        ; ........
0636+  29F9 7E          	.BYTE %01111110                        ; .OOOOOO.
0637+  29FA 04          	.BYTE %00000100                        ; .....O..
0638+  29FB 08          	.BYTE %00001000                        ; ....O...
0639+  29FC 10          	.BYTE %00010000                        ; ...O....
0640+  29FD 20          	.BYTE %00100000                        ; ..O.....
0641+  29FE 7E          	.BYTE %01111110                        ; .OOOOOO.
0642+  29FF 00          	.BYTE %00000000                        ; ........
0643+  2A00             
0644+  2A00             ; End of Font
0645+  2A00             
0646+  2A00             
0188   2A00             .INCLUDE "ZX81Font8-F.asm"
0001+  2A00             ; ZX81font.bin characters $08-$0F only
0002+  2A00             
0003+  2A00             
0004+  2A00             ZX81_FONT:
0005+  2A00             ; Character $08
0006+  2A00 AA          	.BYTE %10101010                        ; O.O.O.O.
0007+  2A01 55          	.BYTE %01010101                        ; .O.O.O.O
0008+  2A02 AA          	.BYTE %10101010                        ; O.O.O.O.
0009+  2A03 55          	.BYTE %01010101                        ; .O.O.O.O
0010+  2A04 AA          	.BYTE %10101010                        ; O.O.O.O.
0011+  2A05 55          	.BYTE %01010101                        ; .O.O.O.O
0012+  2A06 AA          	.BYTE %10101010                        ; O.O.O.O.
0013+  2A07 55          	.BYTE %01010101                        ; .O.O.O.O
0014+  2A08             
0015+  2A08             ; Character $09
0016+  2A08 00          	.BYTE %00000000                        ; ........
0017+  2A09 00          	.BYTE %00000000                        ; ........
0018+  2A0A 00          	.BYTE %00000000                        ; ........
0019+  2A0B 00          	.BYTE %00000000                        ; ........
0020+  2A0C AA          	.BYTE %10101010                        ; O.O.O.O.
0021+  2A0D 55          	.BYTE %01010101                        ; .O.O.O.O
0022+  2A0E AA          	.BYTE %10101010                        ; O.O.O.O.
0023+  2A0F 55          	.BYTE %01010101                        ; .O.O.O.O
0024+  2A10             
0025+  2A10             ; Character $0A
0026+  2A10 AA          	.BYTE %10101010                        ; O.O.O.O.
0027+  2A11 55          	.BYTE %01010101                        ; .O.O.O.O
0028+  2A12 AA          	.BYTE %10101010                        ; O.O.O.O.
0029+  2A13 55          	.BYTE %01010101                        ; .O.O.O.O
0030+  2A14 00          	.BYTE %00000000                        ; ........
0031+  2A15 00          	.BYTE %00000000                        ; ........
0032+  2A16 00          	.BYTE %00000000                        ; ........
0033+  2A17 00          	.BYTE %00000000                        ; ........
0034+  2A18             
0035+  2A18             ; Character $0B
0036+  2A18 00          	.BYTE %00000000                        ; ........
0037+  2A19 24          	.BYTE %00100100                        ; ..O..O..
0038+  2A1A 24          	.BYTE %00100100                        ; ..O..O..
0039+  2A1B 00          	.BYTE %00000000                        ; ........
0040+  2A1C 00          	.BYTE %00000000                        ; ........
0041+  2A1D 00          	.BYTE %00000000                        ; ........
0042+  2A1E 00          	.BYTE %00000000                        ; ........
0043+  2A1F 00          	.BYTE %00000000                        ; ........
0044+  2A20             
0045+  2A20             ; Character $0C
0046+  2A20 00          	.BYTE %00000000                        ; ........
0047+  2A21 1C          	.BYTE %00011100                        ; ...OOO..
0048+  2A22 22          	.BYTE %00100010                        ; ..O...O.
0049+  2A23 78          	.BYTE %01111000                        ; .OOOO...
0050+  2A24 20          	.BYTE %00100000                        ; ..O.....
0051+  2A25 20          	.BYTE %00100000                        ; ..O.....
0052+  2A26 7E          	.BYTE %01111110                        ; .OOOOOO.
0053+  2A27 00          	.BYTE %00000000                        ; ........
0054+  2A28             
0055+  2A28             ; Character $0D
0056+  2A28 00          	.BYTE %00000000                        ; ........
0057+  2A29 08          	.BYTE %00001000                        ; ....O...
0058+  2A2A 3E          	.BYTE %00111110                        ; ..OOOOO.
0059+  2A2B 28          	.BYTE %00101000                        ; ..O.O...
0060+  2A2C 3E          	.BYTE %00111110                        ; ..OOOOO.
0061+  2A2D 0A          	.BYTE %00001010                        ; ....O.O.
0062+  2A2E 3E          	.BYTE %00111110                        ; ..OOOOO.
0063+  2A2F 08          	.BYTE %00001000                        ; ....O...
0064+  2A30             
0065+  2A30             ; Character $0E
0066+  2A30 00          	.BYTE %00000000                        ; ........
0067+  2A31 00          	.BYTE %00000000                        ; ........
0068+  2A32 00          	.BYTE %00000000                        ; ........
0069+  2A33 10          	.BYTE %00010000                        ; ...O....
0070+  2A34 00          	.BYTE %00000000                        ; ........
0071+  2A35 00          	.BYTE %00000000                        ; ........
0072+  2A36 10          	.BYTE %00010000                        ; ...O....
0073+  2A37 00          	.BYTE %00000000                        ; ........
0074+  2A38             
0075+  2A38             ; Character $0F
0076+  2A38 00          	.BYTE %00000000                        ; ........
0077+  2A39 3C          	.BYTE %00111100                        ; ..OOOO..
0078+  2A3A 42          	.BYTE %01000010                        ; .O....O.
0079+  2A3B 04          	.BYTE %00000100                        ; .....O..
0080+  2A3C 08          	.BYTE %00001000                        ; ....O...
0081+  2A3D 00          	.BYTE %00000000                        ; ........
0082+  2A3E 08          	.BYTE %00001000                        ; ....O...
0083+  2A3F 00          	.BYTE %00000000                        ; ........
0084+  2A40             
0189   2A40             .INCLUDE "Display.asm"
0001+  2A40             ;##############################################################################
0002+  2A40             ; Init and display functions for Lambda 8300 BASIC for the Minstrel 4th
0003+  2A40             ; Dave Curran 2026-06-18
0004+  2A40             ;##############################################################################
0005+  2A40             
0006+  2A40             ;##############################################################################
0007+  2A40             ; Initialisation code for the 4th
0008+  2A40             ;
0009+  2A40             ; Clear the video RAM and load the Lambda 8300 font into the font RAM
0010+  2A40             ; Display a banner, which will remain until first actual CLS
0011+  2A40             ;
0012+  2A40             
0013+  2A40             INIT_4TH:
0014+  2A40             
0015+  2A40             ; setup UDG $7F as all ones, so the inverted $FF appears like a space
0016+  2A40 06 FF           LD B, $FF                           ; set character bitmap in B
0017+  2A42 48              LD C, B                             ; and C
0018+  2A43 ED 43 F8 2F     LD ($2FF8),BC                       ; write 8 rows, 2 at a time
0019+  2A47 ED 43 FA 2F     LD ($2FFA),BC                       ;
0020+  2A4B ED 43 FC 2F     LD ($2FFC),BC                       ;
0021+  2A4F ED 43 FE 2F     LD ($2FFE),BC                       ;
0022+  2A53             
0023+  2A53             ; now fill the screen with $ff, which should clear it
0024+  2A53             INITIAL_SCREEN_CLEAR:
0025+  2A53 21 00 24        LD HL, $2400                        ; start of character video RAM
0026+  2A56 11 01 24        LD DE, $2401                        ; the next byte
0027+  2A59 01 FF 02        LD BC, $02FF                        ; number of bytes to clear - 1
0028+  2A5C 36 FF           LD (HL), $FF                        ; set the first byte
0029+  2A5E ED B0           LDIR                                ; clear all the rest
0030+  2A60             
0031+  2A60 AF              XOR A                               ; A = 0
0032+  2A61 12              LD (DE), A                          ; make $2700 (first location after screen) zero.
0033+  2A62 13              INC DE                              ; make $2701 zero, to indicate initial boot
0034+  2A63 12              LD (DE), A                          ; 
0035+  2A64             
0036+  2A64             ; copy the 8300 font into the first half of font RAM - should be no conflicts, none of these characters are on screen
0037+  2A64             COPYFONT: 
0038+  2A64 11 00 2C        LD DE, $2C00                        ; Destination is write only font RAM
0039+  2A67 21 00 28        LD HL, FONT                         ; Lambda 8300 font in ROM
0040+  2A6A 01 00 02        LD BC, $0200                        ; There are 64 bit-mapped 8x8 characters
0041+  2A6D ED B0           LDIR                                ; Copy font from ROM to RAM
0042+  2A6F             
0043+  2A6F             ; copy a banner message to the top of the screen
0044+  2A6F             BANNER:
0045+  2A6F 11 00 24        LD DE, $2400                        ; top of 4TH video RAM 
0046+  2A72 21 D6 2C        LD HL, BANNER_TEXT                  ; banner message
0047+  2A75 01 20 00        LD BC, $20                          ; 32 characters
0048+  2A78 ED B0           LDIR
0049+  2A7A             
0050+  2A7A             ; the screen at this point has the banner and the rest are $FF characters
0051+  2A7A             ; when the Lambda 8300 init is complete, the first display cycle will overwrite this
0052+  2A7A             ; also with the banner, but all the rest of the characters will be $00 as normal
0053+  2A7A             ; apart from the inverse K on the edit line
0054+  2A7A             
0055+  2A7A             ; resume where the initial reset function
0056+  2A7A             ON_TO_RAM_CHECK:
0057+  2A7A 01 FF FF        LD BC,$FFFF                         ; top of possible RAM.
0058+  2A7D C3 89 04        JP L_0489                           ; on to RAM-CHECK.
0059+  2A80             
0060+  2A80             
0061+  2A80             ;###########################################################
0062+  2A80             ; Called during clear after init and also after loading
0063+  2A80             ; Check if this is init and display the banner
0064+  2A80             SHOW_BANNER:
0065+  2A80 CD A5 16        CALL SUB_16A5                       ; CURSOR-IN, set cursor on edit line
0066+  2A83 CD D0 0B        CALL SUB_0BD0                       ; CLS function
0067+  2A86             
0068+  2A86 3A 01 27        LD A, ($2701)                       ; Check if this is the initial boot
0069+  2A89 A7              AND A                               ; Test
0070+  2A8A C2 9D 2A        JP NZ, BANNER_DONE                  ; skip if not
0071+  2A8D             
0072+  2A8D 11 7D 40        LD DE, $407D                        ; set DFILE as the destination
0073+  2A90 13              INC DE                              ; step over the first NL
0074+  2A91              
0075+  2A91 21 D6 2C        LD HL, BANNER_TEXT                  ; Banner message
0076+  2A94 01 20 00        LD BC, $20                          ; 32 characters
0077+  2A97 ED B0           LDIR                                ; copy banner
0078+  2A99             
0079+  2A99 21 01 27        LD HL, $2701                        ; set $2701 to 1 so banner will not be redrawn
0080+  2A9C 34              INC (HL)                            ;
0081+  2A9D             
0082+  2A9D             BANNER_DONE:
0083+  2A9D CD 85 02        CALL SUB_0285                       ; SLOW-FAST to set SLOW mode
0084+  2AA0 C3 02 05        JP L_04FF+3                         ; jump back in just after the CLS
0085+  2AA3             
0086+  2AA3             ;##########################################################
0087+  2AA3             ; Copy the Lambda 8300 display file to the 4th screen RAM
0088+  2AA3             
0089+  2AA3             ; Optimised for fully expanded fixed locate DFILE
0090+  2AA3             
0091+  2AA3             DISPLAY_ROUTINE:
0092+  2AA3 21 7D 40        LD HL,$407D                         ; Set HL to the Display File location
0093+  2AA6 11 00 24        LD DE,$2400                         ; Set DE to the Minstrel 4th screen RAM 
0094+  2AA9 3E 18           LD A,$18                            ; 24 lines
0095+  2AAB             
0096+  2AAB             COPY_LINE:
0097+  2AAB 23              INC HL                              ; skip the HALT / newline
0098+  2AAC 01 20 00        LD BC,$0020                         ; 32 characters per line
0099+  2AAF ED B0           LDIR                                ; copy line
0100+  2AB1             
0101+  2AB1 3D              DEC A                               ; finished?
0102+  2AB2 20 F7           JR NZ,COPY_LINE                     ; no, more lines
0103+  2AB4             
0104+  2AB4              
0105+  2AB4             
0106+  2AB4             ; waste time to be 100% Lambda 8300 speed
0107+  2AB4             ; yes, I did just keep adding and removing delays until it matched.
0108+  2AB4             ; LD B, $E3                             ; initial delay count
0109+  2AB4             
0110+  2AB4             ; WASTE_TIME:
0111+  2AB4             ; NOP
0112+  2AB4             ; NOP
0113+  2AB4             ; NOP
0114+  2AB4             ; DJNZ WASTE_TIME 
0115+  2AB4             
0116+  2AB4             ; end of frame
0117+  2AB4              
0118+  2AB4 3A 3B 40        LD A,($403B)                        ; get CDFLAG - DO NOT USE IY HERE
0119+  2AB7 CB 7F           BIT 7,A                             ; check for slow mode
0120+  2AB9             
0121+  2AB9 C2 BF 2A        JP NZ, END_SLOW                     ; fast mode?
0122+  2ABC             
0123+  2ABC             ; End the frame in fast mode. 
0124+  2ABC             ; Waste time until for the interrupt then go onto the next frame
0125+  2ABC             END_FAST:
0126+  2ABC FB              EI                                  ; enable interrupts.
0127+  2ABD 76              HALT                                ; halt and wait for the next interrupt
0128+  2ABE              
0129+  2ABE C9              RET                                 ; onto DISPLAY-1, start of the next frame
0130+  2ABF             
0131+  2ABF             ; End the frame in slow mode.
0132+  2ABF             ; return to users code until interrupted by the IRQ
0133+  2ABF             END_SLOW
0134+  2ABF E1              POP HL                              ; Throw away the call address 
0135+  2AC0             
0136+  2AC0 E1              POP HL                              ; ****
0137+  2AC1 D1              POP DE                              ; ***
0138+  2AC2 C1              POP BC                              ; **
0139+  2AC3 F1              POP AF                              ; * Restore Main Registers
0140+  2AC4             
0141+  2AC4 FB              EI                                  ; enable frame interrupts
0142+  2AC5             
0143+  2AC5 C9              RET                                 ; return - end of interrupt. Return is to 
0144+  2AC6                                                     ; user's program - BASIC or machine code.
0145+  2AC6                                                     ; which will be interrupted by every NMI.
0146+  2AC6             
0147+  2AC6             
0148+  2AC6             
0149+  2AC6             ;###########################################################
0150+  2AC6             ; clear the screen to indicate "fast" mode where the ZX80/1 
0151+  2AC6             ; would have stopped producing a television picture
0152+  2AC6             
0153+  2AC6             NEW_FAST:
0154+  2AC6 CD 70 03        CALL SUB_0370                       ; routine SET-FAST
0155+  2AC9 FD CB 3B B6     RES 6,(IY+$3B)                      ; Clear request CDFLAG
0156+  2ACD             
0157+  2ACD E5              PUSH HL
0158+  2ACE D5              PUSH DE
0159+  2ACF C5              PUSH BC
0160+  2AD0             
0161+  2AD0 21 00 24        LD HL, $2400                        ; start of video RAM
0162+  2AD3 11 01 24        LD DE, $2401                        ; the next byte
0163+  2AD6 01 FF 02        LD BC, $02FF                        ; number of bytes to clear -1
0164+  2AD9 AF              XOR A                               ; clear A
0165+  2ADA 77              LD (HL), A                          ; clear the first byte
0166+  2ADB ED B0           LDIR                                ; set all the rest to match
0167+  2ADD             
0168+  2ADD C1              POP BC
0169+  2ADE D1              POP DE
0170+  2ADF E1              POP HL
0171+  2AE0             
0172+  2AE0 C9              RET
0173+  2AE1             
0174+  2AE1             ;###################################################################
0175+  2AE1             ; The load routine detects if the program originated from a ZX81. 
0176+  2AE1             ; If it did, it patches it up to run.
0177+  2AE1             ; Extra routine to patch the font to reinstate 6 altered characters
0178+  2AE1             ; (also overwrites two unchanged characters to save having two loops)
0179+  2AE1             PATCH_FONT: 
0180+  2AE1 11 40 2C        LD DE, $2C40                        ; Destination is write only font RAM
0181+  2AE4 21 00 2A        LD HL, ZX81_FONT                    ; zx81 font characters $08-$0F in ROM
0182+  2AE7 01 40 00        LD BC, $0040                        ; There are 8 bit-mapped 8x8 characters
0183+  2AEA ED B0           LDIR                                ; Copy font from ROM to RAM
0184+  2AEC             
0185+  2AEC                                                     ; this is the line of code we replaced
0186+  2AEC 2A 0C 40        LD HL,($400C)                       ; Location of the ZX81 DFILE (loaded with program)
0187+  2AEF             
0188+  2AEF C9              RET                                 ; back to LOAD/SAVE
0189+  2AF0             
0190+  2AF0             ;###################################################################
0191+  2AF0             ; A variation of the ZX81 function in the second half of COPY_NEXT
0192+  2AF0             ; Read character data from the font in ROM ($2800-$29FF in this case)
0193+  2AF0             GET_CHAR_BITS:
0194+  2AF0 CB 27           SLA A                               ; (?) multiply by two
0195+  2AF2 87              ADD A,A                             ; multiply by four
0196+  2AF3 87              ADD A,A                             ; multiply by eight
0197+  2AF4             
0198+  2AF4 26 14           LD H,$14                            ; load H with half the address of character set.
0199+  2AF6 CB 14           RL H                                ; now $28 or $29 (with carry)
0200+  2AF8 83              ADD A,E                             ; add byte offset 0-7
0201+  2AF9 6F              LD L,A                              ; now HL addresses character source byte
0202+  2AFA             
0203+  2AFA CB 11           RL C                                ; test character, setting carry if inverse.
0204+  2AFC 9F              SBC A,A                             ; accumulator now $00 if normal, $FF if inverse.
0205+  2AFD             
0206+  2AFD AE              XOR (HL)                            ; combine with bit pattern at end or ROM.
0207+  2AFE             
0208+  2AFE C3 51 0A        JP L_0A51                           ; Back to original code (matches ZX81 from here)
0190   2B01             .INCLUDE "LoadSave.asm"
0001+  2B01             ;###############################################################################
0002+  2B01             ; Replacement LOAD and SAVE functions for Lambda 8300 BASIC for the Minstrel 4th
0003+  2B01             ; Dave Curran 2026-06-17
0004+  2B01             ;###############################################################################
0005+  2B01             
0006+  2B01             ;###############################################################################
0007+  2B01             ; replacement SAVE function with countdown
0008+  2B01             NEW_SAVE: 
0009+  2B01             
0010+  2B01 CD 70 03        CALL SUB_0370                       ; routine SET-FAST
0011+  2B04             
0012+  2B04 CD 1D 2C        CALL GET_NAME                       ; get user supplied program name
0013+  2B07 38 74           JR C,F02F4                          ; back with null name to REPORT-F above.
0014+  2B09             
0015+  2B09 F5              PUSH AF                             ; Save registers
0016+  2B0A C5              PUSH BC                             ; 
0017+  2B0B D5              PUSH DE                             ; 
0018+  2B0C E5              PUSH HL                             ; 
0019+  2B0D             
0020+  2B0D CD 35 2C        CALL DRAW_BOX
0021+  2B10             
0022+  2B10 11 69 25        LD DE, LINE2_POS                    ; draw the SAVING message
0023+  2B13 21 BA 2C        LD HL, SAVING_DOTS 
0024+  2B16 01 0E 00        LD BC, BOX_LENGTH
0025+  2B19 ED B0           LDIR
0026+  2B1B             
0027+  2B1B E1              POP HL                              ; Restore registers
0028+  2B1C D1              POP DE                              ; 
0029+  2B1D C1              POP BC                              ; 
0030+  2B1E F1              POP AF                              ; 
0031+  2B1F             
0032+  2B1F             ;; SAVE
0033+  2B1F FD 36 09 FF     LD (IY+$09),$FF                     ; Set version to $FF, indicating Lambda 8300 program
0034+  2B23 EB              EX DE,HL                            ;
0035+  2B24 11 CB 12        LD DE,$12CB                         ; five seconds timing value
0036+  2B27             
0037+  2B27             ;; HEADER
0038+  2B27 CD 3B 11    F02FF: CALL SUB_113B                    ; routine BREAK-1
0039+  2B2A 30 43           JR NC,F0332                         ; to BREAK-2
0040+  2B2C             
0041+  2B2C             ;; DELAY-1
0042+  2B2C 10 FE       F0304: DJNZ F0304                       ; to DELAY-1
0043+  2B2E             
0044+  2B2E 1B              DEC DE                              ;
0045+  2B2F 7A              LD A,D                              ;
0046+  2B30 B3              OR E                                ;
0047+  2B31 20 F4           JR NZ,F02FF                         ; back for delay to HEADER
0048+  2B33             
0049+  2B33             ;; OUT-NAME
0050+  2B33 CD 56 2B    F030B: CALL F031E                       ; routine OUT-BYTE
0051+  2B36 CB 7E           BIT 7,(HL)                          ; test for inverted bit.
0052+  2B38 23              INC HL                              ; address next character of name.
0053+  2B39 28 F8           JR Z,F030B                          ; back if not inverted to OUT-NAME
0054+  2B3B             
0055+  2B3B             ; now start saving the system variables onwards.
0056+  2B3B             
0057+  2B3B 21 09 40        LD HL,$4009                         ; set start of area to VERSN thereby
0058+  2B3E                                                     ; preserving RAMTOP etc.
0059+  2B3E             
0060+  2B3E             ;; OUT-PROG
0061+  2B3E CD 56 2B    F0316: CALL F031E                       ; routine OUT-BYTE
0062+  2B41             
0063+  2B41             ;; Check if finished
0064+  2B41 23              INC HL                              ; next byte
0065+  2B42 E5              PUSH HL                             ; store HL
0066+  2B43 EB              EX DE,HL                            ; move the pointer value to DE
0067+  2B44 2A 14 40        LD HL,($4014)                       ; load HL with E_LINE - the location following
0068+  2B47                                                     ; the variables end-marker.
0069+  2B47 37              SCF                                 ; set carry
0070+  2B48 ED 52           SBC HL,DE                           ; trial subtraction.
0071+  2B4A 38 06           JR C,SAVE_FINISHED                  ; finished, return to main loop
0072+  2B4C             
0073+  2B4C CD 59 2C        CALL DISPLAY_HL                     ; not finished, show the progress
0074+  2B4F             
0075+  2B4F E1              POP HL                              ; restore pointer.
0076+  2B50             
0077+  2B50 18 EC           JR F0316                            ; else back to do another byte.
0078+  2B52             
0079+  2B52             SAVE_FINISHED:
0080+  2B52 E1              POP HL                              ; remove byte address from stack
0081+  2B53 C3 21 02        JP L_0221                           ; LOAD/SAVE-COMPLETE
0082+  2B56             
0083+  2B56             ; -------------------------
0084+  2B56             ; THE 'OUT-BYTE' SUBROUTINE
0085+  2B56             ; -------------------------
0086+  2B56             ; This subroutine outputs a byte a bit at a time to a domestic tape recorder.
0087+  2B56             
0088+  2B56             ;; OUT-BYTE
0089+  2B56 5E          F031E: LD E,(HL)                        ; fetch byte to be saved.
0090+  2B57 37              SCF                                 ; set carry flag - as a marker.
0091+  2B58             
0092+  2B58             ;; EACH-BIT
0093+  2B58 CB 13       F0320: RL E                             ; C < 76543210 < C
0094+  2B5A C8              RET Z                               ; return when the marker bit has passed 
0095+  2B5B                                                     ; right through. >>
0096+  2B5B             
0097+  2B5B 9F              SBC A,A                             ; $FF if set bit or $00 with no carry.
0098+  2B5C E6 05           AND $05                             ; $05 $00
0099+  2B5E C6 04           ADD A,$04                           ; $09 $04
0100+  2B60 4F              LD C,A                              ; transfer timer to C. a set bit has a longer
0101+  2B61                                                     ; pulse than a reset bit.
0102+  2B61             
0103+  2B61             ;; PULSES
0104+  2B61 3E 08       F0329: LD A, $08                        ; set save output high
0105+  2B63 D3 FE           OUT ($FE),A                         ; 
0106+  2B65             
0107+  2B65 06 23           LD B,$23                            ; set timing constant
0108+  2B67             
0109+  2B67             ;; DELAY-2
0110+  2B67 10 FE       F032D: DJNZ F032D                       ; self-loop to DELAY-2
0111+  2B69             
0112+  2B69 AF              XOR A                               ; set save output low
0113+  2B6A D3 FE           OUT ($FE), A                        ;
0114+  2B6C             
0115+  2B6C CD 3B 11        CALL SUB_113B                       ; routine BREAK-1 test for BREAK key. 
0116+  2B6F             
0117+  2B6F             ;; BREAK-2
0118+  2B6F 30 0E       F0332: JR NC,F03A6                      ; forward with break to REPORT-D
0119+  2B71             
0120+  2B71 06 1E           LD B,$1E                            ; set timing value.
0121+  2B73             
0122+  2B73             ;; DELAY-3
0123+  2B73 10 FE       F0336: DJNZ F0336                       ; self-loop to DELAY-3
0124+  2B75             
0125+  2B75 0D              DEC C                               ; decrement counter
0126+  2B76 20 E9           JR NZ,F0329                         ; loop back to PULSES
0127+  2B78             
0128+  2B78             ;; DELAY-4
0129+  2B78 A7          F033B: AND A                            ; clear carry for next bit test.
0130+  2B79 10 FD           DJNZ F033B                          ; self loop to DELAY-4 (B is zero - 256)
0131+  2B7B             
0132+  2B7B 18 DB           JR F0320                            ; loop back to EACH-BIT
0133+  2B7D             
0134+  2B7D             ; --------------
0135+  2B7D             ; THE 'REPORT-F'
0136+  2B7D             ; --------------
0137+  2B7D             
0138+  2B7D             ;; REPORT-F
0139+  2B7D CF          F02F4: RST 08H                          ; ERROR-1
0140+  2B7E 0E              .BYTE $0E                           ; Error Report: No Program Name supplied.
0141+  2B7F             
0142+  2B7F             ;; REPORT-D
0143+  2B7F CF          F03A6: RST 08H                          ; ERROR-1
0144+  2B80 0C              .BYTE $0C                           ; Error Report: BREAK - CONT repeats
0145+  2B81             
0146+  2B81             
0147+  2B81             ;###############################################################################
0148+  2B81             ; replacement LOAD function with countdown
0149+  2B81             
0150+  2B81             NEW_LOAD: 
0151+  2B81             
0152+  2B81 CD 70 03        CALL SUB_0370                       ; routine SET-FAST
0153+  2B84             
0154+  2B84 CD 35 2C        CALL DRAW_BOX
0155+  2B87             
0156+  2B87 11 69 25        LD DE, LINE2_POS                    ; draw the LOADING message
0157+  2B8A 21 AC 2C        LD HL, LOADING_DOTS
0158+  2B8D 01 0E 00        LD BC, BOX_LENGTH
0159+  2B90 ED B0           LDIR
0160+  2B92             
0161+  2B92 CD 1D 2C        CALL GET_NAME                       ; get user supplied program name
0162+  2B95 38 12           JR C,SKIP_NAME                      ; carry set if LOAD ""
0163+  2B97             
0164+  2B97                                                     ; carry clear so LOAD "name"
0165+  2B97                                                     ; DE points to start of name, last character has bit 7 set
0166+  2B97             
0167+  2B97 42              LD B, D                             ; save address in BC
0168+  2B98 4B              LD C, E                             ;
0169+  2B99             
0170+  2B99             WAIT_FOR_NAME:
0171+  2B99 60              LD H, B                             ; load address from BC
0172+  2B9A 69              LD L, C                             ;
0173+  2B9B              
0174+  2B9B             CHECK_NAME: 
0175+  2B9B CD D3 2B        CALL LOAD_BYTE                      ; load a byte
0176+  2B9E 38 DF           JR C, F03A6                         ; break pressed before load started, recover
0177+  2BA0 BE              CP (HL)                             ; check if it matches name
0178+  2BA1 20 F6           JR NZ, WAIT_FOR_NAME                ; no match, wait again - add delay???
0179+  2BA3             
0180+  2BA3 23              INC HL                              ; address next character of name
0181+  2BA4 17              RLA                                 ; test bit 7
0182+  2BA5 30 F4           JR NC,CHECK_NAME                    ; no, continue checking
0183+  2BA7 18 08           JR LOAD_PROG                        ; name matched, now load the program
0184+  2BA9             
0185+  2BA9             SKIP_NAME:
0186+  2BA9 CD D3 2B        CALL LOAD_BYTE                      ; load a byte
0187+  2BAC 38 D1           JR C, F03A6                         ; break pressed before load started, recover
0188+  2BAE             
0189+  2BAE 17              RLA                                 ; bit 7 -> carry
0190+  2BAF 30 F8           JR NC, SKIP_NAME                    ; loop back until name skipped
0191+  2BB1             
0192+  2BB1             LOAD_PROG:
0193+  2BB1                                                     ; name has been skipped / matched, now start loading the program
0194+  2BB1              
0195+  2BB1 FD 34 15        INC (IY+$15)                        ; increment E_LINE_MSB to avoid load fail before it is overwritten
0196+  2BB4 21 09 40        LD HL, $4009                        ; set start load location
0197+  2BB7             
0198+  2BB7             LOADING:
0199+  2BB7 CD D3 2B        CALL LOAD_BYTE                      ; load a byte
0200+  2BBA DA 40 2A        JP C, INIT_4TH                      ; break pressed after load started, reset
0201+  2BBD             
0202+  2BBD 77              LD (HL),A                           ; store byte
0203+  2BBE             
0204+  2BBE 23              INC HL                              ; next byte
0205+  2BBF E5              PUSH HL                             ; store HL
0206+  2BC0 EB              EX DE,HL                            ; move the pointer value to DE
0207+  2BC1 2A 14 40        LD HL,($4014)                       ; load HL with E_LINE - the location following
0208+  2BC4                                                     ; the variables end-marker.
0209+  2BC4 37              SCF                                 ; set carry
0210+  2BC5 ED 52           SBC HL,DE                           ; trial subtraction.
0211+  2BC7              
0212+  2BC7 38 06           JR C,LOAD_FINISHED                  ; finished
0213+  2BC9             
0214+  2BC9 CD 59 2C        CALL DISPLAY_HL                     ; not finished, show the progress
0215+  2BCC             
0216+  2BCC E1              POP HL                              ; restore load pointer
0217+  2BCD 18 E8           JR LOADING                          ; else for more
0218+  2BCF             
0219+  2BCF             LOAD_FINISHED:
0220+  2BCF E1              POP HL                              ; remove byte address from stack
0221+  2BD0 C3 21 02        JP L_0221                           ; LOAD/SAVE-COMPLETE
0222+  2BD3             
0223+  2BD3             
0224+  2BD3             ;##########################################################
0225+  2BD3             ; Load a byte
0226+  2BD3             ; count transitions
0227+  2BD3             ; """"VVVV""""" = 0
0228+  2BD3             ; """"VVVVVVVVV""""" = 1
0229+  2BD3              
0230+  2BD3             ; A scratch
0231+  2BD3             ; B pulse timer
0232+  2BD3             ; C transition counter
0233+  2BD3             ; D previous value of the io port (masked)
0234+  2BD3             ; E bit counter
0235+  2BD3             ; L byte store
0236+  2BD3             
0237+  2BD3             ; returns byte in A
0238+  2BD3             ; carry set if break pressed
0239+  2BD3             ;##########################################################
0240+  2BD3             
0241+  2BD3             IO_FE_MASK .EQU %00100001               ; mask for tape and space column
0242+  2BD3             
0243+  2BD3             LOAD_BYTE:
0244+  2BD3 D9              EXX                                 ; swap to backup register set
0245+  2BD4             
0246+  2BD4             LOAD_AGAIN:
0247+  2BD4 1E 08           LD E, $08                           ; load bit counter
0248+  2BD6              
0249+  2BD6             LOAD_BIT:
0250+  2BD6 0E 00           LD C, $00                           ; clear transition counter
0251+  2BD8             
0252+  2BD8             LOAD_WAIT:
0253+  2BD8                                                     ; wait for the next bit to start
0254+  2BD8 3E 7F           LD A,$7F                            ; read from port $7FFE.
0255+  2BDA DB FE           IN A,($FE)                          ; the keyboard row with space.
0256+  2BDC E6 21           AND IO_FE_MASK                      ; mask all but the tape and space column bits
0257+  2BDE             
0258+  2BDE BA              CP D                                ; test if this is the same as the previous byte
0259+  2BDF CA D8 2B        JP Z, LOAD_WAIT                     ; if the same, keep waiting
0260+  2BE2              
0261+  2BE2 CB 47           BIT 0, A                            ; has this changed becase of the space key?
0262+  2BE4 CA 1A 2C        JP Z, LOAD_BREAK                    ; yes space / break pressed
0263+  2BE7             
0264+  2BE7 57              LD D, A                             ; store previous value
0265+  2BE8             
0266+  2BE8             LOAD_PULSE:
0267+  2BE8 06 14           LD B, $14                           ; number of tests before bit transitions over
0268+  2BEA             
0269+  2BEA             LOAD_TEST:
0270+  2BEA 3E 7F           LD A,$7F                            ; read from port $7FFE.
0271+  2BEC DB FE           IN A,($FE)                          ; the keyboard row with space.
0272+  2BEE E6 21           AND IO_FE_MASK                      ; mask all but the tape and space column bits
0273+  2BF0             
0274+  2BF0 BA              CP D                                ; test if this is the same as the previous byte
0275+  2BF1 CA FD 2B        JP Z, LOAD_SAME                     ; if the same, different skip forward
0276+  2BF4              
0277+  2BF4 CB 47           BIT 0, A                            ; has this changed becase of the space key?
0278+  2BF6 CA 1A 2C        JP Z, LOAD_BREAK                    ; yes space / break pressed
0279+  2BF9             
0280+  2BF9 0C              INC C                               ; transition detected, increment counter
0281+  2BFA 57              LD D, A                             ; store previous value
0282+  2BFB             
0283+  2BFB 18 EB           JR LOAD_PULSE                       ; loop back for more
0284+  2BFD             
0285+  2BFD             LOAD_SAME:
0286+  2BFD 10 EB           DJNZ LOAD_TEST                      ; keep looping up to 16 times
0287+  2BFF             
0288+  2BFF                                                     ; no transition has been detected for 16 tests, end of this bit
0289+  2BFF             
0290+  2BFF 79              LD A, C                             ; check the transition count
0291+  2C00              
0292+  2C00 FE 04           CP $04                              ; is it < 4
0293+  2C02 38 D0           JR C, LOAD_AGAIN                    ; error, start again
0294+  2C04             
0295+  2C04 FE 0A           CP $0A                              ; is C < 10
0296+  2C06 38 06           JR C, LOAD_ZERO                     ; it's a zero
0297+  2C08             
0298+  2C08 FE 14           CP $14                              ; is C < 20
0299+  2C0A 38 05           JR C, LOAD_ONE                      ; it's a one
0300+  2C0C             
0301+  2C0C 18 C6           JR LOAD_AGAIN                       ; error, start again
0302+  2C0E             
0303+  2C0E             LOAD_ZERO:
0304+  2C0E A7              AND A                               ; clear carry flag
0305+  2C0F 18 00           JR LOAD_NEXT
0306+  2C11             
0307+  2C11             LOAD_ONE:
0308+  2C11                                                     ; carry already set
0309+  2C11             
0310+  2C11             LOAD_NEXT:
0311+  2C11 CB 15           RL L                                ; rotate the bit into position in the byte store
0312+  2C13              
0313+  2C13 1D              DEC E                               ; decrememnt bit counter
0314+  2C14 20 C0           JR NZ, LOAD_BIT                     ; get next bit
0315+  2C16             
0316+  2C16                                                     ; 8 bits complete
0317+  2C16             
0318+  2C16 7D              LD A, L                             ; received byte to A
0319+  2C17 D9              EXX                                 ; restore normal registers 
0320+  2C18 A7              AND A                               ; clear carry flag
0321+  2C19 C9              RET                                 ;
0322+  2C1A             
0323+  2C1A             LOAD_BREAK:
0324+  2C1A D9              EXX                                 ; restore normal registers 
0325+  2C1B 37              SCF                                 ; set the carry flag to indicate break pressed
0326+  2C1C C9              RET                                 ; 
0327+  2C1D             
0328+  2C1D             
0329+  2C1D             ;###############################################################################
0330+  2C1D             ; GET_NAME
0331+  2C1D             ; parse the user input to get the program name
0332+  2C1D             
0333+  2C1D             GET_NAME:
0334+  2C1D CD 4A 11        CALL SUB_114A                       ; routine SCANNING
0335+  2C20 3A 01 40        LD A,($4001)                        ; sv FLAGS
0336+  2C23 87              ADD A,A                             ;
0337+  2C24 FA 33 04        JP M,L_0433                         ; to REPORT-C
0338+  2C27             
0339+  2C27 E1              POP HL                              ;
0340+  2C28 D0              RET NC                              ;
0341+  2C29             
0342+  2C29 E5              PUSH HL                             ;
0343+  2C2A CD ED 15        CALL SUB_15ED                       ; routine STK-FETCH
0344+  2C2D 62              LD H,D                              ;
0345+  2C2E 6B              LD L,E                              ;
0346+  2C2F 0D              DEC C                               ;
0347+  2C30 F8              RET M                               ;
0348+  2C31             
0349+  2C31 09              ADD HL,BC                           ;
0350+  2C32 CB FE           SET 7,(HL)                          ;
0351+  2C34 C9              RET                                 ;
0352+  2C35             
0353+  2C35             ;###############################################################################
0354+  2C35             ; display loading screen
0355+  2C35             ; /------------\
0356+  2C35             ; |LOADING ....|
0357+  2C35             ; \------------/
0358+  2C35             
0359+  2C35             DRAW_BOX:
0360+  2C35              
0361+  2C35 AF              XOR A                               ; clear the screen, using A=0
0362+  2C36 21 00 24        LD HL, $2400                        ; start of video RAM
0363+  2C39 11 01 24        LD DE, $2401                        ; the next byte
0364+  2C3C 01 00 03        LD BC, $0300                        ; number of bytes to clear (including $2700)
0365+  2C3F 77              LD (HL), A                          ; Clear the first byte
0366+  2C40 ED B0           LDIR                                ; Clear all the rest
0367+  2C42              
0368+  2C42 11 49 25        LD DE, LINE1_POS                    ; draw the top of the box
0369+  2C45 21 9E 2C        LD HL, BOX_TOP 
0370+  2C48 01 0E 00        LD BC, BOX_LENGTH
0371+  2C4B ED B0           LDIR
0372+  2C4D             
0373+  2C4D 11 89 25        LD DE, LINE3_POS                    ; draw the bottom of the box
0374+  2C50 21 C8 2C        LD HL, BOX_BOTTOM
0375+  2C53 01 0E 00        LD BC, BOX_LENGTH
0376+  2C56 ED B0           LDIR
0377+  2C58             
0378+  2C58 C9              RET
0379+  2C59             
0380+  2C59             ;###############################################################################
0381+  2C59             ; diplay the current value of HL in the loading / saving box
0382+  2C59             ; works from right to left, updating as few digits as necessary
0383+  2C59             ; (if a digit is not 0, then don't update anything to it's left)
0384+  2C59             
0385+  2C59             DISPLAY_HL: 
0386+  2C59 11 75 25        LD DE, DIGITS_POS+3
0387+  2C5C             DISPLAY_HL2:
0388+  2C5C 0E 0F           LD C, $0F                           ; 0F is used a lot, so preload it 
0389+  2C5E              
0390+  2C5E                                                     ; start with the LSB ...L
0391+  2C5E 7D              LD A, L
0392+  2C5F A1              AND C
0393+  2C60 C6 1C           ADD A, _0
0394+  2C62 12              LD (DE), A
0395+  2C63 1B              DEC DE
0396+  2C64             
0397+  2C64                                                     ; display ..L.
0398+  2C64 7D              LD A, L
0399+  2C65 1F              RRA
0400+  2C66 1F              RRA
0401+  2C67 1F              RRA
0402+  2C68 1F              RRA
0403+  2C69 A1              AND C
0404+  2C6A 28 11           JR Z, DISPLAY_HL_END                ; skip to the end if this is non-zero
0405+  2C6C             
0406+  2C6C             
0407+  2C6C C6 1C           ADD A, _0
0408+  2C6E 12              LD (DE), A
0409+  2C6F 1B              DEC DE
0410+  2C70             
0411+  2C70                                                     ; display .H..
0412+  2C70 7C              LD A, H
0413+  2C71 A1              AND C
0414+  2C72 C6 1C           ADD A, _0
0415+  2C74 12              LD (DE), A
0416+  2C75 1B              DEC DE
0417+  2C76             
0418+  2C76                                                     ; display H
0419+  2C76 7C              LD A, H
0420+  2C77 1F              RRA
0421+  2C78 1F              RRA
0422+  2C79 1F              RRA
0423+  2C7A 1F              RRA
0424+  2C7B E6 0F           AND $0F
0425+  2C7D             
0426+  2C7D             DISPLAY_HL_END: 
0427+  2C7D C6 1C           ADD A, _0
0428+  2C7F 12              LD (DE), A
0429+  2C80              
0430+  2C80 C9              RET
0431+  2C81                 0191   2C81             .INCLUDE "Sound.asm"
0001+  2C81             ;###########################################################
0002+  2C81             ; Sound functions for Lambda 8300 BASIC for the Minstrel 4th
0003+  2C81             ; Dave Curran 2026-06-20
0004+  2C81             ;###########################################################
0005+  2C81             
0006+  2C81             ;##############################################################################
0007+  2C81             ; Play Note
0008+  2C81             ; E = note, defined as 32500Hz/E, so (0=256=>127Hz) to (1=>32.5KHz)
0009+  2C81             ; BC = duration, defined as BC/65ms, so (1=>15ms) to (0=65536=>1 second)
0010+  2C81             ; Two entry points, key beep, error and SOUND use PLAY_NOTE, MUSIC uses PLAY_NOTE_2
0011+  2C81             
0012+  2C81             PLAY_NOTE:
0013+  2C81             ; speaker on
0014+  2C81 AF              XOR A                               ; Clear A so save output (bit 5) stays low
0015+  2C82 D3 FE           OUT ($FE),A                         ; Speaker on    
0016+  2C84 53              LD D,E                              ; Load note period into D
0017+  2C85             
0018+  2C85             ; first loop, after speaker is on
0019+  2C85             PLAY_NOTE_2:
0020+  2C85 0B              DEC BC                              ; Count down duration
0021+  2C86 78              LD A,B                              ; Check if BC=0    
0022+  2C87 B1              OR C                                ; 
0023+  2C88 C8              RET Z                               ; If BC=0 exit here
0024+  2C89 15              DEC D                               ; Count down note    
0025+  2C8A 28 04           JR Z,_PLAY_NOTE_3                   ; Note countdown complete, speaker off
0026+  2C8C 00              NOP                                 ; Loop timing
0027+  2C8D 00              NOP                                 ;
0028+  2C8E 18 F5           JR PLAY_NOTE_2                      ; Loop until note or duration complete
0029+  2C90             
0030+  2C90             ; speaker off
0031+  2C90             _PLAY_NOTE_3:
0032+  2C90 DB FE           IN A,($FE)                          ; Speaker off
0033+  2C92 53              LD D,E                              ; Load note period into D
0034+  2C93             
0035+  2C93             ; second loop, with speaker off
0036+  2C93             _PLAY_NOTE_4:
0037+  2C93 0B              DEC BC                              ; Count down duration
0038+  2C94 78              LD A,B                              ; Check if BC=0    
0039+  2C95 B1              OR C                                ; 
0040+  2C96 C8              RET Z                               ; If BC=0 exit here
0041+  2C97 15              DEC D                               ; Count down note    
0042+  2C98 28 E7           JR Z,PLAY_NOTE                      ; Note countdown complete, speaker on
0043+  2C9A 00              NOP                                 ; Loop timing
0044+  2C9B 00              NOP                                 ;
0045+  2C9C 18 F5           JR _PLAY_NOTE_4                     ; Loop until note or duration complete
0046+  2C9E             
0192   2C9E             .INCLUDE "Strings.asm"
0001+  2C9E             ;##############################################################################
0002+  2C9E             ; Strings for Lambda 8300 BASIC for the Minstrel 4th
0003+  2C9E             ; Dave Curran 2026-06-17
0004+  2C9E             ;##############################################################################
0005+  2C9E             
0006+  2C9E             ;##############################################################################
0007+  2C9E             ; Strings
0008+  2C9E             __              .EQU $00
0009+  2C9E             _SPACE          .EQU $00
0010+  2C9E             _SNOW           .EQU $08
0011+  2C9E             _DASH           .EQU $16
0012+  2C9E             _DOT            .EQU $1B
0013+  2C9E             _0 	        .EQU $1C
0014+  2C9E             _1 	        .EQU $1D
0015+  2C9E             _2 	        .EQU $1E
0016+  2C9E             _3 	        .EQU $1F
0017+  2C9E             _4 	        .EQU $20
0018+  2C9E             _5 	        .EQU $21
0019+  2C9E             _6 	        .EQU $22
0020+  2C9E             _7 	        .EQU $23
0021+  2C9E             _8 	        .EQU $24
0022+  2C9E             _9 	        .EQU $25
0023+  2C9E             _A 	        .EQU $26
0024+  2C9E             _B 	        .EQU $27
0025+  2C9E             _C 	        .EQU $28
0026+  2C9E             _D 	        .EQU $29
0027+  2C9E             _E 	        .EQU $2A
0028+  2C9E             _F 	        .EQU $2B
0029+  2C9E             _G 	        .EQU $2C
0030+  2C9E             _H 	        .EQU $2D
0031+  2C9E             _I 	        .EQU $2E
0032+  2C9E             _J 	        .EQU $2F
0033+  2C9E             _K 	        .EQU $30
0034+  2C9E             _L 	        .EQU $31
0035+  2C9E             _M 	        .EQU $32
0036+  2C9E             _N 	        .EQU $33
0037+  2C9E             _O 	        .EQU $34
0038+  2C9E             _P 	        .EQU $35
0039+  2C9E             _Q 	        .EQU $36
0040+  2C9E             _R 	        .EQU $37
0041+  2C9E             _S 	        .EQU $38
0042+  2C9E             _T 	        .EQU $39
0043+  2C9E             _U 	        .EQU $3A
0044+  2C9E             _V 	        .EQU $3B
0045+  2C9E             _W 	        .EQU $3C
0046+  2C9E             _X 	        .EQU $3D
0047+  2C9E             _Y 	        .EQU $3E
0048+  2C9E             _Z 	        .EQU $3F
0049+  2C9E             
0050+  2C9E             _UDG_00         .EQU $40
0051+  2C9E             ; ...
0052+  2C9E             _UDG_3F         .EQU $7F
0053+  2C9E             
0054+  2C9E             _NEW_LINE       .EQU $76
0055+  2C9E             
0056+  2C9E             LINE1_POS       .EQU     $2549          ; $2400+32*10+9
0057+  2C9E             LINE2_POS       .EQU     $2569          ; $2400+32*11+9
0058+  2C9E             LINE3_POS       .EQU     $2589          ; $2400+32*12+9
0059+  2C9E             DIGITS_POS      .EQU     LINE2_POS+$09
0060+  2C9E             BOX_LENGTH      .EQU     $0E
0061+  2C9E             
0062+  2C9E             ;##########################################################
0063+  2C9E             
0064+  2C9E             BOX_TOP:
0065+  2C9E 07 03 03 03         .BYTE    $07, $03, $03, $03, $03, $03, $03, $03, $03, $03, $03, $03, $03, $84
0065+  2CA2 03 03 03 03 
0065+  2CA6 03 03 03 03 
0065+  2CAA 03 84 
0066+  2CAC             
0067+  2CAC             LOADING_DOTS:
0068+  2CAC 05 31 34 26         .BYTE    $05, _L, _O, _A, _D, _I, _N, _G, __, _DOT, _DOT, _DOT, _DOT, $85
0068+  2CB0 29 2E 33 2C 
0068+  2CB4 00 1B 1B 1B 
0068+  2CB8 1B 85 
0069+  2CBA             
0070+  2CBA             SAVING_DOTS:
0071+  2CBA 05 38 26 3B         .BYTE    $05, _S, _A, _V, _I, _N, _G, __, __, _DOT, _DOT, _DOT, _DOT, $85
0071+  2CBE 2E 33 2C 00 
0071+  2CC2 00 1B 1B 1B 
0071+  2CC6 1B 85 
0072+  2CC8             
0073+  2CC8             BOX_BOTTOM:
0074+  2CC8 82 83 83 83         .BYTE    $82, $83, $83, $83, $83, $83, $83, $83, $83, $83, $83, $83, $83, $81
0074+  2CCC 83 83 83 83 
0074+  2CD0 83 83 83 83 
0074+  2CD4 83 81 
0075+  2CD6             
0076+  2CD6             BANNER_TEXT:
0077+  2CD6                     ; "LAMBDA 8300 - MINSTREL 4TH Vx.y "
0078+  2CD6 31 26 32 27         .BYTE    _L, _A, _M, _B, _D, _A, __, _8, _3, _0, _0, __
0078+  2CDA 29 26 00 24 
0078+  2CDE 1F 1C 1C 00 
0079+  2CE2 16 00 32 2E         .BYTE    _DASH, __, _M, _I, _N, _S, _T, _R, _E, _L, __
0079+  2CE6 33 38 39 37 
0079+  2CEA 2A 31 00 
0080+  2CED 20 39 2D 00         .BYTE    _4, _T, _H, __, _V, _1, _DOT, _0, __
0080+  2CF1 3B 1D 1B 1C 
0080+  2CF5 00 
0081+  2CF6             BANNER_TEXT_END:
0082+  2CF6             
0083+  2CF6             ;##########################################################
0193   2CF6             
0194   3C00             .ORG $3C00
0195   3C00             
0196   3C00             ; 1K system RAM (unused) is here
0197   3C00             
0198   3FFF             .ORG $3FFF
0199   3FFF FF          .BYTE $FF
0200   4000             .END
0201   4000             
tasm: Number of errors = 0
